Archive member included to satisfy reference by file (symbol)

/home/asergey/runtime-EclipseApplication/x86dev/lib/libcsp_x86_64.a(csp_init.o)
                              bsp.x86_64.o (csp_globals)
/home/asergey/runtime-EclipseApplication/x86dev/lib/libcsp_x86_64.a(csp_mem_map_am.o)
                              bsp.x86_64.o (get_tea)
/home/asergey/runtime-EclipseApplication/x86dev/lib/libcsp_x86_64.a(launch_am.o)
                              /home/asergey/runtime-EclipseApplication/x86dev/lib/libcsp_x86_64.a(csp_init.o) (setseg)
/home/asergey/runtime-EclipseApplication/x86dev/lib/libcsp_x86_64.a(lowInit.o)
                              bsp.x86_64.o (lowInit)
/home/asergey/runtime-EclipseApplication/x86dev/lib/libcsp_x86_64.a(trap.o)
                              bsp.x86_64.o (csp_ioint_trapinit)
/home/asergey/runtime-EclipseApplication/x86dev/lib/libcsp_x86_64.a(csp_flih_asm.o)
                              /home/asergey/runtime-EclipseApplication/x86dev/lib/libcsp_x86_64.a(trap.o) (exceptions_vector_table)
/home/asergey/runtime-EclipseApplication/x86dev/lib/libcsp_x86_64.a(launch_asm.o)
                              /home/asergey/runtime-EclipseApplication/x86dev/lib/libcsp_x86_64.a(launch_am.o) (csp_launch_os_asm)
/home/asergey/runtime-EclipseApplication/x86dev/lib/libcsp_x86_64.a(csp_cache.o)
                              /home/asergey/runtime-EclipseApplication/x86dev/lib/libcsp_x86_64.a(csp_init.o) (cache_op)
/home/asergey/runtime-EclipseApplication/x86dev/lib/libcsp_x86_64.a(csp_init_am.o)
                              /home/asergey/runtime-EclipseApplication/x86dev/lib/libcsp_x86_64.a(lowInit.o) (csp_pre_init)
/home/asergey/runtime-EclipseApplication/x86dev/lib/libdrivers.a(ahcidrvr.o)
                              conf.o (rahci_install)
/home/asergey/runtime-EclipseApplication/x86dev/lib/libdrivers.a(ahciinfo.o)
                              conf.o (ahciinfo0)
/home/asergey/runtime-EclipseApplication/x86dev/lib/libdrivers.a(kdbdrvr.o)
                              conf.o (skdb_install)
/home/asergey/runtime-EclipseApplication/x86dev/lib/libdrivers.a(lcs_emdrvr.o)
                              conf.o (lem_ioctl)
/home/asergey/runtime-EclipseApplication/x86dev/lib/libdrivers.a(lcs_eminfo.o)
                              conf.o (lcsem_info0)
/home/asergey/runtime-EclipseApplication/x86dev/lib/libdrivers.a(ptracedrvr.o)
                              conf.o (ptrace_install)
/home/asergey/runtime-EclipseApplication/x86dev/lib/libdrivers.a(tty_16550.o)
                              conf.o (ttyinstall_16550)
/home/asergey/runtime-EclipseApplication/x86dev/lib/libdrivers.a(ttydrvr.o)
                              /home/asergey/runtime-EclipseApplication/x86dev/lib/libdrivers.a(tty_16550.o) (duart_int)
/home/asergey/runtime-EclipseApplication/x86dev/lib/libdrivers.a(ttyinfo.o)
                              conf.o (gencom_without_skdb)
/home/asergey/runtime-EclipseApplication/x86dev/lib/libdrivers.a(ehci_pci.o)
                              conf.o (ehci_pci_install)
/home/asergey/runtime-EclipseApplication/x86dev/lib/libdrivers.a(xhci_pci.o)
                              conf.o (xhci_install)
/home/asergey/runtime-EclipseApplication/x86dev/lib/libdrivers.a(simusb.o)
                              conf.o (rsimusb_install)
/home/asergey/runtime-EclipseApplication/x86dev/lib/libdrivers.a(scsimgr.o)
                              /home/asergey/runtime-EclipseApplication/x86dev/lib/libdrivers.a(simusb.o) (scsimgr_deregister)
/home/asergey/runtime-EclipseApplication/x86dev/lib/libdrivers.a(scsi_timeout.o)
                              /home/asergey/runtime-EclipseApplication/x86dev/lib/libdrivers.a(scsimgr.o) (scsi_device_command_table)
/home/asergey/runtime-EclipseApplication/x86dev/lib/libdrivers.a(usbdrvr.o)
                              /home/asergey/runtime-EclipseApplication/x86dev/lib/libdrivers.a(ehci_pci.o) (cold)
/home/asergey/runtime-EclipseApplication/x86dev/lib/libdrivers.a(usbinfo.o)
                              conf.o (usb_info0)
/home/asergey/runtime-EclipseApplication/x86dev/lib/libdrivers.a(virtio_netdrvr.o)
                              conf.o (virtio_net_ioctl)
/home/asergey/runtime-EclipseApplication/x86dev/lib/libdrivers.a(lsk_helperdrvr.o)
                              conf.o (lsk_helper_install)
/home/asergey/runtime-EclipseApplication/x86dev/lib/libdrivers.a(lcs_igcdrvr.o)
                              conf.o (lcs_igc_ioctl)
/home/asergey/runtime-EclipseApplication/x86dev/lib/libdrivers.a(memdrvr.o)
                              conf.o (memread)
/home/asergey/runtime-EclipseApplication/x86dev/lib/libdrivers.a(ptydrvr.o)
                              conf.o (ptyinstall)
/home/asergey/runtime-EclipseApplication/x86dev/lib/libdrivers.a(ptyinfo.o)
                              conf.o (ptyinfo)
/home/asergey/runtime-EclipseApplication/x86dev/lib/libdrivers.a(rnddrvr.o)
                              conf.o (random_write)
/home/asergey/runtime-EclipseApplication/x86dev/lib/libdrivers.a(lfatfsdrvr.o)
                              conf.o (lfat_install)
/home/asergey/runtime-EclipseApplication/x86dev/lib/libdrivers.a(ixgbepfdrvr.o)
                              conf.o (ixgbepf_install)
/home/asergey/runtime-EclipseApplication/x86dev/lib/libdrivers.a(ixgbepfinfo.o)
                              conf.o (ixgbepf_port_info)
/home/asergey/runtime-EclipseApplication/x86dev/lib/libdrivers.a(lcsdrvr.o)
                              conf.o (lcs_install)
/home/asergey/runtime-EclipseApplication/x86dev/lib/libdrivers.a(lcsinfo.o)
                              conf.o (lcs_config)
/home/asergey/runtime-EclipseApplication/x86dev/lib/libdrivers.a(lsk_fifo_pci.o)
                              conf.o (lsk_fifo_pci_install)
/home/asergey/runtime-EclipseApplication/x86dev/lib/libdrivers.a(lsk_fifodrvr.o)
                              /home/asergey/runtime-EclipseApplication/x86dev/lib/libdrivers.a(lsk_fifo_pci.o) (lsk_fifo_install)
/home/asergey/runtime-EclipseApplication/x86dev/lib/libdrivers.a(lsk_fifoinfo.o)
                              conf.o (lsk_fifoinfo)
/home/asergey/runtime-EclipseApplication/x86dev/lib/libdrivers.a(hmdrvr.o)
                              conf.o (hm_open)
/home/asergey/runtime-EclipseApplication/x86dev/lib/libdrivers.a(hminfo.o)
                              conf.o (hminfo0)
/home/asergey/runtime-EclipseApplication/x86dev/lib/libdrivers.a(mmapdrvr.o)
                              conf.o (mmapioctl)
/home/asergey/runtime-EclipseApplication/x86dev/lib/libdrivers.a(ahci.o)
                              /home/asergey/runtime-EclipseApplication/x86dev/lib/libdrivers.a(ahcidrvr.o) (ahci_attach)
/home/asergey/runtime-EclipseApplication/x86dev/lib/libdrivers.a(ahci-port.o)
                              /home/asergey/runtime-EclipseApplication/x86dev/lib/libdrivers.a(ahci.o) (device_add_child)
/home/asergey/runtime-EclipseApplication/x86dev/lib/libdrivers.a(dis_x86_64.o)
                              /home/asergey/runtime-EclipseApplication/x86dev/lib/libdrivers.a(kdbdrvr.o) (__kdb_dis_start)
/home/asergey/runtime-EclipseApplication/x86dev/lib/libdrivers.a(kdb_x86_64.o)
                              /home/asergey/runtime-EclipseApplication/x86dev/lib/libdrivers.a(kdbdrvr.o) (__kdb_arch_start)
/home/asergey/runtime-EclipseApplication/x86dev/lib/libdrivers.a(remote.o)
                              /home/asergey/runtime-EclipseApplication/x86dev/lib/libdrivers.a(kdb_x86_64.o) (fill_incmplt_ctx)
/home/asergey/runtime-EclipseApplication/x86dev/lib/libdrivers.a(tty_io.o)
                              /home/asergey/runtime-EclipseApplication/x86dev/lib/libdrivers.a(tty_16550.o) (tty_read_reg)
/home/asergey/runtime-EclipseApplication/x86dev/lib/libdrivers.a(usbdi.o)
                              /home/asergey/runtime-EclipseApplication/x86dev/lib/libdrivers.a(usbdrvr.o) (usbd_init)
/home/asergey/runtime-EclipseApplication/x86dev/lib/libdrivers.a(usb_lynxos.o)
                              /home/asergey/runtime-EclipseApplication/x86dev/lib/libdrivers.a(ehci_pci.o) (lynxos_find_device)
/home/asergey/runtime-EclipseApplication/x86dev/lib/libdrivers.a(usb_subr.o)
                              /home/asergey/runtime-EclipseApplication/x86dev/lib/libdrivers.a(usbdrvr.o) (usb_delay_ms)
/home/asergey/runtime-EclipseApplication/x86dev/lib/libdrivers.a(usb_callouts.o)
                              /home/asergey/runtime-EclipseApplication/x86dev/lib/libdrivers.a(usbdi.o) (usb_callout_init)
/home/asergey/runtime-EclipseApplication/x86dev/lib/libdrivers.a(ohci_drvr.o)
                              /home/asergey/runtime-EclipseApplication/x86dev/lib/libdrivers.a(usb_lynxos.o) (ohci_pci_ca)
/home/asergey/runtime-EclipseApplication/x86dev/lib/libdrivers.a(ohci.o)
                              /home/asergey/runtime-EclipseApplication/x86dev/lib/libdrivers.a(ohci_drvr.o) (ohci_activate)
/home/asergey/runtime-EclipseApplication/x86dev/lib/libdrivers.a(ohci_map.o)
                              /home/asergey/runtime-EclipseApplication/x86dev/lib/libdrivers.a(usb_lynxos.o) (ohci_map_ca)
/home/asergey/runtime-EclipseApplication/x86dev/lib/libdrivers.a(ehci_map.o)
                              /home/asergey/runtime-EclipseApplication/x86dev/lib/libdrivers.a(usb_lynxos.o) (ehci_map_ca)
/home/asergey/runtime-EclipseApplication/x86dev/lib/libdrivers.a(ehci.o)
                              /home/asergey/runtime-EclipseApplication/x86dev/lib/libdrivers.a(ehci_pci.o) (ehci_init)
/home/asergey/runtime-EclipseApplication/x86dev/lib/libdrivers.a(xhci_map.o)
                              /home/asergey/runtime-EclipseApplication/x86dev/lib/libdrivers.a(usb_lynxos.o) (xhci_map_ca)
/home/asergey/runtime-EclipseApplication/x86dev/lib/libdrivers.a(xhci.o)
                              /home/asergey/runtime-EclipseApplication/x86dev/lib/libdrivers.a(xhci_map.o) (xhci_activate)
/home/asergey/runtime-EclipseApplication/x86dev/lib/libdrivers.a(uhub.o)
                              /home/asergey/runtime-EclipseApplication/x86dev/lib/libdrivers.a(usb_lynxos.o) (uhub_uhub_ca)
/home/asergey/runtime-EclipseApplication/x86dev/lib/libdrivers.a(uhidev.o)
                              /home/asergey/runtime-EclipseApplication/x86dev/lib/libdrivers.a(usb_lynxos.o) (uhidev_ca)
/home/asergey/runtime-EclipseApplication/x86dev/lib/libdrivers.a(ukbd.o)
                              /home/asergey/runtime-EclipseApplication/x86dev/lib/libdrivers.a(usb_lynxos.o) (ukbd_ca)
/home/asergey/runtime-EclipseApplication/x86dev/lib/libdrivers.a(ukbdmap.o)
                              /home/asergey/runtime-EclipseApplication/x86dev/lib/libdrivers.a(ukbd.o) (ukbd_keydesctab)
/home/asergey/runtime-EclipseApplication/x86dev/lib/libdrivers.a(ums.o)
                              /home/asergey/runtime-EclipseApplication/x86dev/lib/libdrivers.a(usb_lynxos.o) (ums_ca)
/home/asergey/runtime-EclipseApplication/x86dev/lib/libdrivers.a(umass.o)
                              /home/asergey/runtime-EclipseApplication/x86dev/lib/libdrivers.a(usb_lynxos.o) (umass_ca)
/home/asergey/runtime-EclipseApplication/x86dev/lib/libdrivers.a(umass_quirks.o)
                              /home/asergey/runtime-EclipseApplication/x86dev/lib/libdrivers.a(umass.o) (umass_lookup)
/home/asergey/runtime-EclipseApplication/x86dev/lib/libdrivers.a(virtqueue.o)
                              /home/asergey/runtime-EclipseApplication/x86dev/lib/libdrivers.a(virtio_netdrvr.o) (virtqueue_notify)
/home/asergey/runtime-EclipseApplication/x86dev/lib/libdrivers.a(virtio_pci.o)
                              /home/asergey/runtime-EclipseApplication/x86dev/lib/libdrivers.a(virtio_netdrvr.o) (vtpci_set_status)
/home/asergey/runtime-EclipseApplication/x86dev/lib/libdrivers.a(if_igc.o)
                              /home/asergey/runtime-EclipseApplication/x86dev/lib/libdrivers.a(lcs_igcdrvr.o) (igc_if_init)
/home/asergey/runtime-EclipseApplication/x86dev/lib/libdrivers.a(igc_i225.o)
                              /home/asergey/runtime-EclipseApplication/x86dev/lib/libdrivers.a(if_igc.o) (igc_set_eee_i225)
/home/asergey/runtime-EclipseApplication/x86dev/lib/libdrivers.a(igc_mac.o)
                              /home/asergey/runtime-EclipseApplication/x86dev/lib/libdrivers.a(igc_i225.o) (igc_null_ops_generic)
/home/asergey/runtime-EclipseApplication/x86dev/lib/libdrivers.a(igc_nvm.o)
                              /home/asergey/runtime-EclipseApplication/x86dev/lib/libdrivers.a(igc_i225.o) (igc_null_write_nvm)
/home/asergey/runtime-EclipseApplication/x86dev/lib/libdrivers.a(igc_phy.o)
                              /home/asergey/runtime-EclipseApplication/x86dev/lib/libdrivers.a(igc_i225.o) (igc_init_phy_ops_generic)
/home/asergey/runtime-EclipseApplication/x86dev/lib/libdrivers.a(lfatfs_blk.o)
                              /home/asergey/runtime-EclipseApplication/x86dev/lib/libdrivers.a(lfatfsdrvr.o) (lfat_getblkp)
/home/asergey/runtime-EclipseApplication/x86dev/lib/libdrivers.a(lfatfs_dent.o)
                              /home/asergey/runtime-EclipseApplication/x86dev/lib/libdrivers.a(lfatfsdrvr.o) (lfat_getdents)
/home/asergey/runtime-EclipseApplication/x86dev/lib/libdrivers.a(lfatfs_dir.o)
                              /home/asergey/runtime-EclipseApplication/x86dev/lib/libdrivers.a(lfatfsdrvr.o) (lfat_mkdir)
/home/asergey/runtime-EclipseApplication/x86dev/lib/libdrivers.a(lfatfs_inode.o)
                              /home/asergey/runtime-EclipseApplication/x86dev/lib/libdrivers.a(lfatfsdrvr.o) (lfat_read_inode)
/home/asergey/runtime-EclipseApplication/x86dev/lib/libdrivers.a(lfatfs_mnt.o)
                              /home/asergey/runtime-EclipseApplication/x86dev/lib/libdrivers.a(lfatfsdrvr.o) (lfat_interrogate_fs)
/home/asergey/runtime-EclipseApplication/x86dev/lib/libdrivers.a(lfat_sup.o)
                              /home/asergey/runtime-EclipseApplication/x86dev/lib/libdrivers.a(lfatfs_mnt.o) (rel_fat_blk)
/home/asergey/runtime-EclipseApplication/x86dev/lib/libdrivers.a(msdosfs_conv.o)
                              /home/asergey/runtime-EclipseApplication/x86dev/lib/libdrivers.a(lfatfs_blk.o) (unix2dostime)
/home/asergey/runtime-EclipseApplication/x86dev/lib/libdrivers.a(msdosfs_denode.o)
                              /home/asergey/runtime-EclipseApplication/x86dev/lib/libdrivers.a(lfatfsdrvr.o) (msdosfs_init)
/home/asergey/runtime-EclipseApplication/x86dev/lib/libdrivers.a(msdosfs_fat.o)
                              /home/asergey/runtime-EclipseApplication/x86dev/lib/libdrivers.a(lfatfs_blk.o) (pcbmap)
/home/asergey/runtime-EclipseApplication/x86dev/lib/libdrivers.a(msdosfs_lookup.o)
                              /home/asergey/runtime-EclipseApplication/x86dev/lib/libdrivers.a(lfatfs_dent.o) (createde)
/home/asergey/runtime-EclipseApplication/x86dev/lib/libdrivers.a(if_ix.o)
                              /home/asergey/runtime-EclipseApplication/x86dev/lib/libdrivers.a(ixgbepfdrvr.o) (ixgbe_if_init)
/home/asergey/runtime-EclipseApplication/x86dev/lib/libdrivers.a(if_sriov.o)
                              /home/asergey/runtime-EclipseApplication/x86dev/lib/libdrivers.a(ixgbepfdrvr.o) (ixgbe_if_iov_init)
/home/asergey/runtime-EclipseApplication/x86dev/lib/libdrivers.a(ixgbe_api.o)
                              /home/asergey/runtime-EclipseApplication/x86dev/lib/libdrivers.a(ixgbepfdrvr.o) (ixgbe_init_shared_code)
/home/asergey/runtime-EclipseApplication/x86dev/lib/libdrivers.a(ixgbe_common.o)
                              /home/asergey/runtime-EclipseApplication/x86dev/lib/libdrivers.a(if_sriov.o) (ixgbe_validate_mac_addr)
/home/asergey/runtime-EclipseApplication/x86dev/lib/libdrivers.a(ixgbepf_mbx.o)
                              /home/asergey/runtime-EclipseApplication/x86dev/lib/libdrivers.a(if_sriov.o) (ixgbe_send_vf_msg)
/home/asergey/runtime-EclipseApplication/x86dev/lib/libdrivers.a(ixgbe_x540.o)
                              /home/asergey/runtime-EclipseApplication/x86dev/lib/libdrivers.a(ixgbe_api.o) (ixgbe_init_ops_X540)
/home/asergey/runtime-EclipseApplication/x86dev/lib/libdrivers.a(ixgbe_x550.o)
                              /home/asergey/runtime-EclipseApplication/x86dev/lib/libdrivers.a(ixgbe_api.o) (ixgbe_init_ops_X550EM_a)
/home/asergey/runtime-EclipseApplication/x86dev/lib/libdrivers.a(ixgbepf_vf_common.o)
                              /home/asergey/runtime-EclipseApplication/x86dev/lib/libdrivers.a(ixgbe_api.o) (ixgbe_init_mbx_params)
/home/asergey/runtime-EclipseApplication/x86dev/lib/libdrivers.a(lcsthreads.o)
                              /home/asergey/runtime-EclipseApplication/x86dev/lib/libdrivers.a(lcsdrvr.o) (lcs_start_thread)
/home/asergey/runtime-EclipseApplication/x86dev/lib/libdrivers.a(kbddrvr.o)
                              /home/asergey/runtime-EclipseApplication/x86dev/lib/libdrivers.a(ukbd.o) (num_ukbd)
/home/asergey/runtime-EclipseApplication/x86dev/lib/libdrivers.a(mousedrvr.o)
                              /home/asergey/runtime-EclipseApplication/x86dev/lib/libdrivers.a(ums.o) (mousemgr_handle)
/home/asergey/runtime-EclipseApplication/x86dev/lib/libdrivers.a(usbdi_util.o)
                              /home/asergey/runtime-EclipseApplication/x86dev/lib/libdrivers.a(usb_subr.o) (usbd_get_desc)
/home/asergey/runtime-EclipseApplication/x86dev/lib/libdrivers.a(usb_mem.o)
                              /home/asergey/runtime-EclipseApplication/x86dev/lib/libdrivers.a(ehci.o) (usb_blk_lock)
/home/asergey/runtime-EclipseApplication/x86dev/lib/libdrivers.a(usb_quirks.o)
                              /home/asergey/runtime-EclipseApplication/x86dev/lib/libdrivers.a(usb_subr.o) (usbd_find_quirk)
/home/asergey/runtime-EclipseApplication/x86dev/lib/libdrivers.a(usbroothub.o)
                              /home/asergey/runtime-EclipseApplication/x86dev/lib/libdrivers.a(xhci.o) (usb_makestrdesc)
/home/asergey/runtime-EclipseApplication/x86dev/lib/libdrivers.a(hid.o)
                              /home/asergey/runtime-EclipseApplication/x86dev/lib/libdrivers.a(uhidev.o) (hid_start_parse)
/home/asergey/runtime-EclipseApplication/x86dev/lib/libdrivers.a(igc_api.o)
                              /home/asergey/runtime-EclipseApplication/x86dev/lib/libdrivers.a(if_igc.o) (igc_set_mac_type)
/home/asergey/runtime-EclipseApplication/x86dev/lib/libdrivers.a(igc_base.o)
                              /home/asergey/runtime-EclipseApplication/x86dev/lib/libdrivers.a(igc_i225.o) (igc_acquire_phy_base)
/home/asergey/runtime-EclipseApplication/x86dev/lib/libdrivers.a(ixgbe_phy.o)
                              /home/asergey/runtime-EclipseApplication/x86dev/lib/libdrivers.a(ixgbe_x540.o) (ixgbe_init_phy_ops_generic)
/home/asergey/runtime-EclipseApplication/x86dev/lib/libdrivers_rsc.a(nulldrvr.o)
                              conf.o (nullwrite)
/home/asergey/runtime-EclipseApplication/x86dev/lib/libdrivers_rsc.a(rddrvr.o)
                              /home/asergey/runtime-EclipseApplication/x86dev/lib/libdrivers.a(mmapdrvr.o) (__get_mem_by_name)
/home/asergey/runtime-EclipseApplication/x86dev/lib/libdrivers_rsc.a(rdinfo.o)
                              conf.o (rdinfo1)
/home/asergey/runtime-EclipseApplication/x86dev/lib/libdrivers_rsc.a(vmosdrvr.o)
                              conf.o (vmos_ioctl)
/home/asergey/runtime-EclipseApplication/x86dev/lib/libdrivers_rsc.a(arinc653drvr.o)
                              conf.o (arinc653_install)
/home/asergey/runtime-EclipseApplication/x86dev/lib/libdrivers_rsc.a(arinc653info.o)
                              conf.o (arinc653_info)
/home/asergey/runtime-EclipseApplication/x86dev/lib/libdrivers_rsc.a(arinc653drvr_inter.o)
                              /home/asergey/runtime-EclipseApplication/x86dev/lib/libdrivers_rsc.a(arinc653drvr.o) (arinc653_module_channels_free)
/home/asergey/runtime-EclipseApplication/x86dev/lib/liblcs.a(lldinit.o)
                              /home/asergey/runtime-EclipseApplication/x86dev/lib/libdrivers.a(lcsdrvr.o) (lld_ifp_by_name)
/home/asergey/runtime-EclipseApplication/x86dev/lib/liblcs.a(llinput.o)
                              /home/asergey/runtime-EclipseApplication/x86dev/lib/libdrivers.a(lcs_emdrvr.o) (LldSchedule)
/home/asergey/runtime-EclipseApplication/x86dev/lib/liblcs.a(lld_pfifo_ts.o)
                              /home/asergey/runtime-EclipseApplication/x86dev/lib/liblcs.a(lldinit.o) (pfifo_shaper)
/home/asergey/runtime-EclipseApplication/x86dev/lib/liblcs.a(arminit.o)
                              /home/asergey/runtime-EclipseApplication/x86dev/lib/liblcs.a(lldinit.o) (ArmInitialize)
/home/asergey/runtime-EclipseApplication/x86dev/lib/liblcs.a(arp.o)
                              /home/asergey/runtime-EclipseApplication/x86dev/lib/liblcs.a(llinput.o) (arp_input)
/home/asergey/runtime-EclipseApplication/x86dev/lib/liblcs.a(udp_init.o)
                              /home/asergey/runtime-EclipseApplication/x86dev/lib/libdrivers.a(lcsdrvr.o) (udp_init)
/home/asergey/runtime-EclipseApplication/x86dev/lib/liblcs.a(icmp6_ini.o)
                              /home/asergey/runtime-EclipseApplication/x86dev/lib/libdrivers.a(lcsdrvr.o) (icmp6_init)
/home/asergey/runtime-EclipseApplication/x86dev/lib/liblcs.a(in6_ifattach.o)
                              /home/asergey/runtime-EclipseApplication/x86dev/lib/liblcs.a(lldinit.o) (in6_ifattach)
/home/asergey/runtime-EclipseApplication/x86dev/lib/liblcs.a(in6_pcb.o)
                              /home/asergey/runtime-EclipseApplication/x86dev/lib/liblcs.a(icmp6_ini.o) (in6_pcballoc)
/home/asergey/runtime-EclipseApplication/x86dev/lib/liblcs.a(in6_route.o)
                              /home/asergey/runtime-EclipseApplication/x86dev/lib/liblcs.a(in6_ifattach.o) (calc_netmask)
/home/asergey/runtime-EclipseApplication/x86dev/lib/liblcs.a(ip6_ctlo.o)
                              /home/asergey/runtime-EclipseApplication/x86dev/lib/liblcs.a(in6_pcb.o) (ip6_ctloutput)
/home/asergey/runtime-EclipseApplication/x86dev/lib/liblcs.a(ip6_init.o)
                              /home/asergey/runtime-EclipseApplication/x86dev/lib/libdrivers.a(lcsdrvr.o) (ip_common_init)
/home/asergey/runtime-EclipseApplication/x86dev/lib/liblcs.a(ip6_input.o)
                              /home/asergey/runtime-EclipseApplication/x86dev/lib/liblcs.a(llinput.o) (ip6_input)
/home/asergey/runtime-EclipseApplication/x86dev/lib/liblcs.a(ip6_reassem.o)
                              /home/asergey/runtime-EclipseApplication/x86dev/lib/liblcs.a(ip6_input.o) (ip6_reassemb)
/home/asergey/runtime-EclipseApplication/x86dev/lib/liblcs.a(ip_input.o)
                              /home/asergey/runtime-EclipseApplication/x86dev/lib/liblcs.a(llinput.o) (ip_input)
/home/asergey/runtime-EclipseApplication/x86dev/lib/liblcs.a(in_util.o)
                              /home/asergey/runtime-EclipseApplication/x86dev/lib/liblcs.a(ip_input.o) (in_broadcast)
/home/asergey/runtime-EclipseApplication/x86dev/lib/liblcs.a(ip_reassem.o)
                              /home/asergey/runtime-EclipseApplication/x86dev/lib/liblcs.a(ip_input.o) (ip_reassemb)
/home/asergey/runtime-EclipseApplication/x86dev/lib/liblcs.a(ip_init.o)
                              /home/asergey/runtime-EclipseApplication/x86dev/lib/libdrivers.a(lcsdrvr.o) (ip4_init)
/home/asergey/runtime-EclipseApplication/x86dev/lib/liblcs.a(icmp_in.o)
                              /home/asergey/runtime-EclipseApplication/x86dev/lib/liblcs.a(ip_input.o) (icmp_input)
/home/asergey/runtime-EclipseApplication/x86dev/lib/liblcs.a(icmp_ini.o)
                              /home/asergey/runtime-EclipseApplication/x86dev/lib/libdrivers.a(lcsdrvr.o) (icmp_init)
/home/asergey/runtime-EclipseApplication/x86dev/lib/liblcs.a(tcp_inpt.o)
                              /home/asergey/runtime-EclipseApplication/x86dev/lib/liblcs.a(ip_input.o) (tcp_input)
/home/asergey/runtime-EclipseApplication/x86dev/lib/liblcs.a(tcp_out.o)
                              /home/asergey/runtime-EclipseApplication/x86dev/lib/liblcs.a(tcp_inpt.o) (tcp_output)
/home/asergey/runtime-EclipseApplication/x86dev/lib/liblcs.a(tcp_time.o)
                              /home/asergey/runtime-EclipseApplication/x86dev/lib/liblcs.a(tcp_inpt.o) (tcp_setup_timers)
/home/asergey/runtime-EclipseApplication/x86dev/lib/liblcs.a(tcp_init.o)
                              /home/asergey/runtime-EclipseApplication/x86dev/lib/libdrivers.a(lcsdrvr.o) (tcp_init)
/home/asergey/runtime-EclipseApplication/x86dev/lib/liblcs.a(tcp_pcb.o)
                              /home/asergey/runtime-EclipseApplication/x86dev/lib/liblcs.a(tcp_inpt.o) (GetTCPCBbySocket)
/home/asergey/runtime-EclipseApplication/x86dev/lib/liblcs.a(tcp_util.o)
                              /home/asergey/runtime-EclipseApplication/x86dev/lib/liblcs.a(tcp_inpt.o) (tcp_template)
/home/asergey/runtime-EclipseApplication/x86dev/lib/liblcs.a(igmp.o)
                              /home/asergey/runtime-EclipseApplication/x86dev/lib/libdrivers.a(lcsdrvr.o) (igmp_init)
/home/asergey/runtime-EclipseApplication/x86dev/lib/liblcs.a(lcs_nux.o)
                              /home/asergey/runtime-EclipseApplication/x86dev/lib/libdrivers.a(lcsdrvr.o) (lcsnux_sockops)
/home/asergey/runtime-EclipseApplication/x86dev/lib/liblcs.a(ioctl.o)
                              /home/asergey/runtime-EclipseApplication/x86dev/lib/liblcs.a(lcs_nux.o) (lcssock_ioctl)
/home/asergey/runtime-EclipseApplication/x86dev/lib/liblcs.a(select.o)
                              /home/asergey/runtime-EclipseApplication/x86dev/lib/liblcs.a(tcp_inpt.o) (soselect)
/home/asergey/runtime-EclipseApplication/x86dev/lib/liblcs.a(sock.o)
                              /home/asergey/runtime-EclipseApplication/x86dev/lib/liblcs.a(lcs_nux.o) (sock_free)
/home/asergey/runtime-EclipseApplication/x86dev/lib/liblcs.a(sock_raw.o)
                              /home/asergey/runtime-EclipseApplication/x86dev/lib/liblcs.a(llinput.o) (add_to_raw_sockets)
/home/asergey/runtime-EclipseApplication/x86dev/lib/liblcs.a(sock_udp.o)
                              /home/asergey/runtime-EclipseApplication/x86dev/lib/liblcs.a(sock.o) (udp_ops)
/home/asergey/runtime-EclipseApplication/x86dev/lib/liblcs.a(sock_tcp.o)
                              /home/asergey/runtime-EclipseApplication/x86dev/lib/liblcs.a(tcp_inpt.o) (soerror)
/home/asergey/runtime-EclipseApplication/x86dev/lib/liblcs.a(tmrchk.o)
                              /home/asergey/runtime-EclipseApplication/x86dev/lib/libdrivers.a(lcsthreads.o) (lcsTimersCheck)
/home/asergey/runtime-EclipseApplication/x86dev/lib/liblcs.a(tmrinit.o)
                              /home/asergey/runtime-EclipseApplication/x86dev/lib/libdrivers.a(lcsdrvr.o) (TimersInit)
/home/asergey/runtime-EclipseApplication/x86dev/lib/liblcs.a(tmrscall.o)
                              /home/asergey/runtime-EclipseApplication/x86dev/lib/liblcs.a(arp.o) (lcsTimerCall)
/home/asergey/runtime-EclipseApplication/x86dev/lib/liblcs.a(tmrset.o)
                              /home/asergey/runtime-EclipseApplication/x86dev/lib/liblcs.a(tmrscall.o) (TmrGetFreeHandle)
/home/asergey/runtime-EclipseApplication/x86dev/lib/liblcs.a(tmrsrec.o)
                              /home/asergey/runtime-EclipseApplication/x86dev/lib/liblcs.a(tcp_time.o) (lcsTimerRecCall)
/home/asergey/runtime-EclipseApplication/x86dev/lib/liblcs.a(tmrstop.o)
                              /home/asergey/runtime-EclipseApplication/x86dev/lib/liblcs.a(arp.o) (lcsTimerStop)
/home/asergey/runtime-EclipseApplication/x86dev/lib/liblcs.a(iorbcopy.o)
                              /home/asergey/runtime-EclipseApplication/x86dev/lib/liblcs.a(tcp_inpt.o) (IorbChainTruncate)
/home/asergey/runtime-EclipseApplication/x86dev/lib/liblcs.a(iorbfree.o)
                              /home/asergey/runtime-EclipseApplication/x86dev/lib/liblcs.a(llinput.o) (IorbFree)
/home/asergey/runtime-EclipseApplication/x86dev/lib/liblcs.a(bm_init.o)
                              /home/asergey/runtime-EclipseApplication/x86dev/lib/liblcs.a(sock.o) (ReleaseBufferPool)
/home/asergey/runtime-EclipseApplication/x86dev/lib/liblcs.a(iorbdup.o)
                              /home/asergey/runtime-EclipseApplication/x86dev/lib/liblcs.a(sock_raw.o) (IorbDup)
/home/asergey/runtime-EclipseApplication/x86dev/lib/liblcs.a(iorbget.o)
                              /home/asergey/runtime-EclipseApplication/x86dev/lib/liblcs.a(lldinit.o) (IorbGet)
/home/asergey/runtime-EclipseApplication/x86dev/lib/liblcs.a(iorbunlk.o)
                              /home/asergey/runtime-EclipseApplication/x86dev/lib/liblcs.a(iorbfree.o) (IorbUnlinkAndFree)
/home/asergey/runtime-EclipseApplication/x86dev/lib/liblcs.a(iorbcs.o)
                              /home/asergey/runtime-EclipseApplication/x86dev/lib/liblcs.a(icmp_in.o) (IorbChecksum)
/home/asergey/runtime-EclipseApplication/x86dev/lib/liblcs.a(qsort.o)
                              /home/asergey/runtime-EclipseApplication/x86dev/lib/liblcs.a(arp.o) (kqsort)
/home/asergey/runtime-EclipseApplication/x86dev/lib/liblcs.a(cksum.o)
                              /home/asergey/runtime-EclipseApplication/x86dev/lib/liblcs.a(tcp_inpt.o) (in_cksum_partial)
/home/asergey/runtime-EclipseApplication/x86dev/lib/liblcs.a(clntport.o)
                              /home/asergey/runtime-EclipseApplication/x86dev/lib/libdrivers.a(lcsdrvr.o) (ClientPortNumber_Initialize)
/home/asergey/runtime-EclipseApplication/x86dev/lib/liblcs.a(hm.o)
                              /home/asergey/runtime-EclipseApplication/x86dev/lib/liblcs.a(arp.o) (NodeSystemFault)
/home/asergey/runtime-EclipseApplication/x86dev/lib/liblcs.a(lcsprio.o)
                              /home/asergey/runtime-EclipseApplication/x86dev/lib/liblcs.a(sock.o) (add_socket_prio)
/home/asergey/runtime-EclipseApplication/x86dev/lib/liblcs.a(uio_move.o)
                              /home/asergey/runtime-EclipseApplication/x86dev/lib/liblcs.a(sock_raw.o) (uio_reset)
/home/asergey/runtime-EclipseApplication/x86dev/lib/liblcs.a(psbdrop.o)
                              /home/asergey/runtime-EclipseApplication/x86dev/lib/liblcs.a(tcp_inpt.o) (BufferDrop)
/home/asergey/runtime-EclipseApplication/x86dev/lib/liblcs.a(psbget.o)
                              /home/asergey/runtime-EclipseApplication/x86dev/lib/liblcs.a(tcp_inpt.o) (BufferGet)
/home/asergey/runtime-EclipseApplication/x86dev/lib/liblcs.a(psbscap.o)
                              /home/asergey/runtime-EclipseApplication/x86dev/lib/liblcs.a(tcp_inpt.o) (BufferSetCapacity)
/home/asergey/runtime-EclipseApplication/x86dev/lib/liblcs.a(psbadd.o)
                              /home/asergey/runtime-EclipseApplication/x86dev/lib/liblcs.a(tcp_out.o) (CopyToBuffer)
/home/asergey/runtime-EclipseApplication/x86dev/lib/liblcs.a(psbspace.o)
                              /home/asergey/runtime-EclipseApplication/x86dev/lib/liblcs.a(tcp_inpt.o) (BufferSpace)
/home/asergey/runtime-EclipseApplication/x86dev/lib/liblcs.a(psbcount.o)
                              /home/asergey/runtime-EclipseApplication/x86dev/lib/liblcs.a(tcp_inpt.o) (BufferCount)
/home/asergey/runtime-EclipseApplication/x86dev/lib/liblcs.a(psbgcap.o)
                              /home/asergey/runtime-EclipseApplication/x86dev/lib/liblcs.a(tcp_out.o) (BufferGetCapacity)
/home/asergey/runtime-EclipseApplication/x86dev/lib/liblcs.a(psbpeek.o)
                              /home/asergey/runtime-EclipseApplication/x86dev/lib/liblcs.a(tcp_out.o) (BufferPeek)
/home/asergey/runtime-EclipseApplication/x86dev/lib/liblcs.a(llmcast.o)
                              /home/asergey/runtime-EclipseApplication/x86dev/lib/liblcs.a(ip6_ctlo.o) (LinkLayerGroupOp)
/home/asergey/runtime-EclipseApplication/x86dev/lib/liblcs.a(lloutput.o)
                              /home/asergey/runtime-EclipseApplication/x86dev/lib/liblcs.a(arp.o) (LinkLayerOutput)
/home/asergey/runtime-EclipseApplication/x86dev/lib/liblcs.a(arpreq.o)
                              /home/asergey/runtime-EclipseApplication/x86dev/lib/liblcs.a(ioctl.o) (arp_request)
/home/asergey/runtime-EclipseApplication/x86dev/lib/liblcs.a(arpsrch.o)
                              /home/asergey/runtime-EclipseApplication/x86dev/lib/liblcs.a(lloutput.o) (ArpSearch)
/home/asergey/runtime-EclipseApplication/x86dev/lib/liblcs.a(udp_atch.o)
                              /home/asergey/runtime-EclipseApplication/x86dev/lib/liblcs.a(sock_raw.o) (udp_attach)
/home/asergey/runtime-EclipseApplication/x86dev/lib/liblcs.a(udp_bind.o)
                              /home/asergey/runtime-EclipseApplication/x86dev/lib/liblcs.a(sock_udp.o) (udp_bind)
/home/asergey/runtime-EclipseApplication/x86dev/lib/liblcs.a(udp_conn.o)
                              /home/asergey/runtime-EclipseApplication/x86dev/lib/liblcs.a(sock_udp.o) (udp_connect)
/home/asergey/runtime-EclipseApplication/x86dev/lib/liblcs.a(udp_dtch.o)
                              /home/asergey/runtime-EclipseApplication/x86dev/lib/liblcs.a(sock_raw.o) (udp_detach)
/home/asergey/runtime-EclipseApplication/x86dev/lib/liblcs.a(udp_inpt.o)
                              /home/asergey/runtime-EclipseApplication/x86dev/lib/liblcs.a(sock_raw.o) (__data_sorecv)
/home/asergey/runtime-EclipseApplication/x86dev/lib/liblcs.a(udp_pcb.o)
                              /home/asergey/runtime-EclipseApplication/x86dev/lib/liblcs.a(sock_raw.o) (GetPCBbySocket)
/home/asergey/runtime-EclipseApplication/x86dev/lib/liblcs.a(udp_peer.o)
                              /home/asergey/runtime-EclipseApplication/x86dev/lib/liblcs.a(sock_udp.o) (udp_peeraddr)
/home/asergey/runtime-EclipseApplication/x86dev/lib/liblcs.a(udp_sock.o)
                              /home/asergey/runtime-EclipseApplication/x86dev/lib/liblcs.a(sock_udp.o) (udp_sockaddr)
/home/asergey/runtime-EclipseApplication/x86dev/lib/liblcs.a(udp6_input.o)
                              /home/asergey/runtime-EclipseApplication/x86dev/lib/liblcs.a(ip6_input.o) (udp6_input)
/home/asergey/runtime-EclipseApplication/x86dev/lib/liblcs.a(udp6_out.o)
                              /home/asergey/runtime-EclipseApplication/x86dev/lib/liblcs.a(sock_udp.o) (udp6_output)
/home/asergey/runtime-EclipseApplication/x86dev/lib/liblcs.a(udp_disc.o)
                              /home/asergey/runtime-EclipseApplication/x86dev/lib/liblcs.a(sock_udp.o) (udp_disconnect)
/home/asergey/runtime-EclipseApplication/x86dev/lib/liblcs.a(udp_out.o)
                              /home/asergey/runtime-EclipseApplication/x86dev/lib/liblcs.a(sock_udp.o) (udp_output)
/home/asergey/runtime-EclipseApplication/x86dev/lib/liblcs.a(udp_util.o)
                              /home/asergey/runtime-EclipseApplication/x86dev/lib/liblcs.a(sock_udp.o) (udp_ctloutput)
/home/asergey/runtime-EclipseApplication/x86dev/lib/liblcs.a(icmp6_in.o)
                              /home/asergey/runtime-EclipseApplication/x86dev/lib/liblcs.a(ip6_input.o) (icmp6_input)
/home/asergey/runtime-EclipseApplication/x86dev/lib/liblcs.a(icmp6_error.o)
                              /home/asergey/runtime-EclipseApplication/x86dev/lib/liblcs.a(ip6_input.o) (icmp6_error)
/home/asergey/runtime-EclipseApplication/x86dev/lib/liblcs.a(in6_pbind.o)
                              /home/asergey/runtime-EclipseApplication/x86dev/lib/liblcs.a(udp_bind.o) (in6_pcbbind)
/home/asergey/runtime-EclipseApplication/x86dev/lib/liblcs.a(in6_pcon.o)
                              /home/asergey/runtime-EclipseApplication/x86dev/lib/liblcs.a(udp_conn.o) (in6_pcbconnect)
/home/asergey/runtime-EclipseApplication/x86dev/lib/liblcs.a(in6_plook.o)
                              /home/asergey/runtime-EclipseApplication/x86dev/lib/liblcs.a(tcp_inpt.o) (in6_locate_pcb)
/home/asergey/runtime-EclipseApplication/x86dev/lib/liblcs.a(in6_util.o)
                              /home/asergey/runtime-EclipseApplication/x86dev/lib/liblcs.a(udp_peer.o) (in6_setpeeraddr)
/home/asergey/runtime-EclipseApplication/x86dev/lib/liblcs.a(ip6_outpt.o)
                              /home/asergey/runtime-EclipseApplication/x86dev/lib/liblcs.a(sock_raw.o) (ip6_output)
/home/asergey/runtime-EclipseApplication/x86dev/lib/liblcs.a(in_pcon.o)
                              /home/asergey/runtime-EclipseApplication/x86dev/lib/liblcs.a(tcp_inpt.o) (in_pcbconnect)
/home/asergey/runtime-EclipseApplication/x86dev/lib/liblcs.a(in_route.o)
                              /home/asergey/runtime-EclipseApplication/x86dev/lib/liblcs.a(ip_init.o) (add_rt_entry)
/home/asergey/runtime-EclipseApplication/x86dev/lib/liblcs.a(ip_ctlo.o)
                              /home/asergey/runtime-EclipseApplication/x86dev/lib/liblcs.a(tcp_util.o) (ip_ctloutput)
/home/asergey/runtime-EclipseApplication/x86dev/lib/liblcs.a(ip_outpt.o)
                              /home/asergey/runtime-EclipseApplication/x86dev/lib/liblcs.a(icmp_in.o) (ip_output)
/home/asergey/runtime-EclipseApplication/x86dev/lib/liblcs.a(tcp_atch.o)
                              /home/asergey/runtime-EclipseApplication/x86dev/lib/liblcs.a(sock_tcp.o) (tcp_usr_attach)
/home/asergey/runtime-EclipseApplication/x86dev/lib/liblcs.a(tcp_clse.o)
                              /home/asergey/runtime-EclipseApplication/x86dev/lib/liblcs.a(tcp_inpt.o) (tcp_close)
/home/asergey/runtime-EclipseApplication/x86dev/lib/liblcs.a(tcp_disc.o)
                              /home/asergey/runtime-EclipseApplication/x86dev/lib/liblcs.a(tcp_out.o) (tcp_usr_disconnect)
/home/asergey/runtime-EclipseApplication/x86dev/lib/liblcs.a(tcp_bind.o)
                              /home/asergey/runtime-EclipseApplication/x86dev/lib/liblcs.a(sock_tcp.o) (tcp_usr_bind)
/home/asergey/runtime-EclipseApplication/x86dev/lib/liblcs.a(tcp_conn.o)
                              /home/asergey/runtime-EclipseApplication/x86dev/lib/liblcs.a(sock_tcp.o) (tcp_usr_connect)
/home/asergey/runtime-EclipseApplication/x86dev/lib/liblcs.a(tcp_lstn.o)
                              /home/asergey/runtime-EclipseApplication/x86dev/lib/liblcs.a(sock_tcp.o) (tcp_usr_listen)
/home/asergey/runtime-EclipseApplication/x86dev/lib/libnfs_client.a(nfs_file_open.o)
                              conf.o (nfs_read)
/home/asergey/runtime-EclipseApplication/x86dev/lib/libnfs_client.a(nfsinfo.o)
                              conf.o (unfs_info)
/home/asergey/runtime-EclipseApplication/x86dev/lib/libnfs_client.a(nfs_inode.o)
                              /home/asergey/runtime-EclipseApplication/x86dev/lib/libnfs_client.a(nfs_file_open.o) (getcnfsnode)
/home/asergey/runtime-EclipseApplication/x86dev/lib/libnfs_client.a(unfs_driver.o)
                              conf.o (unfs_install)
/home/asergey/runtime-EclipseApplication/x86dev/lib/libnfs_client.a(nfs_mount.o)
                              /home/asergey/runtime-EclipseApplication/x86dev/lib/libnfs_client.a(unfs_driver.o) (nfs_cache_configured)
/home/asergey/runtime-EclipseApplication/x86dev/lib/libptrace_x86_64.a(ptrace_ctx.o)
                              /home/asergey/runtime-EclipseApplication/x86dev/lib/libdrivers.a(remote.o) (set_usr_econtext)
/home/asergey/runtime-EclipseApplication/x86dev/lib/libptrace_x86_64.a(ptrace_dbg_ctx.o)
                              /home/asergey/runtime-EclipseApplication/x86dev/lib/libdrivers.a(kdb_x86_64.o) (save_debugregs)
/home/asergey/runtime-EclipseApplication/x86dev/lib/libptrace.a(ptrace.o)
                              /home/asergey/runtime-EclipseApplication/x86dev/lib/libdrivers.a(ptracedrvr.o) (ptrace_attach)
/home/asergey/runtime-EclipseApplication/x86dev/lib/libptrace.a(ptrace_child.o)
                              /home/asergey/runtime-EclipseApplication/x86dev/lib/libptrace.a(ptrace.o) (ptrace_childread)
/home/asergey/runtime-EclipseApplication/x86dev/lib/libptrace.a(ptrace_fctx.o)
                              /home/asergey/runtime-EclipseApplication/x86dev/lib/libdrivers.a(kdbdrvr.o) (fp_save)
/home/asergey/runtime-EclipseApplication/x86dev/lib/libptrace.a(ptrace_kill.o)
                              /home/asergey/runtime-EclipseApplication/x86dev/lib/libptrace.a(ptrace.o) (continue_threads)
/home/asergey/runtime-EclipseApplication/x86dev/lib/libptrace.a(ptrace_tde.o)
                              /home/asergey/runtime-EclipseApplication/x86dev/lib/libptrace.a(ptrace.o) (excl_tde)
/home/asergey/runtime-EclipseApplication/x86dev/lib/libdrm.a(drm.o)
                              bsp.x86_64.o (drm_init)
/home/asergey/runtime-EclipseApplication/x86dev/lib/libdrm.a(pcibus.o)
                              /home/asergey/runtime-EclipseApplication/x86dev/lib/libdrivers.a(ixgbepfdrvr.o) (pciwrite_device)
/home/asergey/runtime-EclipseApplication/x86dev/lib/libdrm.a(sysbus.o)
                              bsp.x86_64.o (sysbus_handle)
/home/asergey/runtime-EclipseApplication/x86dev/lib/libdrm.a(drm_sysctl.o)
                              bsp.x86_64.o (sysctl_drm_install)
/home/asergey/runtime-EclipseApplication/x86dev/lib/libdrm.a(pci_sysctl.o)
                              bsp.x86_64.o (sysctl_drm_pci_install)
/home/asergey/runtime-EclipseApplication/x86dev/lib/libdrm.a(bios_pcialloc.o)
                              /home/asergey/runtime-EclipseApplication/x86dev/lib/libdrm.a(pcibus.o) (pcibus_alloc_handle)
/home/asergey/runtime-EclipseApplication/x86dev/lib/libkernel.a(bread.o)
                              (--whole-archive)
/home/asergey/runtime-EclipseApplication/x86dev/lib/libkernel.a(chread.o)
                              (--whole-archive)
/home/asergey/runtime-EclipseApplication/x86dev/lib/libkernel.a(ddread.o)
                              (--whole-archive)
/home/asergey/runtime-EclipseApplication/x86dev/lib/libkernel.a(deliver.o)
                              (--whole-archive)
/home/asergey/runtime-EclipseApplication/x86dev/lib/libkernel.a(dfread.o)
                              (--whole-archive)
/home/asergey/runtime-EclipseApplication/x86dev/lib/libkernel.a(environ.o)
                              (--whole-archive)
/home/asergey/runtime-EclipseApplication/x86dev/lib/libkernel.a(exception.o)
                              (--whole-archive)
/home/asergey/runtime-EclipseApplication/x86dev/lib/libkernel.a(exit.o)
                              (--whole-archive)
/home/asergey/runtime-EclipseApplication/x86dev/lib/libkernel.a(fast_ada.o)
                              (--whole-archive)
/home/asergey/runtime-EclipseApplication/x86dev/lib/libkernel.a(file_open.o)
                              (--whole-archive)
/home/asergey/runtime-EclipseApplication/x86dev/lib/libkernel.a(fpcontext.o)
                              (--whole-archive)
/home/asergey/runtime-EclipseApplication/x86dev/lib/libkernel.a(get_freefile.o)
                              (--whole-archive)
/home/asergey/runtime-EclipseApplication/x86dev/lib/libkernel.a(getmem.o)
                              (--whole-archive)
/home/asergey/runtime-EclipseApplication/x86dev/lib/libkernel.a(getrusage.o)
                              (--whole-archive)
/home/asergey/runtime-EclipseApplication/x86dev/lib/libkernel.a(hm_except.o)
                              (--whole-archive)
/home/asergey/runtime-EclipseApplication/x86dev/lib/libkernel.a(hwmarks.o)
                              (--whole-archive)
/home/asergey/runtime-EclipseApplication/x86dev/lib/libkernel.a(initdrivers.o)
                              (--whole-archive)
/home/asergey/runtime-EclipseApplication/x86dev/lib/libkernel.a(inode.o)
                              (--whole-archive)
/home/asergey/runtime-EclipseApplication/x86dev/lib/libkernel.a(ioint.o)
                              (--whole-archive)
/home/asergey/runtime-EclipseApplication/x86dev/lib/libkernel.a(kern_syms.o)
                              (--whole-archive)
/home/asergey/runtime-EclipseApplication/x86dev/lib/libkernel.a(kprintf.o)
                              (--whole-archive)
/home/asergey/runtime-EclipseApplication/x86dev/lib/libkernel.a(globswap.o)
                              (--whole-archive)
/home/asergey/runtime-EclipseApplication/x86dev/lib/libkernel.a(lockf.o)
                              (--whole-archive)
/home/asergey/runtime-EclipseApplication/x86dev/lib/libkernel.a(lynxfs.o)
                              (--whole-archive)
/home/asergey/runtime-EclipseApplication/x86dev/lib/libkernel.a(main.o)
                              (--whole-archive)
/home/asergey/runtime-EclipseApplication/x86dev/lib/libkernel.a(map_kernel_am.o)
                              (--whole-archive)
/home/asergey/runtime-EclipseApplication/x86dev/lib/libkernel.a(mem_map.o)
                              (--whole-archive)
/home/asergey/runtime-EclipseApplication/x86dev/lib/libkernel.a(name_server.o)
                              (--whole-archive)
/home/asergey/runtime-EclipseApplication/x86dev/lib/libkernel.a(nux.o)
                              (--whole-archive)
/home/asergey/runtime-EclipseApplication/x86dev/lib/libkernel.a(osm.o)
                              (--whole-archive)
/home/asergey/runtime-EclipseApplication/x86dev/lib/libkernel.a(pagefault.o)
                              (--whole-archive)
/home/asergey/runtime-EclipseApplication/x86dev/lib/libkernel.a(panic.o)
                              (--whole-archive)
/home/asergey/runtime-EclipseApplication/x86dev/lib/libkernel.a(perm.o)
                              (--whole-archive)
/home/asergey/runtime-EclipseApplication/x86dev/lib/libkernel.a(pipe.o)
                              (--whole-archive)
/home/asergey/runtime-EclipseApplication/x86dev/lib/libkernel.a(priot.o)
                              (--whole-archive)
/home/asergey/runtime-EclipseApplication/x86dev/lib/libkernel.a(procinit.o)
                              (--whole-archive)
/home/asergey/runtime-EclipseApplication/x86dev/lib/libkernel.a(reco.o)
                              (--whole-archive)
/home/asergey/runtime-EclipseApplication/x86dev/lib/libkernel.a(resched.o)
                              (--whole-archive)
/home/asergey/runtime-EclipseApplication/x86dev/lib/libkernel.a(rtimeset.o)
                              (--whole-archive)
/home/asergey/runtime-EclipseApplication/x86dev/lib/libkernel.a(sbrk.o)
                              (--whole-archive)
/home/asergey/runtime-EclipseApplication/x86dev/lib/libkernel.a(setpriority.o)
                              (--whole-archive)
/home/asergey/runtime-EclipseApplication/x86dev/lib/libkernel.a(setscheduler.o)
                              (--whole-archive)
/home/asergey/runtime-EclipseApplication/x86dev/lib/libkernel.a(stack.o)
                              (--whole-archive)
/home/asergey/runtime-EclipseApplication/x86dev/lib/libkernel.a(stask.o)
                              (--whole-archive)
/home/asergey/runtime-EclipseApplication/x86dev/lib/libkernel.a(stopcpu.o)
                              (--whole-archive)
/home/asergey/runtime-EclipseApplication/x86dev/lib/libkernel.a(swait.o)
                              (--whole-archive)
/home/asergey/runtime-EclipseApplication/x86dev/lib/libkernel.a(sysbrk.o)
                              (--whole-archive)
/home/asergey/runtime-EclipseApplication/x86dev/lib/libkernel.a(tde.o)
                              (--whole-archive)
/home/asergey/runtime-EclipseApplication/x86dev/lib/libkernel.a(threads.o)
                              (--whole-archive)
/home/asergey/runtime-EclipseApplication/x86dev/lib/libkernel.a(time.o)
                              (--whole-archive)
/home/asergey/runtime-EclipseApplication/x86dev/lib/libkernel.a(timeout.o)
                              (--whole-archive)
/home/asergey/runtime-EclipseApplication/x86dev/lib/libkernel.a(usleep.o)
                              (--whole-archive)
/home/asergey/runtime-EclipseApplication/x86dev/lib/libkernel.a(utils.o)
                              (--whole-archive)
/home/asergey/runtime-EclipseApplication/x86dev/lib/libkernel.a(vfs.o)
                              (--whole-archive)
/home/asergey/runtime-EclipseApplication/x86dev/lib/libkernel.a(vmos_rinsert.o)
                              (--whole-archive)
/home/asergey/runtime-EclipseApplication/x86dev/lib/libkernel.a(vmosschedu.o)
                              (--whole-archive)
/home/asergey/runtime-EclipseApplication/x86dev/lib/libkernel.a(execve.o)
                              (--whole-archive)
/home/asergey/runtime-EclipseApplication/x86dev/lib/libkernel.a(fast_sem_open.o)
                              (--whole-archive)
/home/asergey/runtime-EclipseApplication/x86dev/lib/libkernel.a(fork.o)
                              (--whole-archive)
/home/asergey/runtime-EclipseApplication/x86dev/lib/libkernel.a(install.o)
                              (--whole-archive)
/home/asergey/runtime-EclipseApplication/x86dev/lib/libkernel.a(install_elf.o)
                              (--whole-archive)
/home/asergey/runtime-EclipseApplication/x86dev/lib/libkernel.a(init_global_resources.o)
                              (--whole-archive)
/home/asergey/runtime-EclipseApplication/x86dev/lib/libkernel.a(load.o)
                              (--whole-archive)
/home/asergey/runtime-EclipseApplication/x86dev/lib/libkernel.a(load_elf.o)
                              (--whole-archive)
/home/asergey/runtime-EclipseApplication/x86dev/lib/libkernel.a(load_elf64.o)
                              (--whole-archive)
/home/asergey/runtime-EclipseApplication/x86dev/lib/libkernel.a(mempartition.o)
                              (--whole-archive)
/home/asergey/runtime-EclipseApplication/x86dev/lib/libkernel.a(mmap.o)
                              (--whole-archive)
/home/asergey/runtime-EclipseApplication/x86dev/lib/libkernel.a(pshmem.o)
                              (--whole-archive)
/home/asergey/runtime-EclipseApplication/x86dev/lib/libkernel.a(sm.o)
                              (--whole-archive)
/home/asergey/runtime-EclipseApplication/x86dev/lib/libkernel.a(sc_router.o)
                              (--whole-archive)
/home/asergey/runtime-EclipseApplication/x86dev/lib/libkernel.a(syscall_table.o)
                              (--whole-archive)
/home/asergey/runtime-EclipseApplication/x86dev/lib/libkernel.a(wait.o)
                              (--whole-archive)
/home/asergey/runtime-EclipseApplication/x86dev/lib/libkernel.a(cfread.o)
                              (--whole-archive)
/home/asergey/runtime-EclipseApplication/x86dev/lib/libkernel.a(cprintf.o)
                              (--whole-archive)
/home/asergey/runtime-EclipseApplication/x86dev/lib/libkernel.a(hwt_bench.o)
                              (--whole-archive)
/home/asergey/runtime-EclipseApplication/x86dev/lib/libkernel.a(kern_mib.o)
                              (--whole-archive)
/home/asergey/runtime-EclipseApplication/x86dev/lib/libkernel.a(kern_sysctl.o)
                              (--whole-archive)
/home/asergey/runtime-EclipseApplication/x86dev/lib/libkernel.a(loadavg.o)
                              (--whole-archive)
/home/asergey/runtime-EclipseApplication/x86dev/lib/libkernel.a(sysctl_init.o)
                              (--whole-archive)
/home/asergey/runtime-EclipseApplication/x86dev/lib/libkernel.a(sysinfo.o)
                              (--whole-archive)
/home/asergey/runtime-EclipseApplication/x86dev/lib/libkernel.a(ttymgr.o)
                              (--whole-archive)
/home/asergey/runtime-EclipseApplication/x86dev/lib/libkernel.a(uninstall.o)
                              (--whole-archive)
/home/asergey/runtime-EclipseApplication/x86dev/lib/libkernel.a(utimes.o)
                              (--whole-archive)
/home/asergey/runtime-EclipseApplication/x86dev/lib/libkernel.a(globmem.o)
                              (--whole-archive)
/home/asergey/runtime-EclipseApplication/x86dev/lib/libkernel.a(clock_impl.o)
                              (--whole-archive)
/home/asergey/runtime-EclipseApplication/x86dev/lib/libkernel.a(clock_getcpuclockid.o)
                              (--whole-archive)
/home/asergey/runtime-EclipseApplication/x86dev/lib/libkernel.a(clock_getres.o)
                              (--whole-archive)
/home/asergey/runtime-EclipseApplication/x86dev/lib/libkernel.a(clock_gettime.o)
                              (--whole-archive)
/home/asergey/runtime-EclipseApplication/x86dev/lib/libkernel.a(clock_nanosleep.o)
                              (--whole-archive)
/home/asergey/runtime-EclipseApplication/x86dev/lib/libkernel.a(clock_settime.o)
                              (--whole-archive)
/home/asergey/runtime-EclipseApplication/x86dev/lib/libkernel.a(timer_impl.o)
                              (--whole-archive)
/home/asergey/runtime-EclipseApplication/x86dev/lib/libkernel.a(gettime_op.o)
                              (--whole-archive)
/home/asergey/runtime-EclipseApplication/x86dev/lib/libkernel.a(getitimer.o)
                              (--whole-archive)
/home/asergey/runtime-EclipseApplication/x86dev/lib/libkernel.a(timer_create.o)
                              (--whole-archive)
/home/asergey/runtime-EclipseApplication/x86dev/lib/libkernel.a(timer_delete.o)
                              (--whole-archive)
/home/asergey/runtime-EclipseApplication/x86dev/lib/libkernel.a(timer_getoverrun.o)
                              (--whole-archive)
/home/asergey/runtime-EclipseApplication/x86dev/lib/libkernel.a(timer_gettime.o)
                              (--whole-archive)
/home/asergey/runtime-EclipseApplication/x86dev/lib/libkernel.a(timer_settime.o)
                              (--whole-archive)
/home/asergey/runtime-EclipseApplication/x86dev/lib/libkernel.a(clock_adjtimex.o)
                              (--whole-archive)
/home/asergey/runtime-EclipseApplication/x86dev/lib/libkernel.a(reboot_impl.o)
                              (--whole-archive)
/home/asergey/runtime-EclipseApplication/x86dev/lib/libkernel.a(get_resource_entry.o)
                              (--whole-archive)
/home/asergey/runtime-EclipseApplication/x86dev/lib/libkernel.a(ptrace.o)
                              (--whole-archive)
/home/asergey/runtime-EclipseApplication/x86dev/lib/libkernel.a(reboot.o)
                              (--whole-archive)
/home/asergey/runtime-EclipseApplication/x86dev/lib/libkernel.a(ulimit.o)
                              (--whole-archive)
/home/asergey/runtime-EclipseApplication/x86dev/lib/libkernel.a(uname.o)
                              (--whole-archive)
/home/asergey/runtime-EclipseApplication/x86dev/lib/libkernel.a(mount_impl.o)
                              (--whole-archive)
/home/asergey/runtime-EclipseApplication/x86dev/lib/libkernel.a(getdents.o)
                              (--whole-archive)
/home/asergey/runtime-EclipseApplication/x86dev/lib/libkernel.a(mount.o)
                              (--whole-archive)
/home/asergey/runtime-EclipseApplication/x86dev/lib/libkernel.a(umount.o)
                              (--whole-archive)
/home/asergey/runtime-EclipseApplication/x86dev/lib/libkernel.a(rwbounds.o)
                              (--whole-archive)
/home/asergey/runtime-EclipseApplication/x86dev/lib/libkernel.a(socket_impl.o)
                              (--whole-archive)
/home/asergey/runtime-EclipseApplication/x86dev/lib/libkernel.a(accept.o)
                              (--whole-archive)
/home/asergey/runtime-EclipseApplication/x86dev/lib/libkernel.a(bind.o)
                              (--whole-archive)
/home/asergey/runtime-EclipseApplication/x86dev/lib/libkernel.a(connect.o)
                              (--whole-archive)
/home/asergey/runtime-EclipseApplication/x86dev/lib/libkernel.a(gethostname.o)
                              (--whole-archive)
/home/asergey/runtime-EclipseApplication/x86dev/lib/libkernel.a(getpeername.o)
                              (--whole-archive)
/home/asergey/runtime-EclipseApplication/x86dev/lib/libkernel.a(getsockname.o)
                              (--whole-archive)
/home/asergey/runtime-EclipseApplication/x86dev/lib/libkernel.a(getsockopt.o)
                              (--whole-archive)
/home/asergey/runtime-EclipseApplication/x86dev/lib/libkernel.a(listen.o)
                              (--whole-archive)
/home/asergey/runtime-EclipseApplication/x86dev/lib/libkernel.a(recv.o)
                              (--whole-archive)
/home/asergey/runtime-EclipseApplication/x86dev/lib/libkernel.a(recvfrom.o)
                              (--whole-archive)
/home/asergey/runtime-EclipseApplication/x86dev/lib/libkernel.a(recvmsg.o)
                              (--whole-archive)
/home/asergey/runtime-EclipseApplication/x86dev/lib/libkernel.a(send.o)
                              (--whole-archive)
/home/asergey/runtime-EclipseApplication/x86dev/lib/libkernel.a(sendmsg.o)
                              (--whole-archive)
/home/asergey/runtime-EclipseApplication/x86dev/lib/libkernel.a(sendto.o)
                              (--whole-archive)
/home/asergey/runtime-EclipseApplication/x86dev/lib/libkernel.a(setsockopt.o)
                              (--whole-archive)
/home/asergey/runtime-EclipseApplication/x86dev/lib/libkernel.a(shutdown.o)
                              (--whole-archive)
/home/asergey/runtime-EclipseApplication/x86dev/lib/libkernel.a(socket.o)
                              (--whole-archive)
/home/asergey/runtime-EclipseApplication/x86dev/lib/libkernel.a(socketpair.o)
                              (--whole-archive)
/home/asergey/runtime-EclipseApplication/x86dev/lib/libkernel.a(chdir_impl.o)
                              (--whole-archive)
/home/asergey/runtime-EclipseApplication/x86dev/lib/libkernel.a(chmod_impl.o)
                              (--whole-archive)
/home/asergey/runtime-EclipseApplication/x86dev/lib/libkernel.a(chown_impl.o)
                              (--whole-archive)
/home/asergey/runtime-EclipseApplication/x86dev/lib/libkernel.a(fcntl_impl.o)
                              (--whole-archive)
/home/asergey/runtime-EclipseApplication/x86dev/lib/libkernel.a(link_impl.o)
                              (--whole-archive)
/home/asergey/runtime-EclipseApplication/x86dev/lib/libkernel.a(read_impl.o)
                              (--whole-archive)
/home/asergey/runtime-EclipseApplication/x86dev/lib/libkernel.a(readlink_impl.o)
                              (--whole-archive)
/home/asergey/runtime-EclipseApplication/x86dev/lib/libkernel.a(stat_impl.o)
                              (--whole-archive)
/home/asergey/runtime-EclipseApplication/x86dev/lib/libkernel.a(access.o)
                              (--whole-archive)
/home/asergey/runtime-EclipseApplication/x86dev/lib/libkernel.a(chcdev.o)
                              (--whole-archive)
/home/asergey/runtime-EclipseApplication/x86dev/lib/libkernel.a(chdir.o)
                              (--whole-archive)
/home/asergey/runtime-EclipseApplication/x86dev/lib/libkernel.a(chmod.o)
                              (--whole-archive)
/home/asergey/runtime-EclipseApplication/x86dev/lib/libkernel.a(chown.o)
                              (--whole-archive)
/home/asergey/runtime-EclipseApplication/x86dev/lib/libkernel.a(close.o)
                              (--whole-archive)
/home/asergey/runtime-EclipseApplication/x86dev/lib/libkernel.a(dup2.o)
                              (--whole-archive)
/home/asergey/runtime-EclipseApplication/x86dev/lib/libkernel.a(dup.o)
                              (--whole-archive)
/home/asergey/runtime-EclipseApplication/x86dev/lib/libkernel.a(fchdir.o)
                              (--whole-archive)
/home/asergey/runtime-EclipseApplication/x86dev/lib/libkernel.a(fchmod.o)
                              (--whole-archive)
/home/asergey/runtime-EclipseApplication/x86dev/lib/libkernel.a(fchown.o)
                              (--whole-archive)
/home/asergey/runtime-EclipseApplication/x86dev/lib/libkernel.a(fcntl.o)
                              (--whole-archive)
/home/asergey/runtime-EclipseApplication/x86dev/lib/libkernel.a(fdatasync.o)
                              (--whole-archive)
/home/asergey/runtime-EclipseApplication/x86dev/lib/libkernel.a(flock.o)
                              (--whole-archive)
/home/asergey/runtime-EclipseApplication/x86dev/lib/libkernel.a(fstat.o)
                              (--whole-archive)
/home/asergey/runtime-EclipseApplication/x86dev/lib/libkernel.a(fstatfs.o)
                              (--whole-archive)
/home/asergey/runtime-EclipseApplication/x86dev/lib/libkernel.a(fsync.o)
                              (--whole-archive)
/home/asergey/runtime-EclipseApplication/x86dev/lib/libkernel.a(ftruncate.o)
                              (--whole-archive)
/home/asergey/runtime-EclipseApplication/x86dev/lib/libkernel.a(getdtablesize.o)
                              (--whole-archive)
/home/asergey/runtime-EclipseApplication/x86dev/lib/libkernel.a(ioctl.o)
                              (--whole-archive)
/home/asergey/runtime-EclipseApplication/x86dev/lib/libkernel.a(link.o)
                              (--whole-archive)
/home/asergey/runtime-EclipseApplication/x86dev/lib/libkernel.a(lseek64.o)
                              (--whole-archive)
/home/asergey/runtime-EclipseApplication/x86dev/lib/libkernel.a(lseek.o)
                              (--whole-archive)
/home/asergey/runtime-EclipseApplication/x86dev/lib/libkernel.a(lstat.o)
                              (--whole-archive)
/home/asergey/runtime-EclipseApplication/x86dev/lib/libkernel.a(mkdir.o)
                              (--whole-archive)
/home/asergey/runtime-EclipseApplication/x86dev/lib/libkernel.a(mknod.o)
                              (--whole-archive)
/home/asergey/runtime-EclipseApplication/x86dev/lib/libkernel.a(open.o)
                              (--whole-archive)
/home/asergey/runtime-EclipseApplication/x86dev/lib/libkernel.a(read.o)
                              (--whole-archive)
/home/asergey/runtime-EclipseApplication/x86dev/lib/libkernel.a(readlink.o)
                              (--whole-archive)
/home/asergey/runtime-EclipseApplication/x86dev/lib/libkernel.a(readv.o)
                              (--whole-archive)
/home/asergey/runtime-EclipseApplication/x86dev/lib/libkernel.a(rename.o)
                              (--whole-archive)
/home/asergey/runtime-EclipseApplication/x86dev/lib/libkernel.a(rmdir.o)
                              (--whole-archive)
/home/asergey/runtime-EclipseApplication/x86dev/lib/libkernel.a(select.o)
                              (--whole-archive)
/home/asergey/runtime-EclipseApplication/x86dev/lib/libkernel.a(stat.o)
                              (--whole-archive)
/home/asergey/runtime-EclipseApplication/x86dev/lib/libkernel.a(statfs.o)
                              (--whole-archive)
/home/asergey/runtime-EclipseApplication/x86dev/lib/libkernel.a(symlink.o)
                              (--whole-archive)
/home/asergey/runtime-EclipseApplication/x86dev/lib/libkernel.a(sync.o)
                              (--whole-archive)
/home/asergey/runtime-EclipseApplication/x86dev/lib/libkernel.a(umask.o)
                              (--whole-archive)
/home/asergey/runtime-EclipseApplication/x86dev/lib/libkernel.a(unlink.o)
                              (--whole-archive)
/home/asergey/runtime-EclipseApplication/x86dev/lib/libkernel.a(write.o)
                              (--whole-archive)
/home/asergey/runtime-EclipseApplication/x86dev/lib/libkernel.a(writev.o)
                              (--whole-archive)
/home/asergey/runtime-EclipseApplication/x86dev/lib/libkernel.a(blkwak_impl.o)
                              (--whole-archive)
/home/asergey/runtime-EclipseApplication/x86dev/lib/libkernel.a(block.o)
                              (--whole-archive)
/home/asergey/runtime-EclipseApplication/x86dev/lib/libkernel.a(rewait.o)
                              (--whole-archive)
/home/asergey/runtime-EclipseApplication/x86dev/lib/libkernel.a(wakeup.o)
                              (--whole-archive)
/home/asergey/runtime-EclipseApplication/x86dev/lib/libkernel.a(kill_impl.o)
                              (--whole-archive)
/home/asergey/runtime-EclipseApplication/x86dev/lib/libkernel.a(signal_impl.o)
                              (--whole-archive)
/home/asergey/runtime-EclipseApplication/x86dev/lib/libkernel.a(kill.o)
                              (--whole-archive)
/home/asergey/runtime-EclipseApplication/x86dev/lib/libkernel.a(sigaction.o)
                              (--whole-archive)
/home/asergey/runtime-EclipseApplication/x86dev/lib/libkernel.a(sigblock.o)
                              (--whole-archive)
/home/asergey/runtime-EclipseApplication/x86dev/lib/libkernel.a(signotify.o)
                              (--whole-archive)
/home/asergey/runtime-EclipseApplication/x86dev/lib/libkernel.a(sigpause.o)
                              (--whole-archive)
/home/asergey/runtime-EclipseApplication/x86dev/lib/libkernel.a(sigpending.o)
                              (--whole-archive)
/home/asergey/runtime-EclipseApplication/x86dev/lib/libkernel.a(sigprocmask.o)
                              (--whole-archive)
/home/asergey/runtime-EclipseApplication/x86dev/lib/libkernel.a(sigqueue.o)
                              (--whole-archive)
/home/asergey/runtime-EclipseApplication/x86dev/lib/libkernel.a(sigsetmask.o)
                              (--whole-archive)
/home/asergey/runtime-EclipseApplication/x86dev/lib/libkernel.a(sigsuspend.o)
                              (--whole-archive)
/home/asergey/runtime-EclipseApplication/x86dev/lib/libkernel.a(sigtimedwait.o)
                              (--whole-archive)
/home/asergey/runtime-EclipseApplication/x86dev/lib/libkernel.a(sigvec.o)
                              (--whole-archive)
/home/asergey/runtime-EclipseApplication/x86dev/lib/libkernel.a(sigwait.o)
                              (--whole-archive)
/home/asergey/runtime-EclipseApplication/x86dev/lib/libkernel.a(get_set_thread_priority.o)
                              (--whole-archive)
/home/asergey/runtime-EclipseApplication/x86dev/lib/libkernel.a(adjtime.o)
                              (--whole-archive)
/home/asergey/runtime-EclipseApplication/x86dev/lib/libkernel.a(gettimeofday.o)
                              (--whole-archive)
/home/asergey/runtime-EclipseApplication/x86dev/lib/libkernel.a(times.o)
                              (--whole-archive)
/home/asergey/runtime-EclipseApplication/x86dev/lib/libkernel.a(settimeofday.o)
                              (--whole-archive)
/home/asergey/runtime-EclipseApplication/x86dev/lib/libmisc.a(nhn.o)
                              (--whole-archive)
/home/asergey/runtime-EclipseApplication/x86dev/lib/libmisc.a(reg_access.o)
                              (--whole-archive)
/home/asergey/runtime-EclipseApplication/x86dev/lib/libmisc.a(abs.o)
                              (--whole-archive)
/home/asergey/runtime-EclipseApplication/x86dev/lib/libmisc.a(calloc.o)
                              (--whole-archive)
/home/asergey/runtime-EclipseApplication/x86dev/lib/libmisc.a(s_rindex.o)
                              (--whole-archive)
/home/asergey/runtime-EclipseApplication/x86dev/lib/libmisc.a(strcat.o)
                              (--whole-archive)
/home/asergey/runtime-EclipseApplication/x86dev/lib/libmisc.a(strcmp.o)
                              (--whole-archive)
/home/asergey/runtime-EclipseApplication/x86dev/lib/libmisc.a(strchr.o)
                              (--whole-archive)
/home/asergey/runtime-EclipseApplication/x86dev/lib/libmisc.a(strcpy.o)
                              (--whole-archive)
/home/asergey/runtime-EclipseApplication/x86dev/lib/libmisc.a(strlen.o)
                              (--whole-archive)
/home/asergey/runtime-EclipseApplication/x86dev/lib/libmisc.a(strncat.o)
                              (--whole-archive)
/home/asergey/runtime-EclipseApplication/x86dev/lib/libmisc.a(strncmp.o)
                              (--whole-archive)
/home/asergey/runtime-EclipseApplication/x86dev/lib/libmisc.a(strncpy.o)
                              (--whole-archive)
/home/asergey/runtime-EclipseApplication/x86dev/lib/libmisc.a(strnlen.o)
                              (--whole-archive)
/home/asergey/runtime-EclipseApplication/x86dev/lib/libmisc.a(malloc.o)
                              (--whole-archive)
/home/asergey/runtime-EclipseApplication/x86dev/lib/libmisc.a(memcmp.o)
                              (--whole-archive)
/home/asergey/runtime-EclipseApplication/x86dev/lib/libmisc.a(atomic_ops.o)
                              (--whole-archive)
/home/asergey/runtime-EclipseApplication/x86dev/lib/libmisc.a(memcpy_x86.o)
                              (--whole-archive)
/home/asergey/runtime-EclipseApplication/x86dev/lib/libmisc.a(memset_x86.o)
                              (--whole-archive)
/home/asergey/runtime-EclipseApplication/x86dev/lib/libfamily_x86_64.a(cpu.o)
                              /home/asergey/runtime-EclipseApplication/x86dev/lib/libcsp_x86_64.a(trap.o) (csp_get_CR0)
/home/asergey/runtime-EclipseApplication/x86dev/lib/libfamily_x86_64.a(csp_fsetbit_asm.o)
                              /home/asergey/runtime-EclipseApplication/x86dev/lib/libdrivers.a(ahci.o) (fsetbit)
/home/asergey/runtime-EclipseApplication/x86dev/lib/libfamily_x86_64.a(csp_misc.o)
                              /home/asergey/runtime-EclipseApplication/x86dev/lib/libkernel.a(main.o) (csp_null_loop)
/home/asergey/runtime-EclipseApplication/x86dev/lib/libfamily_x86_64.a(csp__stexit.o)
                              /home/asergey/runtime-EclipseApplication/x86dev/lib/libkernel.a(threads.o) (csp__stexit)
/home/asergey/runtime-EclipseApplication/x86dev/lib/libfamily_x86_64.a(xcontext.o)
                              /home/asergey/runtime-EclipseApplication/x86dev/lib/libdrivers.a(remote.o) (get_usr_econtext)
/home/asergey/runtime-EclipseApplication/x86dev/lib/libfamily_x86_64.a(reloc_elf.o)
                              /home/asergey/runtime-EclipseApplication/x86dev/lib/libkernel.a(install_elf.o) (csp_reloc_sec)
/home/asergey/runtime-EclipseApplication/x86dev/lib/libfamily_x86_64.a(signal_asm.o)
                              /home/asergey/runtime-EclipseApplication/x86dev/lib/libkernel.a(sc_router.o) (sig_recover)
/home/asergey/runtime-EclipseApplication/x86dev/lib/libfamily_x86_64.a(signal.o)
                              /home/asergey/runtime-EclipseApplication/x86dev/lib/libkernel.a(deliver.o) (sig_exechandler)
/home/asergey/runtime-EclipseApplication/x86dev/lib/libfamily_x86_64.a(syscall.o)
                              /home/asergey/runtime-EclipseApplication/x86dev/lib/libkernel.a(sc_router.o) (sc_execsyscall)
/home/asergey/runtime-EclipseApplication/x86dev/lib/libcsp_x86_64.a(context.o)
                              /home/asergey/runtime-EclipseApplication/x86dev/lib/libkernel.a(threads.o) (ctx_execuser)
/home/asergey/runtime-EclipseApplication/x86dev/lib/libcsp_x86_64.a(csp_mem_map.o)
                              /home/asergey/runtime-EclipseApplication/x86dev/lib/libkernel.a(sm.o) (dup_ptes_job)
/home/asergey/runtime-EclipseApplication/x86dev/lib/libcsp_x86_64.a(fpu.o)
                              /home/asergey/runtime-EclipseApplication/x86dev/lib/libkernel.a(fpcontext.o) (ctx_initialize_fpu_context)
/home/asergey/runtime-EclipseApplication/x86dev/lib/libcsp_x86_64.a(tlb.o)
                              /home/asergey/runtime-EclipseApplication/x86dev/lib/libcsp_x86_64.a(csp_mem_map.o) (csp_tlb_inval)
/home/asergey/runtime-EclipseApplication/x86dev/lib/libcsp_x86_64.a(context_asm.o)
                              /home/asergey/runtime-EclipseApplication/x86dev/lib/libcsp_x86_64.a(context.o) (ctx_execuser_asm)
/home/asergey/runtime-EclipseApplication/x86dev/lib/libptrace_x86_64.a(ptrace_trap.o)
                              /home/asergey/runtime-EclipseApplication/x86dev/lib/libptrace.a(ptrace.o) (ptrace_low_handlers_install)
/home/asergey/runtime-EclipseApplication/x86dev/lib/libptrace.a(core.o)
                              /home/asergey/runtime-EclipseApplication/x86dev/lib/libkernel.a(signal_impl.o) (writecore)

Memory Configuration

Name             Origin             Length             Attributes
*default*        0x0000000000000000 0xffffffffffffffff

Linker script and memory map

                0x00000000000000b0                . = SIZEOF_HEADERS

.text           0xffffffff80001000    0xcebe0
 *(.kboot0)
 .kboot0        0xffffffff80001000       0x3b bsp.x86_64.o
                0xffffffff80001000                _start
                0xffffffff80002000                . = ALIGN (0x1000)
 *fill*         0xffffffff8000103b      0xfc5 9090
 *(.kboot1)
 .kboot1        0xffffffff80002000      0x68d bsp.x86_64.o
                0xffffffff80002620                bsp_relocate
                0xffffffff80003000                . = ALIGN (0x1000)
 *fill*         0xffffffff8000268d      0x973 9090
 *(.kboot2)
 .kboot2        0xffffffff80003000       0xc3 bsp.x86_64.o
                0xffffffff80003000                bsp_lowInit
 *(.text)
 *fill*         0xffffffff800030c3        0xd 9090
 .text          0xffffffff800030d0     0x177e bsp.x86_64.o
                0xffffffff800030d0                bsp_conf_init
                0xffffffff800030e0                bsp_get_cpu_frequency
                0xffffffff800030f0                bsp_get_bus_frequency
                0xffffffff80003100                bsp_devinfo_init
                0xffffffff80003110                bsp_get_dev_by_type
                0xffffffff80003160                bsp_find_unused_dev_info
                0xffffffff80003190                bsp_drm_pre_init
                0xffffffff800031a0                bsp_drm_post_init
                0xffffffff800031b0                bsp_drm_init
                0xffffffff800031e0                bsp_init_kenv
                0xffffffff80003240                bsp_sync_kenv
                0xffffffff80003280                bsp_post_init_kenv
                0xffffffff80003320                bsp_post_init
                0xffffffff80003330                bsp_iomap_adv
                0xffffffff80003340                bsp_init_globals
                0xffffffff800033d0                bsp_buserror_reset
                0xffffffff800033e0                bsp_init_exceptions
                0xffffffff80003470                lapic_read
                0xffffffff80003490                lapic_write
                0xffffffff800034b0                ioapic_get_rte
                0xffffffff80003550                ioapic_set_rte
                0xffffffff800035f0                bsp_init_intr
                0xffffffff80003940                bsp_late_init_intr
                0xffffffff80003950                bsp_int_unmask
                0xffffffff800039e0                bsp_int_mask
                0xffffffff80003a70                bsp_ioint
                0xffffffff80003aa0                bsp_map_usr_fs
                0xffffffff80003ab0                bsp_map_local_fs
                0xffffffff80003ac0                bsp_pci_init
                0xffffffff80003ad0                bsp_pci_discover
                0xffffffff80003ae0                bsp_pci_io_baddr2paddr
                0xffffffff80003af0                bsp_pci_mem_baddr2paddr
                0xffffffff80003b00                bsp_pci_mem_attr
                0xffffffff80003b10                bsp_pci_io_baddr_start
                0xffffffff80003b20                bsp_pci_mem_baddr_start
                0xffffffff80003b30                bsp_pci_min_io_align
                0xffffffff80003b40                bsp_pci_min_mem_align
                0xffffffff80003b50                bsp_pci_confread
                0xffffffff80003c30                bsp_pci_confwrite
                0xffffffff80003d00                bsp_pci_is_multiport
                0xffffffff80003d10                bsp_pci_min_port_size
                0xffffffff80003d20                bsp_pci_get_port
                0xffffffff80003d30                bsp_pci_free_port
                0xffffffff80003d40                bsp_pci_flush_port
                0xffffffff80003d50                bsp_msi_alloc_msg
                0xffffffff80003e00                bsp_msi_free_msg
                0xffffffff80003e60                bsp_msi_get_vector
                0xffffffff80003ef0                bsp_pre_reboot
                0xffffffff80003f00                bsp_reset
                0xffffffff80003f20                bsp_get_timebase
                0xffffffff80003f40                bsp_init_osticker
                0xffffffff800041b0                bsp_read_osticker
                0xffffffff800041d0                bsp_clkint_enter
                0xffffffff80004280                bsp_clkint_exit
                0xffffffff80004290                bsp_init_timer
                0xffffffff800042a0                bsp_vm_switch_imminent
                0xffffffff800042b0                bsp_read_nvram
                0xffffffff800042c0                bsp_write_nvram
                0xffffffff800042d0                bsp_get_tod
                0xffffffff800045b0                bsp_set_tod
                0xffffffff800047c0                bsp_initkputc
                0xffffffff800047e0                bsp_protect_kkprintf
                0xffffffff800047f0                VERSION
 .text          0xffffffff8000484e      0x181 conf_am.o
                0xffffffff8000484e                kas_get_osbase_ea
                0xffffffff80004860                kas_get_osbase_size_ea
                0xffffffff80004870                kas_pre_init_common
                0xffffffff80004983                kstack_size_get
                0xffffffff80004993                kstack_top_get
 .text          0xffffffff800049cf      0x1c5 conf.o
                0xffffffff800049cf                kstack_sig_lwm_get
                0xffffffff800049df                cdevopen
                0xffffffff80004a07                attach_skdb
                0xffffffff80004a1d                bsp_set_VM0_limits
 .text          0xffffffff80004b94      0x111 info.o
                0xffffffff80004b94                info_init
                0xffffffff80004bf7                __info
                0xffffffff80004bf7                __ksc_info
 .text          0xffffffff80004ca5        0x0 timestamp.o
 *fill*         0xffffffff80004ca5        0xb 9090
 .text          0xffffffff80004cb0      0x1d3 /home/asergey/runtime-EclipseApplication/x86dev/lib/libcsp_x86_64.a(csp_init.o)
                0xffffffff80004cb0                csp_post_init
                0xffffffff80004e40                csp_init_globals
 *fill*         0xffffffff80004e83        0xd 9090
 .text          0xffffffff80004e90        0x8 /home/asergey/runtime-EclipseApplication/x86dev/lib/libcsp_x86_64.a(csp_mem_map_am.o)
                0xffffffff80004e90                get_tea
 *fill*         0xffffffff80004e98        0x8 9090
 .text          0xffffffff80004ea0      0x324 /home/asergey/runtime-EclipseApplication/x86dev/lib/libcsp_x86_64.a(launch_am.o)
                0xffffffff80004ea0                setseg
                0xffffffff80004fc0                csp_launch_os
 *fill*         0xffffffff800051c4        0xc 9090
 .text          0xffffffff800051d0      0x37a /home/asergey/runtime-EclipseApplication/x86dev/lib/libcsp_x86_64.a(lowInit.o)
                0xffffffff800051d0                lowInit
                0xffffffff800054a0                map_region
 *fill*         0xffffffff8000554a        0x6 9090
 .text          0xffffffff80005550      0x2a6 /home/asergey/runtime-EclipseApplication/x86dev/lib/libcsp_x86_64.a(trap.o)
                0xffffffff800056b0                csp_post_init_traps
                0xffffffff800057f0                csp_ioint_trapinit
 *fill*         0xffffffff800057f6        0x2 9090
 .text          0xffffffff800057f8     0x10b7 /home/asergey/runtime-EclipseApplication/x86dev/lib/libcsp_x86_64.a(csp_flih_asm.o)
                0xffffffff800068a0                set_int_stack
 *fill*         0xffffffff800068af        0x1 9090
 .text          0xffffffff800068b0       0x2d /home/asergey/runtime-EclipseApplication/x86dev/lib/libcsp_x86_64.a(launch_asm.o)
                0xffffffff800068b0                csp_launch_os_asm
 *fill*         0xffffffff800068dd        0x3 9090
 .text          0xffffffff800068e0       0xd4 /home/asergey/runtime-EclipseApplication/x86dev/lib/libcsp_x86_64.a(csp_cache.o)
                0xffffffff800068e0                csp_get_cache_line_size
                0xffffffff800068f0                cache_op
 *fill*         0xffffffff800069b4        0xc 9090
 .text          0xffffffff800069c0      0x138 /home/asergey/runtime-EclipseApplication/x86dev/lib/libcsp_x86_64.a(csp_init_am.o)
                0xffffffff80006a10                csp_pre_init
 *fill*         0xffffffff80006af8        0x8 9090
 .text          0xffffffff80006b00     0x1741 /home/asergey/runtime-EclipseApplication/x86dev/lib/libdrivers.a(ahcidrvr.o)
                0xffffffff80006b00                ahci_isr
                0xffffffff80006be0                ahci_datarw_done
                0xffffffff80006e80                ahci_databp_done
                0xffffffff80006fc0                rahci_install
                0xffffffff800071c0                ahci_install
                0xffffffff800071d0                do_async_action
                0xffffffff80007250                do_sync_action
                0xffffffff800072d0                ahci_datarw
                0xffffffff800074d0                ahci_identify
                0xffffffff80007730                ahci_rw
                0xffffffff80007bb0                ahci_databp
                0xffffffff80007e50                ahci_ioctl
                0xffffffff80008090                rahci_open
                0xffffffff80008110                rahci_read
                0xffffffff80008120                rahci_write
                0xffffffff80008130                rahci_ioctl
                0xffffffff80008140                ahci_open
                0xffffffff800081c0                ahci_strategy
 .text          0xffffffff80008241        0x0 /home/asergey/runtime-EclipseApplication/x86dev/lib/libdrivers.a(ahciinfo.o)
 *fill*         0xffffffff80008241        0xf 9090
 .text          0xffffffff80008250     0x62dd /home/asergey/runtime-EclipseApplication/x86dev/lib/libdrivers.a(kdbdrvr.o)
                0xffffffff8000b650                skdb_install
                0xffffffff8000b7e0                skdb_uninstall
                0xffffffff8000b840                skdb_in_skdb
                0xffffffff8000b890                skdb_memread_job
                0xffffffff8000bab0                skdb_memwrite_job
                0xffffffff8000bbb0                skdb_memread
                0xffffffff8000bbd0                skdb_memwrite
                0xffffffff8000bbf0                skdb_show_frame
                0xffffffff8000bcc0                skdb_find_closest_symbol
                0xffffffff8000bd20                skdb_show_label
                0xffffffff8000bda0                skdb_show_addr_label
                0xffffffff8000c410                skdb_get_decimal
                0xffffffff8000d020                skdb_get_udecimal
                0xffffffff8000d070                skdb_get_hex
                0xffffffff8000d1c0                skdb_get_address
                0xffffffff8000e490                skdb_enable_dr_install_notify
                0xffffffff8000e4c0                skdb_disable_dr_install_notify
                0xffffffff8000e4f0                skdb_cmd_install
 *fill*         0xffffffff8000e52d        0x3 9090
 .text          0xffffffff8000e530     0x486c /home/asergey/runtime-EclipseApplication/x86dev/lib/libdrivers.a(lcs_emdrvr.o)
                0xffffffff8000f5f0                lem_poll_eerd_eewr_done
                0xffffffff8000f660                lem_spi_eeprom_ready
                0xffffffff8000fab0                lem_reload_nvm_generic
                0xffffffff8000fb00                lem_write_pci_cfg_word
                0xffffffff8000fb60                lem_write_pci_cfg_dword
                0xffffffff8000fbc0                lem_read_pci_cfg_byte
                0xffffffff8000fc20                lem_read_pci_cfg_word
                0xffffffff80010670                lem_disable_pcie_master
                0xffffffff800106e0                lem_get_auto_rd_done
                0xffffffff80010760                lem_reset_hw
                0xffffffff80010980                lem_check_downshift
                0xffffffff80012b10                lem_ioctl
                0xffffffff80012bb0                lem_close
                0xffffffff80012bc0                lem_open
                0xffffffff80012bd0                lem_install
                0xffffffff80012d80                lem_uninstall
 .text          0xffffffff80012d9c        0x0 /home/asergey/runtime-EclipseApplication/x86dev/lib/libdrivers.a(lcs_eminfo.o)
 *fill*         0xffffffff80012d9c        0x4 9090
 .text          0xffffffff80012da0       0x12 /home/asergey/runtime-EclipseApplication/x86dev/lib/libdrivers.a(ptracedrvr.o)
                0xffffffff80012da0                ptrace_install
 *fill*         0xffffffff80012db2        0xe 9090
 .text          0xffffffff80012dc0      0xdfb /home/asergey/runtime-EclipseApplication/x86dev/lib/libdrivers.a(tty_16550.o)
                0xffffffff800139e0                ttyinstall_16550
                0xffffffff80013ba0                kputc_16550
 *fill*         0xffffffff80013bbb        0x5 9090
 .text          0xffffffff80013bc0      0xc93 /home/asergey/runtime-EclipseApplication/x86dev/lib/libdrivers.a(ttydrvr.o)
                0xffffffff80014030                tty_skdb
                0xffffffff80014060                duart_int
                0xffffffff800140b0                xmit_quies
                0xffffffff800140c0                ttyinstall
                0xffffffff800141b0                ttyuninstall
                0xffffffff800141d0                ttyclose
                0xffffffff80014260                ttyopen
                0xffffffff80014360                ttyread
                0xffffffff800143f0                ttywrite
                0xffffffff80014430                ttyioctl
                0xffffffff80014800                ttyselect
                0xffffffff80014840                tty_skdb_hook
 .text          0xffffffff80014853        0x0 /home/asergey/runtime-EclipseApplication/x86dev/lib/libdrivers.a(ttyinfo.o)
 *fill*         0xffffffff80014853        0xd 9090
 .text          0xffffffff80014860      0x37c /home/asergey/runtime-EclipseApplication/x86dev/lib/libdrivers.a(ehci_pci.o)
                0xffffffff80014860                ehci_pci_install
                0xffffffff80014bc0                ehci_pci_uninstall
 *fill*         0xffffffff80014bdc        0x4 9090
 .text          0xffffffff80014be0      0x26b /home/asergey/runtime-EclipseApplication/x86dev/lib/libdrivers.a(xhci_pci.o)
                0xffffffff80014be0                xhci_install
 *fill*         0xffffffff80014e4b        0x5 9090
 .text          0xffffffff80014e50      0xbdb /home/asergey/runtime-EclipseApplication/x86dev/lib/libdrivers.a(simusb.o)
                0xffffffff80015660                rsimusb_install
                0xffffffff800156f0                rsimusb_uninstall
                0xffffffff80015720                rsimusb_open
                0xffffffff800157c0                rsimusb_close
                0xffffffff800157e0                rsimusb_read
                0xffffffff800157f0                rsimusb_write
                0xffffffff80015800                rsimusb_ioctl
                0xffffffff80015810                simusb_install
                0xffffffff80015820                simusb_open
                0xffffffff800158c0                simusb_close
                0xffffffff800158e0                simusb_strategy
                0xffffffff800158f0                simusb_ioctl
                0xffffffff80015910                umass_scsi_attach
                0xffffffff800159a0                umass_scsi_detach
 *fill*         0xffffffff80015a2b        0x5 9090
 .text          0xffffffff80015a30     0x6093 /home/asergey/runtime-EclipseApplication/x86dev/lib/libdrivers.a(scsimgr.o)
                0xffffffff80015a70                check_simport_existance
                0xffffffff80015ac0                scsimgr_free_simport
                0xffffffff80015b50                scsimgr_deregister
                0xffffffff80015c00                scsimgr_get_simport
                0xffffffff80015c90                scsimgr_register
                0xffffffff80015d70                get_blocks
                0xffffffff80015ee0                highest_prio_request
                0xffffffff80015f60                check_for_errors
                0xffffffff80015fd0                scsimgr_cam_cb
                0xffffffff800160f0                error_all_blocks
                0xffffffff80016160                handle_partial_success
                0xffffffff800162e0                scsimgr_strategy
                0xffffffff80016910                scsimgr_priot_in
                0xffffffff800169e0                scsimgr_priot_out
                0xffffffff80016ac0                scsimgr_build_camreq
                0xffffffff80016c70                scsimgr_rw_cdb
                0xffffffff80016ca0                scsimgr_get_iocb
                0xffffffff80016d50                scsimgr_free_iocb
                0xffffffff80016de0                scsimgr_thread
                0xffffffff80017470                scsimgr_rw1blk
                0xffffffff800175d0                scsimgr_getcam_stat
                0xffffffff800175e0                scsimgr_getsiminfo
                0xffffffff80017680                scsimgr_getdevtype
                0xffffffff800177d0                scsimgr_passthru_cmd
                0xffffffff800179c0                scsimgr_usrcommand
                0xffffffff80017c10                scsimgr_write_protected
                0xffffffff80017da0                scsimgr_read_toc
                0xffffffff80017ec0                scsimgr_read_sub_channel
                0xffffffff80017f80                scsimgr_readcap
                0xffffffff80018780                scsimgr_rewind
                0xffffffff800188a0                scsimgr_prevent_allow_removal
                0xffffffff80018920                scsimgr_writefmarks
                0xffffffff800189c0                scsimgr_read_block_limits
                0xffffffff80018b30                scsimgr_settape_mode
                0xffffffff80018ca0                scsimgr_opentape
                0xffffffff80018e20                scsimgr_space
                0xffffffff80018ec0                scsimgr_closetape
                0xffffffff80018f50                start_unit
                0xffffffff80018fe0                scsimgr_opendisk
                0xffffffff80019420                scsimgr_test_unit_ready
                0xffffffff80019510                scsimgr_open
                0xffffffff80019be0                scsimgr_cmdlength
                0xffffffff80019c40                scsimgr_device_in_use
                0xffffffff80019c50                scsimgr_empty_list
                0xffffffff80019d40                scsimgr_close
                0xffffffff8001a000                clear_strategy_list
                0xffffffff8001a0d0                increment_checkpoint
                0xffffffff8001a100                decrement_checkpoint
                0xffffffff8001a140                scsimgr_sync_rw
                0xffffffff8001ae90                scsimgr_read
                0xffffffff8001af40                scsimgr_write
                0xffffffff8001b010                clear_checkpoints
                0xffffffff8001b070                scsimgr_attached_devices
                0xffffffff8001b100                scsimgr_ioctl
 .text          0xffffffff8001bac3        0x0 /home/asergey/runtime-EclipseApplication/x86dev/lib/libdrivers.a(scsi_timeout.o)
 *fill*         0xffffffff8001bac3        0xd 9090
 .text          0xffffffff8001bad0     0x1280 /home/asergey/runtime-EclipseApplication/x86dev/lib/libdrivers.a(usbdrvr.o)
                0xffffffff8001bad0                usb_match
                0xffffffff8001be40                usb_attach
                0xffffffff8001c0c0                usb_activate
                0xffffffff8001c150                usb_detach
                0xffffffff8001c240                usb_softintr
                0xffffffff8001c2e0                usb_install
                0xffffffff8001c370                usb_add_task
                0xffffffff8001c3d0                usb_rem_task
                0xffffffff8001c430                usbctlprint
                0xffffffff8001c440                usbopen
                0xffffffff8001c4b0                usbread
                0xffffffff8001c5d0                usbclose
                0xffffffff8001c600                usbioctl
                0xffffffff8001c9d0                usb_needs_explore
                0xffffffff8001ca20                usbd_add_dev_event
                0xffffffff8001ca80                usbd_add_drv_event
                0xffffffff8001cad0                usb_schedsoftintr
                0xffffffff8001caf0                usb_uninstall
                0xffffffff8001cb30                usb_prio_add
                0xffffffff8001cc30                usb_prio_remove
                0xffffffff8001cd40                usb_get_vmid
 .text          0xffffffff8001cd50        0x0 /home/asergey/runtime-EclipseApplication/x86dev/lib/libdrivers.a(usbinfo.o)
 .text          0xffffffff8001cd50      0x580 /home/asergey/runtime-EclipseApplication/x86dev/lib/libdrivers.a(virtio_netdrvr.o)
                0xffffffff8001d1c0                virtio_net_ioctl
                0xffffffff8001d270                virtio_net_install
 .text          0xffffffff8001d2d0      0x119 /home/asergey/runtime-EclipseApplication/x86dev/lib/libdrivers.a(lsk_helperdrvr.o)
                0xffffffff8001d2d0                lsk_helper_install
 *fill*         0xffffffff8001d3e9        0x7 9090
 .text          0xffffffff8001d3f0      0x5ba /home/asergey/runtime-EclipseApplication/x86dev/lib/libdrivers.a(lcs_igcdrvr.o)
                0xffffffff8001d830                lcs_igc_ioctl
                0xffffffff8001d970                lcs_igc_install
 *fill*         0xffffffff8001d9aa        0x6 9090
 .text          0xffffffff8001d9b0       0xcf /home/asergey/runtime-EclipseApplication/x86dev/lib/libdrivers.a(memdrvr.o)
                0xffffffff8001d9b0                memread
                0xffffffff8001da40                memwrite
 *fill*         0xffffffff8001da7f        0x1 9090
 .text          0xffffffff8001da80      0x285 /home/asergey/runtime-EclipseApplication/x86dev/lib/libdrivers.a(ptydrvr.o)
                0xffffffff8001da80                ptyinstall
                0xffffffff8001dae0                ptyuninstall
                0xffffffff8001db10                ptyopen
                0xffffffff8001db50                ptyclose
                0xffffffff8001db70                ptyread
                0xffffffff8001db90                ptywrite
                0xffffffff8001dbb0                ptyioctl
                0xffffffff8001dcf0                ptyselect
 .text          0xffffffff8001dd05        0x0 /home/asergey/runtime-EclipseApplication/x86dev/lib/libdrivers.a(ptyinfo.o)
 *fill*         0xffffffff8001dd05        0xb 9090
 .text          0xffffffff8001dd10      0x1f7 /home/asergey/runtime-EclipseApplication/x86dev/lib/libdrivers.a(rnddrvr.o)
                0xffffffff8001dd10                random_write
                0xffffffff8001dd90                random_read
                0xffffffff8001de70                random_install
                0xffffffff8001def0                random_uninstall
 *fill*         0xffffffff8001df07        0x9 9090
 .text          0xffffffff8001df10      0x1fb /home/asergey/runtime-EclipseApplication/x86dev/lib/libdrivers.a(lfatfsdrvr.o)
                0xffffffff8001df10                lfat_set_boot_status
                0xffffffff8001df30                lfat_mkcontig
                0xffffffff8001df50                lfat_symlink
                0xffffffff8001df70                lfat_trunc_contig
                0xffffffff8001df80                lfat_readlink
                0xffffffff8001e080                lfat_install
                0xffffffff8001e100                lfat_uninstall
 *fill*         0xffffffff8001e10b        0x5 9090
 .text          0xffffffff8001e110      0xf81 /home/asergey/runtime-EclipseApplication/x86dev/lib/libdrivers.a(ixgbepfdrvr.o)
                0xffffffff8001ec70                ixgbepf_install
                0xffffffff8001ef10                ixgbepf_ioctl
 .text          0xffffffff8001f091        0x0 /home/asergey/runtime-EclipseApplication/x86dev/lib/libdrivers.a(ixgbepfinfo.o)
 *fill*         0xffffffff8001f091        0xf 9090
 .text          0xffffffff8001f0a0      0x8d5 /home/asergey/runtime-EclipseApplication/x86dev/lib/libdrivers.a(lcsdrvr.o)
                0xffffffff8001f1a0                lcs_install
                0xffffffff8001f1d0                lcs_uninstall
                0xffffffff8001f390                update_peer_entry
                0xffffffff8001f530                delete_peer_entry
                0xffffffff8001f690                lcs_ioctl
 .text          0xffffffff8001f975        0x0 /home/asergey/runtime-EclipseApplication/x86dev/lib/libdrivers.a(lcsinfo.o)
 *fill*         0xffffffff8001f975        0xb 9090
 .text          0xffffffff8001f980      0x20e /home/asergey/runtime-EclipseApplication/x86dev/lib/libdrivers.a(lsk_fifo_pci.o)
                0xffffffff8001f980                lsk_fifo_pci_install
 *fill*         0xffffffff8001fb8e        0x2 9090
 .text          0xffffffff8001fb90      0x7fb /home/asergey/runtime-EclipseApplication/x86dev/lib/libdrivers.a(lsk_fifodrvr.o)
                0xffffffff8001fb90                lsk_fifo_install
                0xffffffff8001fc90                cleanup_fifo_lines
                0xffffffff8001fd00                lsk_fifo_uninstall
                0xffffffff8001fd30                lsk_fifo_read
                0xffffffff80020060                lsk_fifo_write
 .text          0xffffffff8002038b        0x0 /home/asergey/runtime-EclipseApplication/x86dev/lib/libdrivers.a(lsk_fifoinfo.o)
 *fill*         0xffffffff8002038b        0x5 9090
 .text          0xffffffff80020390     0x16fe /home/asergey/runtime-EclipseApplication/x86dev/lib/libdrivers.a(hmdrvr.o)
                0xffffffff80020390                hm_open
                0xffffffff80020960                hm_install
                0xffffffff80020c10                hm_set_exception_handler
                0xffffffff80020f10                hm_read
                0xffffffff80021040                hm_close
                0xffffffff80021210                hm_write
                0xffffffff80021310                hm_raise_system_error_ext
                0xffffffff80021670                hm_clear_system_error
                0xffffffff800218e0                hm_ioctl
 .text          0xffffffff80021a8e        0x0 /home/asergey/runtime-EclipseApplication/x86dev/lib/libdrivers.a(hminfo.o)
 *fill*         0xffffffff80021a8e        0x2 9090
 .text          0xffffffff80021a90      0x6d3 /home/asergey/runtime-EclipseApplication/x86dev/lib/libdrivers.a(mmapdrvr.o)
                0xffffffff80021b80                mmapioctl
 *fill*         0xffffffff80022163        0xd 9090
 .text          0xffffffff80022170     0x2cae /home/asergey/runtime-EclipseApplication/x86dev/lib/libdrivers.a(ahci.o)
                0xffffffff80022170                ahci_ctlr_reset
                0xffffffff800221f0                ahci_ctlr_setup
                0xffffffff80022280                ahci_attach
                0xffffffff800224e0                ahci_intr
                0xffffffff80022580                ahci_setup_intr
                0xffffffff800225b0                ahci_dmainit
                0xffffffff80022650                ahci_dmafini
                0xffffffff800226f0                ahci_slotsalloc
                0xffffffff80022760                ahci_slotsfree
                0xffffffff800227c0                ahci_notify_events
                0xffffffff800227e0                ahci_check_collision
                0xffffffff80022900                ahci_rearm_timeout
                0xffffffff80022990                ahci_process_read_log
                0xffffffff80022b30                ahci_process_request_sense
                0xffffffff80022bd0                ahci_start
                0xffffffff80022c60                ahci_ch_init
                0xffffffff80022d10                ahci_ch_attach
                0xffffffff80022ef0                ahci_stop
                0xffffffff80022f60                ahci_clo
                0xffffffff80022fd0                ahci_reset_to
                0xffffffff800230a0                ahci_stop_fr
                0xffffffff80023110                ahci_ch_deinit
                0xffffffff80023190                ahci_ch_detach
                0xffffffff80023230                ahci_start_fr
                0xffffffff80023250                ahci_wait_ready
                0xffffffff800232d0                ahci_setup_fis
                0xffffffff800233f0                ahci_sata_connect
                0xffffffff80023490                ahci_sata_phy_reset
                0xffffffff800235f0                ahci_reset
                0xffffffff80023880                ahci_phy_check_events
                0xffffffff800238c0                ahci_issue_recovery
                0xffffffff80023a50                ahci_end_transaction
                0xffffffff80023f60                ahci_execute_transaction
                0xffffffff80024370                ahci_dmasetprd
                0xffffffff800243f0                ahci_begin_transaction
                0xffffffff80024630                ahci_process_timeout
                0xffffffff800246a0                ahci_timeout
                0xffffffff80024880                ahci_cpd_check_events
                0xffffffff800248b0                ahci_ch_intr
                0xffffffff80024d30                ahci_check_ids
                0xffffffff80024d90                ahciaction
 *fill*         0xffffffff80024e1e        0x2 9090
 .text          0xffffffff80024e20      0x299 /home/asergey/runtime-EclipseApplication/x86dev/lib/libdrivers.a(ahci-port.o)
                0xffffffff80024e20                device_add_child
                0xffffffff80024ea0                bus_generic_attach
                0xffffffff80024f20                callout_schedule
                0xffffffff80024f30                callout_reset
                0xffffffff80024f50                callout_stop
                0xffffffff80024f60                xpt_alloc_ccb_nowait
                0xffffffff80025030                xpt_free_ccb
                0xffffffff800250a0                xpt_done
 *fill*         0xffffffff800250b9        0x7 9090
 .text          0xffffffff800250c0     0x3e35 /home/asergey/runtime-EclipseApplication/x86dev/lib/libdrivers.a(dis_x86_64.o)
                0xffffffff800250c0                __kdb_dis_end
                0xffffffff800250c0                __kdb_dis_start
                0xffffffff80028e10                skdb_dis_insts
                0xffffffff80028ee0                skdb_sdis_inst
 *fill*         0xffffffff80028ef5        0xb 9090
 .text          0xffffffff80028f00      0xb47 /home/asergey/runtime-EclipseApplication/x86dev/lib/libdrivers.a(kdb_x86_64.o)
                0xffffffff80028f00                __kdb_arch_start
                0xffffffff80028f00                __kdb_arch_end
                0xffffffff80028f60                skdb_extra_install
                0xffffffff80028f80                skdb_extra_uninstall
                0xffffffff80028fa0                skdb_entering
                0xffffffff80028fd0                skdb_exiting
                0xffffffff80029000                skdb_trapname
                0xffffffff80029020                skdb_insert_bp
                0xffffffff80029060                skdb_remove_bp
                0xffffffff80029070                skdb_show_econtext
                0xffffffff80029330                skdb_show_regs
                0xffffffff800293b0                skdb_show_strace
                0xffffffff800295a0                skdb_cant_singlestep
                0xffffffff800295f0                skdb_kernel_context
                0xffffffff80029610                skdb_get_regvalbyname
                0xffffffff80029760                skdb_set_hbp
                0xffffffff800298d0                skdb_clr_hbp
                0xffffffff80029900                skdb_get_prev_inst_pc
                0xffffffff80029970                skdb_get_next_inst_pcs
                0xffffffff800299c0                skdb_arch_real_ss
                0xffffffff800299d0                skdb_arch_get_ext_context
                0xffffffff80029a10                skdb_arch_put_ext_context
 *fill*         0xffffffff80029a47        0x9 9090
 .text          0xffffffff80029a50     0x3437 /home/asergey/runtime-EclipseApplication/x86dev/lib/libdrivers.a(remote.o)
                0xffffffff8002bee0                skdb_rmt_badaddr
                0xffffffff8002bef0                skdb_rmt_panic
                0xffffffff8002bf30                skdb_rmt_singlestep
                0xffffffff8002bfc0                skdb_readline
                0xffffffff8002ce00                skdb_rmt_reentry
 *fill*         0xffffffff8002ce87        0x9 9090
 .text          0xffffffff8002ce90      0x23a /home/asergey/runtime-EclipseApplication/x86dev/lib/libdrivers.a(tty_io.o)
                0xffffffff8002ce90                tty_read_reg
                0xffffffff8002cef0                tty_write_reg
                0xffffffff8002cf50                tty_rmw_reg_or
                0xffffffff8002d010                tty_rmw_reg_and
 *fill*         0xffffffff8002d0ca        0x6 9090
 .text          0xffffffff8002d0d0     0x13b7 /home/asergey/runtime-EclipseApplication/x86dev/lib/libdrivers.a(usbdi.o)
                0xffffffff8002d210                usbd_init
                0xffffffff8002d220                usbd_finish
                0xffffffff8002d230                usbd_open_pipe
                0xffffffff8002d250                usbd_transfer
                0xffffffff8002d3f0                usbd_sync_transfer
                0xffffffff8002d400                usbd_alloc_buffer
                0xffffffff8002d450                usbd_free_buffer
                0xffffffff8002d490                usbd_get_buffer
                0xffffffff8002d4c0                usbd_alloc_xfer
                0xffffffff8002d510                usbd_free_xfer
                0xffffffff8002d570                usbd_close_pipe
                0xffffffff8002d650                usbd_open_pipe_intr
                0xffffffff8002d7a0                usbd_setup_xfer
                0xffffffff8002d7f0                usbd_setup_default_xfer
                0xffffffff8002d850                usbd_setup_isoc_xfer
                0xffffffff8002d8b0                usbd_get_xfer_status
                0xffffffff8002d8f0                usbd_get_config_descriptor
                0xffffffff8002d900                usbd_get_interface_descriptor
                0xffffffff8002d910                usbd_get_device_descriptor
                0xffffffff8002d920                usbd_interface2endpoint_descriptor
                0xffffffff8002d950                usbd_abort_pipe
                0xffffffff8002d9c0                usbd_clear_endpoint_toggle
                0xffffffff8002d9d0                usbd_endpoint_count
                0xffffffff8002d9f0                usbd_interface_count
                0xffffffff8002da20                usbd_interface2device_handle
                0xffffffff8002da30                usbd_device2interface_handle
                0xffffffff8002da80                usbd_pipe2device_handle
                0xffffffff8002da90                usbd_get_no_alts
                0xffffffff8002dae0                usbd_get_interface_altindex
                0xffffffff8002daf0                usb_transfer_complete
                0xffffffff8002de00                usb_insert_transfer
                0xffffffff8002de40                usbd_do_request_flags_pipe
                0xffffffff8002dfb0                usbd_do_request_flags
                0xffffffff8002dfe0                usbd_do_request
                0xffffffff8002e010                usbd_get_interface
                0xffffffff8002e060                usbd_clear_endpoint_stall
                0xffffffff8002e0d0                usbd_set_interface
                0xffffffff8002e180                usbd_do_request_async
                0xffffffff8002e280                usbd_clear_endpoint_stall_async
                0xffffffff8002e2e0                usbd_get_quirks
                0xffffffff8002e2f0                usbd_dopoll
                0xffffffff8002e310                usbd_set_polling
                0xffffffff8002e370                usbd_get_endpoint_descriptor
                0xffffffff8002e3c0                usbd_ratecheck
                0xffffffff8002e3e0                usb_match_device
                0xffffffff8002e430                usb_desc_iter_init
                0xffffffff8002e450                usb_desc_iter_next
 *fill*         0xffffffff8002e487        0x9 9090
 .text          0xffffffff8002e490     0x117b /home/asergey/runtime-EclipseApplication/x86dev/lib/libdrivers.a(usb_lynxos.o)
                0xffffffff8002e490                lynxos_dmamap_load_mbuf
                0xffffffff8002e4a0                lynxos_dmamap_load_raw
                0xffffffff8002e4b0                lynxos_dmamap_unload
                0xffffffff8002e4d0                lynxos_dmamap_sync
                0xffffffff8002e4e0                lynxos_dmamem_unmap
                0xffffffff8002e4f0                lynxos_dmamem_mmap
                0xffffffff8002e500                lynxos_dmamap_load
                0xffffffff8002e560                lynxos_dmamem_alloc
                0xffffffff8002e5d0                lynxos_dmamem_free
                0xffffffff8002e740                lynxos_dmamap_load_uio
                0xffffffff8002e750                lynxos_dmamem_map
                0xffffffff8002e7a0                lynxos_dmamap_create
                0xffffffff8002e860                lynxos_dmamap_destroy
                0xffffffff8002e8b0                lynxos_find_device
                0xffffffff8002e9b0                lynxos_uiomove
                0xffffffff8002eb60                lynxos_malloc
                0xffffffff8002ebd0                lynxos_free
                0xffffffff8002ec20                lynxos_microtime
                0xffffffff8002ec70                lynxos_init_tsleep
                0xffffffff8002ed20                lynxos_tsleep
                0xffffffff8002ee20                lynxos_wakeup
                0xffffffff8002ee90                lynxos_psignal
                0xffffffff8002eea0                ratecheck
                0xffffffff8002ef30                mapply
                0xffffffff8002ef90                config_search
                0xffffffff8002f070                config_makeroom
                0xffffffff8002f0f0                config_attach
                0xffffffff8002f350                config_found_sm
                0xffffffff8002f3b0                config_deactivate
                0xffffffff8002f410                config_detach
 *fill*         0xffffffff8002f60b        0x5 9090
 .text          0xffffffff8002f610     0x1fbe /home/asergey/runtime-EclipseApplication/x86dev/lib/libdrivers.a(usb_subr.o)
                0xffffffff8002f710                usbd_errstr
                0xffffffff8002f750                usbd_get_string_desc
                0xffffffff8002fb50                usbd_printBCD
                0xffffffff8002fb70                usbd_devinfo
                0xffffffff8002fcf0                usb_delay_ms
                0xffffffff8002fd70                usbd_delay_ms
                0xffffffff8002fdf0                usbd_reset_port
                0xffffffff8002fec0                usbd_find_idesc
                0xffffffff8002ff40                usbd_find_edesc
                0xffffffff8002ffc0                usbd_fill_iface_data
                0xffffffff80030160                usbd_set_config
                0xffffffff80030190                usbd_set_config_index
                0xffffffff800305d0                usbd_set_config_no
                0xffffffff80030690                usbd_setup_pipe
                0xffffffff80030780                usbd_kill_pipe
                0xffffffff800307f0                usbd_attach_roothub
                0xffffffff800308c0                usbd_probe_and_attach
                0xffffffff80030c00                usbd_get_initial_ddesc
                0xffffffff80030c90                usbd_new_device
                0xffffffff80031150                usbd_reload_device_desc
                0xffffffff800311a0                usbd_remove_device
                0xffffffff800311f0                usbd_fill_deviceinfo
                0xffffffff80031450                usb_free_device
                0xffffffff80031520                usb_disconnect_port
 *fill*         0xffffffff800315ce        0x2 9090
 .text          0xffffffff800315d0      0x2b0 /home/asergey/runtime-EclipseApplication/x86dev/lib/libdrivers.a(usb_callouts.o)
                0xffffffff800316c0                usb_callout_stop
                0xffffffff80031750                usb_callout_reset
                0xffffffff800317f0                usb_callout_init
                0xffffffff80031810                usb_init_callouts
 .text          0xffffffff80031880      0x2f1 /home/asergey/runtime-EclipseApplication/x86dev/lib/libdrivers.a(ohci_drvr.o)
                0xffffffff80031880                ohci_pci_match
                0xffffffff80031890                ohci_pci_attach
                0xffffffff800318a0                ohci_pci_detach
                0xffffffff800318b0                ohci_install
                0xffffffff80031b40                ohci_uninstall
 *fill*         0xffffffff80031b71        0xf 9090
 .text          0xffffffff80031b80     0x40de /home/asergey/runtime-EclipseApplication/x86dev/lib/libdrivers.a(ohci.o)
                0xffffffff80035080                ohci_activate
                0xffffffff800350a0                ohci_detach
                0xffffffff800350e0                ohci_init
                0xffffffff80035c00                ohci_intr
 *fill*         0xffffffff80035c5e        0x2 9090
 .text          0xffffffff80035c60      0x20e /home/asergey/runtime-EclipseApplication/x86dev/lib/libdrivers.a(ohci_map.o)
                0xffffffff80035c60                ohci_map_match
                0xffffffff80035c70                ohci_map_attach
                0xffffffff80035c80                ohci_map_detach
                0xffffffff80035c90                ohci_map_install
                0xffffffff80035e30                ohci_map_uninstall
 *fill*         0xffffffff80035e6e        0x2 9090
 .text          0xffffffff80035e70      0x1b4 /home/asergey/runtime-EclipseApplication/x86dev/lib/libdrivers.a(ehci_map.o)
                0xffffffff80035e70                ehci_map_match
                0xffffffff80035e80                ehci_map_attach
                0xffffffff80035e90                ehci_map_detach
                0xffffffff80035ea0                ehci_map_install
 *fill*         0xffffffff80036024        0xc 9090
 .text          0xffffffff80036030     0x54c1 /home/asergey/runtime-EclipseApplication/x86dev/lib/libdrivers.a(ehci.o)
                0xffffffff8003a430                ehci_init
                0xffffffff8003b380                ehci_intr
                0xffffffff8003b460                ehci_detach
                0xffffffff8003b4b0                ehci_activate
 *fill*         0xffffffff8003b4f1        0xf 9090
 .text          0xffffffff8003b500      0x1c8 /home/asergey/runtime-EclipseApplication/x86dev/lib/libdrivers.a(xhci_map.o)
                0xffffffff8003b500                xhci_map_match
                0xffffffff8003b510                xhci_map_attach
                0xffffffff8003b520                xhci_map_detach
                0xffffffff8003b530                xhci_map_install
 *fill*         0xffffffff8003b6c8        0x8 9090
 .text          0xffffffff8003b6d0     0x4981 /home/asergey/runtime-EclipseApplication/x86dev/lib/libdrivers.a(xhci.o)
                0xffffffff8003ee60                xhci_childdet
                0xffffffff8003ee90                xhci_detach
                0xffffffff8003f1c0                xhci_activate
                0xffffffff8003f1f0                xhci_init
                0xffffffff8003ffc0                xhci_intr
 *fill*         0xffffffff80040051        0xf 9090
 .text          0xffffffff80040060     0x14a8 /home/asergey/runtime-EclipseApplication/x86dev/lib/libdrivers.a(uhub.o)
                0xffffffff80040060                uhub_match
                0xffffffff800408d0                uhub_activate
                0xffffffff800409b0                uhub_detach
                0xffffffff80040ca0                uhub_attach
                0xffffffff80041480                uhub_install
                0xffffffff800414d0                uhub_uninstall
 *fill*         0xffffffff80041508        0x8 9090
 .text          0xffffffff80041510      0x87f /home/asergey/runtime-EclipseApplication/x86dev/lib/libdrivers.a(uhidev.o)
                0xffffffff80041520                uhidev_match
                0xffffffff80041580                uhidev_attach
                0xffffffff800418a0                uhidev_detach
                0xffffffff80041a50                uhidev_activate
                0xffffffff80041af0                uhidev_get_report_desc
                0xffffffff80041b10                uhidev_open
                0xffffffff80041c20                uhidev_close
                0xffffffff80041c90                uhidev_set_report
                0xffffffff80041d00                uhidev_set_report_async
                0xffffffff80041d70                uhidev_get_report
 *fill*         0xffffffff80041d8f        0x1 9090
 .text          0xffffffff80041d90      0xd02 /home/asergey/runtime-EclipseApplication/x86dev/lib/libdrivers.a(ukbd.o)
                0xffffffff80041d90                ukbd_activate
                0xffffffff80041db0                ukbd_match
                0xffffffff80041e40                ukbd_detach
                0xffffffff80042430                ukbd_attach
                0xffffffff80042a80                ukbd_cnattach
 .text          0xffffffff80042a92        0x0 /home/asergey/runtime-EclipseApplication/x86dev/lib/libdrivers.a(ukbdmap.o)
 *fill*         0xffffffff80042a92        0xe 9090
 .text          0xffffffff80042aa0      0x505 /home/asergey/runtime-EclipseApplication/x86dev/lib/libdrivers.a(ums.o)
                0xffffffff80042aa0                ums_activate
                0xffffffff80042ac0                ums_detach
                0xffffffff80042b00                ums_match
                0xffffffff80042b50                ums_attach
                0xffffffff80042e20                lynx_wsmouse_input
 *fill*         0xffffffff80042fa5        0xb 9090
 .text          0xffffffff80042fb0     0x15c3 /home/asergey/runtime-EclipseApplication/x86dev/lib/libdrivers.a(umass.o)
                0xffffffff80043030                umass_detach
                0xffffffff800430c0                umass_activate
                0xffffffff80043100                umass_match
                0xffffffff800440f0                umass_bbb_get_max_lun
                0xffffffff80044140                umass_attach
 *fill*         0xffffffff80044573        0xd 9090
 .text          0xffffffff80044580      0x112 /home/asergey/runtime-EclipseApplication/x86dev/lib/libdrivers.a(umass_quirks.o)
                0xffffffff80044670                umass_lookup
 *fill*         0xffffffff80044692        0xe 9090
 .text          0xffffffff800446a0      0x5ee /home/asergey/runtime-EclipseApplication/x86dev/lib/libdrivers.a(virtqueue.o)
                0xffffffff800446a0                virtqueue_alloc
                0xffffffff80044860                virtqueue_free
                0xffffffff800448a0                virtqueue_paddr
                0xffffffff800448c0                virtqueue_desc_paddr
                0xffffffff800448e0                virtqueue_avail_paddr
                0xffffffff80044900                virtqueue_used_paddr
                0xffffffff80044920                virtqueue_notify
                0xffffffff80044990                virtqueue_nused
                0xffffffff800449b0                virtqueue_intr_filter
                0xffffffff80044a00                virtqueue_enqueue
                0xffffffff80044b50                virtqueue_desc_retired
                0xffffffff80044ba0                virtqueue_dequeue
 *fill*         0xffffffff80044c8e        0x2 9090
 .text          0xffffffff80044c90      0x5de /home/asergey/runtime-EclipseApplication/x86dev/lib/libdrivers.a(virtio_pci.o)
                0xffffffff80044d90                vtpci_get_status
                0xffffffff80044db0                vtpci_set_status
                0xffffffff80044de0                vtpci_attach
                0xffffffff80044f80                vtpci_negotiate_features
                0xffffffff80045050                vtpci_alloc_virtqueues
                0xffffffff800451f0                vtpci_reinit_complete
                0xffffffff80045210                vtpci_notify_virtqueue
                0xffffffff80045230                vtpci_read_dev_config
 *fill*         0xffffffff8004526e        0x2 9090
 .text          0xffffffff80045270     0x10f8 /home/asergey/runtime-EclipseApplication/x86dev/lib/libdrivers.a(if_igc.o)
                0xffffffff80045470                igc_tx_queues_alloc
                0xffffffff80045590                igc_rx_queues_alloc
                0xffffffff80045b00                igc_if_init
                0xffffffff80045f80                igc_if_attach
                0xffffffff80046330                igc_if_stop
 *fill*         0xffffffff80046368        0x8 9090
 .text          0xffffffff80046370     0x1268 /home/asergey/runtime-EclipseApplication/x86dev/lib/libdrivers.a(igc_i225.o)
                0xffffffff800464b0                igc_acquire_swfw_sync_i225
                0xffffffff80046570                igc_release_swfw_sync_i225
                0xffffffff800465d0                igc_set_d0_lplu_state_i225
                0xffffffff80046620                igc_set_d3_lplu_state_i225
                0xffffffff80046670                igc_setup_copper_link_i225
                0xffffffff800466d0                igc_read_nvm_srrd_i225
                0xffffffff80046790                igc_check_for_link_i225
                0xffffffff80046be0                igc_init_hw_i225
                0xffffffff80046c90                igc_validate_nvm_checksum_i225
                0xffffffff80046df0                igc_write_nvm_srwr_i225
                0xffffffff80047080                igc_get_flash_presence_i225
                0xffffffff800470a0                igc_set_flsw_flash_burst_counter_i225
                0xffffffff800470e0                igc_write_erase_flash_command_i225
                0xffffffff80047190                igc_update_flash_i225
                0xffffffff80047370                igc_update_nvm_checksum_i225
                0xffffffff80047460                igc_init_function_pointers_i225
                0xffffffff800474b0                igc_set_eee_i225
 *fill*         0xffffffff800475d8        0x8 9090
 .text          0xffffffff800475e0      0xdda /home/asergey/runtime-EclipseApplication/x86dev/lib/libdrivers.a(igc_mac.o)
                0xffffffff800475e0                igc_null_ops_generic
                0xffffffff80047640                igc_rar_set_generic
                0xffffffff800476c0                igc_init_mac_ops_generic
                0xffffffff800476f0                igc_null_mac_generic
                0xffffffff80047700                igc_null_link_info
                0xffffffff80047710                igc_null_mng_mode
                0xffffffff80047720                igc_null_update_mc
                0xffffffff80047730                igc_null_write_vfta
                0xffffffff80047740                igc_null_rar_set
                0xffffffff80047750                igc_set_lan_id_single_port
                0xffffffff80047760                igc_clear_vfta_generic
                0xffffffff800477b0                igc_write_vfta_generic
                0xffffffff800477f0                igc_init_rx_addrs_generic
                0xffffffff80047860                igc_check_alt_mac_addr_generic
                0xffffffff80047990                igc_hash_mc_addr_generic
                0xffffffff80047a10                igc_update_mc_addr_list_generic
                0xffffffff80047ae0                igc_clear_hw_cntrs_base_generic
                0xffffffff80047d40                igc_setup_link_generic
                0xffffffff80047e60                igc_set_fc_watermarks_generic
                0xffffffff80047ed0                igc_force_mac_fc_generic
                0xffffffff80048080                igc_check_for_copper_link_generic
                0xffffffff80048110                igc_config_fc_after_link_up_generic
                0xffffffff80048130                igc_get_speed_and_duplex_copper_generic
                0xffffffff800481d0                igc_get_hw_semaphore_generic
                0xffffffff800482c0                igc_put_hw_semaphore_generic
                0xffffffff80048300                igc_get_auto_rd_done_generic
                0xffffffff80048350                igc_disable_pcie_master_generic
 *fill*         0xffffffff800483ba        0x6 9090
 .text          0xffffffff800483c0      0xbdd /home/asergey/runtime-EclipseApplication/x86dev/lib/libdrivers.a(igc_nvm.o)
                0xffffffff800483c0                igc_null_read_nvm
                0xffffffff800483d0                igc_null_nvm_generic
                0xffffffff800484c0                igc_null_write_nvm
                0xffffffff800485e0                igc_init_nvm_ops_generic
                0xffffffff80048640                igc_poll_eerd_eewr_done
                0xffffffff800486c0                igc_acquire_nvm_generic
                0xffffffff80048750                igc_release_nvm_generic
                0xffffffff800487d0                igc_read_nvm_eerd
                0xffffffff800488d0                igc_write_nvm_spi
                0xffffffff80048ba0                igc_read_pba_string_generic
                0xffffffff80048dc0                igc_read_mac_addr_generic
                0xffffffff80048e30                igc_read_mac_addr_standard
                0xffffffff80048ea0                igc_validate_nvm_checksum_generic
                0xffffffff80048f10                igc_update_nvm_checksum_generic
 *fill*         0xffffffff80048f9d        0x3 9090
 .text          0xffffffff80048fa0      0xe35 /home/asergey/runtime-EclipseApplication/x86dev/lib/libdrivers.a(igc_phy.o)
                0xffffffff80048fa0                igc_null_set_page
                0xffffffff80048fb0                igc_null_read_reg
                0xffffffff80048fc0                igc_null_phy_generic
                0xffffffff80048fd0                igc_null_lplu_state
                0xffffffff80048fe0                igc_null_write_reg
                0xffffffff800491e0                igc_init_phy_ops_generic
                0xffffffff800492b0                igc_check_reset_block_generic
                0xffffffff800492e0                igc_get_phy_id
                0xffffffff80049380                igc_read_phy_reg_mdic
                0xffffffff80049440                igc_write_phy_reg_mdic
                0xffffffff80049500                igc_setup_copper_link_generic
                0xffffffff800498b0                igc_phy_force_speed_duplex_setup
                0xffffffff80049960                igc_set_d3_lplu_state_generic
                0xffffffff80049a90                igc_check_downshift_generic
                0xffffffff80049aa0                igc_phy_has_link_generic
                0xffffffff80049ac0                igc_phy_hw_reset_generic
                0xffffffff80049bc0                igc_power_up_phy_copper
                0xffffffff80049c10                igc_power_down_phy_copper
                0xffffffff80049c60                igc_write_phy_reg_gpy
                0xffffffff80049d00                igc_read_phy_reg_gpy
                0xffffffff80049d90                igc_read_xmdio_reg
                0xffffffff80049db0                igc_write_xmdio_reg
 *fill*         0xffffffff80049dd5        0xb 9090
 .text          0xffffffff80049de0      0x70a /home/asergey/runtime-EclipseApplication/x86dev/lib/libdrivers.a(lfatfs_blk.o)
                0xffffffff80049de0                lfat_getblkp
                0xffffffff80049f90                lfat_wgetblkp
                0xffffffff8004a1f0                lfat_trunc_inode
                0xffffffff8004a3b0                lfat_trunc2_inode
 *fill*         0xffffffff8004a4ea        0x6 9090
 .text          0xffffffff8004a4f0     0x1696 /home/asergey/runtime-EclipseApplication/x86dev/lib/libdrivers.a(lfatfs_dent.o)
                0xffffffff8004a4f0                lfat_getdents
                0xffffffff8004abd0                lfat_find_entry
                0xffffffff8004b120                lfat_remove_entry
                0xffffffff8004b6d0                lfat_make_entry
 *fill*         0xffffffff8004bb86        0xa 9090
 .text          0xffffffff8004bb90      0x8e8 /home/asergey/runtime-EclipseApplication/x86dev/lib/libdrivers.a(lfatfs_dir.o)
                0xffffffff8004bb90                lfat_mkdir
                0xffffffff8004c190                lfat_rmdir
                0xffffffff8004c370                lfat_other_entries
                0xffffffff8004c470                lfat_newdotdot
 *fill*         0xffffffff8004c478        0x8 9090
 .text          0xffffffff8004c480     0x119c /home/asergey/runtime-EclipseApplication/x86dev/lib/libdrivers.a(lfatfs_inode.o)
                0xffffffff8004c480                lfat_read_inode
                0xffffffff8004c8a0                lfat_deupdate
                0xffffffff8004c9f0                lfat_removede
                0xffffffff8004ca60                lfat_write_inode
                0xffffffff8004ce60                lfat_make_inode
                0xffffffff8004d440                lfat_free_inode
                0xffffffff8004d600                lfat_new_inode
 *fill*         0xffffffff8004d61c        0x4 9090
 .text          0xffffffff8004d620      0xab5 /home/asergey/runtime-EclipseApplication/x86dev/lib/libdrivers.a(lfatfs_mnt.o)
                0xffffffff8004d620                lfat_interrogate_fs
                0xffffffff8004d720                lfat_mount
                0xffffffff8004dec0                lfat_umount
                0xffffffff8004dfa0                lfat_get_volume_info
 *fill*         0xffffffff8004e0d5        0xb 9090
 .text          0xffffffff8004e0e0      0xac5 /home/asergey/runtime-EclipseApplication/x86dev/lib/libdrivers.a(lfat_sup.o)
                0xffffffff8004e0e0                get_fat_blk
                0xffffffff8004e280                rel_fat_blk
                0xffffffff8004e3d0                findslot
                0xffffffff8004e5e0                clusterzero
                0xffffffff8004e750                vtruncbuf
                0xffffffff8004e800                numdirslots
                0xffffffff8004e920                make_inum
                0xffffffff8004e9f0                inum2dep
                0xffffffff8004eb20                dep2inum
 *fill*         0xffffffff8004eba5        0xb 9090
 .text          0xffffffff8004ebb0      0xd8b /home/asergey/runtime-EclipseApplication/x86dev/lib/libdrivers.a(msdosfs_conv.o)
                0xffffffff8004ebb0                unix2dostime
                0xffffffff8004edd0                dos2unixtime
                0xffffffff8004ef30                dos2unixfn
                0xffffffff8004f020                unix2dosfn
                0xffffffff8004f3f0                unix2winfn
                0xffffffff8004f550                winChkName
                0xffffffff8004f6f0                win2unixfn
                0xffffffff8004f8d0                winChksum
                0xffffffff8004f8f0                winSlotCnt
 *fill*         0xffffffff8004f93b        0x5 9090
 .text          0xffffffff8004f940      0x8d0 /home/asergey/runtime-EclipseApplication/x86dev/lib/libdrivers.a(msdosfs_denode.o)
                0xffffffff8004f9b0                msdosfs_init
                0xffffffff8004fa00                msdosfs_reinit
                0xffffffff8004faf0                msdosfs_done
                0xffffffff8004fba0                lfatfs_hashrem
                0xffffffff8004fbf0                lfatfs_hashins
                0xffffffff8004fc00                deget
                0xffffffff8004ff60                deupdat
                0xffffffff8004ff70                deextend
                0xffffffff80050070                detrunc
 .text          0xffffffff80050210     0x1787 /home/asergey/runtime-EclipseApplication/x86dev/lib/libdrivers.a(msdosfs_fat.o)
                0xffffffff80050590                fc_lookup
                0xffffffff800505f0                pcbmap
                0xffffffff80050a00                fc_purge
                0xffffffff80050a30                updatefats
                0xffffffff80050a50                clusterfree
                0xffffffff80050b10                fatentry
                0xffffffff80050b30                chainlength
                0xffffffff80050c10                chainalloc
                0xffffffff80050f60                clusteralloc
                0xffffffff80051220                freeclusterchain
                0xffffffff800514c0                fillinusemap
                0xffffffff80051680                extendfile
 *fill*         0xffffffff80051997        0x9 9090
 .text          0xffffffff800519a0     0x118b /home/asergey/runtime-EclipseApplication/x86dev/lib/libdrivers.a(msdosfs_lookup.o)
                0xffffffff800519a0                createde
                0xffffffff80052180                dosdirempty
                0xffffffff80052320                doscheckpath
                0xffffffff80052500                readep
                0xffffffff80052630                readde
                0xffffffff80052650                removede
                0xffffffff800527f0                uniqdosname
                0xffffffff800529f0                findwin95
 *fill*         0xffffffff80052b2b        0x5 9090
 .text          0xffffffff80052b30      0xc8c /home/asergey/runtime-EclipseApplication/x86dev/lib/libdrivers.a(if_ix.o)
                0xffffffff80052b30                ixgbe_msix_link
                0xffffffff80053540                ixgbe_if_init
 *fill*         0xffffffff800537bc        0x4 9090
 .text          0xffffffff800537c0      0x7c1 /home/asergey/runtime-EclipseApplication/x86dev/lib/libdrivers.a(if_sriov.o)
                0xffffffff800537c0                ixgbe_if_iov_init
                0xffffffff800538c0                ixgbe_process_vf_reset
                0xffffffff80053c30                ixgbe_process_vf_msg
                0xffffffff80053d80                ixgbe_initialize_iov
                0xffffffff80053f00                ixgbepf_enable_pci_sriov
 *fill*         0xffffffff80053f81        0xf 9090
 .text          0xffffffff80053f90      0x10a /home/asergey/runtime-EclipseApplication/x86dev/lib/libdrivers.a(ixgbe_api.o)
                0xffffffff80054020                ixgbe_init_shared_code
 *fill*         0xffffffff8005409a        0x6 9090
 .text          0xffffffff800540a0     0x17eb /home/asergey/runtime-EclipseApplication/x86dev/lib/libdrivers.a(ixgbe_common.o)
                0xffffffff800540a0                ixgbe_clear_hw_cntrs_generic
                0xffffffff80054650                ixgbe_get_mac_addr_generic
                0xffffffff800546b0                ixgbe_setup_fc_generic
                0xffffffff80054780                ixgbe_set_rar_generic
                0xffffffff80054890                ixgbe_disable_rx_generic
                0xffffffff800548e0                ixgbe_enable_rx_generic
                0xffffffff800549b0                ixgbe_clear_rar_generic
                0xffffffff80054a70                ixgbe_init_hw_generic
                0xffffffff80054b10                ixgbe_init_ops_generic
                0xffffffff80054c40                ixgbe_start_hw_generic
                0xffffffff80054cd0                ixgbe_start_hw_gen2
                0xffffffff80054dc0                ixgbe_validate_mac_addr
                0xffffffff80054e10                ixgbe_init_rx_addrs_generic
                0xffffffff80055010                ixgbe_disable_pcie_master
                0xffffffff800550d0                ixgbe_stop_adapter_generic
                0xffffffff80055200                ixgbe_clear_vmdq_generic
                0xffffffff80055240                ixgbe_set_vmdq_generic
                0xffffffff80055290                ixgbe_disable_rss
                0xffffffff800552d0                ixgbe_init_uta_tables_generic
                0xffffffff80055310                ixgbe_set_rxpba_generic
                0xffffffff800553d0                ixgbe_clear_tx_pending
                0xffffffff800554f0                ixgbe_mng_present
                0xffffffff80055530                ixgbe_hic_unlocked
                0xffffffff80055690                ixgbe_host_interface_command
                0xffffffff80055810                ixgbe_set_mac_anti_spoofing
 *fill*         0xffffffff8005588b        0x5 9090
 .text          0xffffffff80055890      0x4b1 /home/asergey/runtime-EclipseApplication/x86dev/lib/libdrivers.a(ixgbepf_mbx.o)
                0xffffffff80055c00                ixgbe_send_vf_msg
                0xffffffff80055c40                ixgbe_send_vf_nack
                0xffffffff80055c70                ixgbepf_handle_mbx
 *fill*         0xffffffff80055d41        0xf 9090
 .text          0xffffffff80055d50      0x5b4 /home/asergey/runtime-EclipseApplication/x86dev/lib/libdrivers.a(ixgbe_x540.o)
                0xffffffff80055d50                ixgbe_get_media_type_X540
                0xffffffff80055da0                ixgbe_reset_hw_X540
                0xffffffff80055ee0                ixgbe_start_hw_X540
                0xffffffff80055f10                ixgbe_init_ops_X540
                0xffffffff800560f0                ixgbe_release_swfw_sync_X540
                0xffffffff80056170                ixgbe_acquire_swfw_sync_X540
 *fill*         0xffffffff80056304        0xc 9090
 .text          0xffffffff80056310      0x366 /home/asergey/runtime-EclipseApplication/x86dev/lib/libdrivers.a(ixgbe_x550.o)
                0xffffffff80056310                ixgbe_read_phy_reg_x550a
                0xffffffff80056390                ixgbe_write_phy_reg_x550a
                0xffffffff80056410                ixgbe_init_ops_X550EM_a
                0xffffffff80056460                ixgbe_get_phy_token
                0xffffffff80056560                ixgbe_put_phy_token
                0xffffffff80056610                ixgbe_set_mdio_speed
 *fill*         0xffffffff80056676        0xa 9090
 .text          0xffffffff80056680      0x3f8 /home/asergey/runtime-EclipseApplication/x86dev/lib/libdrivers.a(ixgbepf_vf_common.o)
                0xffffffff80056680                ixgbe_init_mbx_params
                0xffffffff800566d0                ixgbepf_if_msix_intr_assign
                0xffffffff800566f0                ixgbepf_if_tx_queues_alloc
                0xffffffff800567a0                ixgbepf_if_rx_queues_alloc
                0xffffffff80056850                ixgbepf_setup_tx_desc
                0xffffffff80056890                ixgbepf_setup_rx_desc
                0xffffffff80056920                ixgbepf_write_pci_cfg_dword
                0xffffffff80056990                ixgbepf_read_pci_cfg_dword
                0xffffffff80056a00                ixgbepf_map_resource
 *fill*         0xffffffff80056a78        0x8 9090
 .text          0xffffffff80056a80      0x215 /home/asergey/runtime-EclipseApplication/x86dev/lib/libdrivers.a(lcsthreads.o)
                0xffffffff80056c00                lcs_start_thread
 *fill*         0xffffffff80056c95        0xb 9090
 .text          0xffffffff80056ca0      0x676 /home/asergey/runtime-EclipseApplication/x86dev/lib/libdrivers.a(kbddrvr.o)
                0xffffffff80056e80                kbdmgrinstall
                0xffffffff80056ee0                kbdmgruninstall
                0xffffffff80056f10                kbdmgropen
                0xffffffff80056fd0                kbdmgrclose
                0xffffffff80057060                kbdmgrread
                0xffffffff80057220                kbdmgrioctl
                0xffffffff800572e0                kbdmgrselect
 *fill*         0xffffffff80057316        0xa 9090
 .text          0xffffffff80057320      0x75e /home/asergey/runtime-EclipseApplication/x86dev/lib/libdrivers.a(mousedrvr.o)
                0xffffffff80057550                mousemgrinstall
                0xffffffff800575b0                mousemgruninstall
                0xffffffff800575d0                mousemgropen
                0xffffffff800576a0                mousemgrclose
                0xffffffff80057730                mousemgrwrite
                0xffffffff800577d0                mousemgrread
                0xffffffff80057990                mousemgrioctl
                0xffffffff80057a50                mousemgrselect
 *fill*         0xffffffff80057a7e        0x2 9090
 .text          0xffffffff80057a80      0xae7 /home/asergey/runtime-EclipseApplication/x86dev/lib/libdrivers.a(usbdi_util.o)
                0xffffffff80057a90                usbd_get_desc
                0xffffffff80057ad0                usbd_get_config_desc
                0xffffffff80057b20                usbd_get_config_desc_full
                0xffffffff80057b60                usbd_get_bos_desc
                0xffffffff80057bb0                usbd_get_device_desc
                0xffffffff80057be0                usbd_get_device_status
                0xffffffff80057c10                usbd_get_hub_status
                0xffffffff80057c40                usbd_set_address
                0xffffffff80057c70                usbd_get_port_status
                0xffffffff80057ca0                usbd_clear_hub_feature
                0xffffffff80057cd0                usbd_set_hub_feature
                0xffffffff80057d00                usbd_clear_port_feature
                0xffffffff80057d40                usbd_set_port_feature
                0xffffffff80057d80                usbd_get_protocol
                0xffffffff80057e00                usbd_set_protocol
                0xffffffff80057e80                usbd_set_report
                0xffffffff80057f20                usbd_set_report_async
                0xffffffff80057fc0                usbd_get_report
                0xffffffff80058060                usbd_set_idle
                0xffffffff800580f0                usbd_get_report_descriptor
                0xffffffff80058120                usbd_get_hid_descriptor
                0xffffffff800581a0                usbd_read_report_desc
                0xffffffff800582d0                usbd_get_config
                0xffffffff80058300                usbd_bulk_transfer
                0xffffffff80058420                usb_detach_wait
                0xffffffff80058440                usb_detach_wakeup
                0xffffffff80058450                usb_find_desc
                0xffffffff800584a0                usb_find_desc_if
 *fill*         0xffffffff80058567        0x9 9090
 .text          0xffffffff80058570      0x4d1 /home/asergey/runtime-EclipseApplication/x86dev/lib/libdrivers.a(usb_mem.o)
                0xffffffff80058790                usb_allocmem
                0xffffffff80058950                usb_freemem
                0xffffffff80058a10                usb_syncmem
 *fill*         0xffffffff80058a41        0xf 9090
 .text          0xffffffff80058a50       0x4c /home/asergey/runtime-EclipseApplication/x86dev/lib/libdrivers.a(usb_quirks.o)
                0xffffffff80058a50                usbd_find_quirk
 *fill*         0xffffffff80058a9c        0x4 9090
 .text          0xffffffff80058aa0      0x6b8 /home/asergey/runtime-EclipseApplication/x86dev/lib/libdrivers.a(usbroothub.o)
                0xffffffff80058ae0                usb_makestrdesc
                0xffffffff80059120                usb_makelangtbl
 *fill*         0xffffffff80059158        0x8 9090
 .text          0xffffffff80059160      0xe0c /home/asergey/runtime-EclipseApplication/x86dev/lib/libdrivers.a(hid.o)
                0xffffffff80059160                hid_start_parse
                0xffffffff800591c0                hid_end_parse
                0xffffffff80059210                hid_get_item
                0xffffffff80059ae0                hid_report_size
                0xffffffff80059c00                hid_locate
                0xffffffff80059d90                hid_get_data
                0xffffffff80059e20                hid_is_collection
 *fill*         0xffffffff80059f6c        0x4 9090
 .text          0xffffffff80059f70      0x5e9 /home/asergey/runtime-EclipseApplication/x86dev/lib/libdrivers.a(igc_api.o)
                0xffffffff80059f70                igc_init_mac_params
                0xffffffff80059f90                igc_init_nvm_params
                0xffffffff80059fb0                igc_init_phy_params
                0xffffffff80059fd0                igc_set_mac_type
                0xffffffff8005a050                igc_setup_init_funcs
                0xffffffff8005a110                igc_get_bus_info
                0xffffffff8005a130                igc_clear_vfta
                0xffffffff8005a150                igc_write_vfta
                0xffffffff8005a170                igc_update_mc_addr_list
                0xffffffff8005a190                igc_force_mac_fc
                0xffffffff8005a1a0                igc_check_for_link
                0xffffffff8005a1c0                igc_reset_hw
                0xffffffff8005a1e0                igc_init_hw
                0xffffffff8005a200                igc_setup_link
                0xffffffff8005a220                igc_get_speed_and_duplex
                0xffffffff8005a240                igc_disable_pcie_master
                0xffffffff8005a250                igc_config_collision_dist
                0xffffffff8005a270                igc_rar_set
                0xffffffff8005a290                igc_validate_mdi_setting
                0xffffffff8005a2b0                igc_hash_mc_addr
                0xffffffff8005a2c0                igc_check_reset_block
                0xffffffff8005a2e0                igc_read_phy_reg
                0xffffffff8005a300                igc_write_phy_reg
                0xffffffff8005a330                igc_release_phy
                0xffffffff8005a350                igc_acquire_phy
                0xffffffff8005a370                igc_get_phy_info
                0xffffffff8005a390                igc_phy_hw_reset
                0xffffffff8005a3b0                igc_set_d0_lplu_state
                0xffffffff8005a3e0                igc_set_d3_lplu_state
                0xffffffff8005a410                igc_read_mac_addr
                0xffffffff8005a430                igc_read_pba_string
                0xffffffff8005a440                igc_validate_nvm_checksum
                0xffffffff8005a460                igc_update_nvm_checksum
                0xffffffff8005a480                igc_reload_nvm
                0xffffffff8005a4a0                igc_read_nvm
                0xffffffff8005a4d0                igc_write_nvm
                0xffffffff8005a500                igc_power_up_phy
                0xffffffff8005a540                igc_power_down_phy
 *fill*         0xffffffff8005a559        0x7 9090
 .text          0xffffffff8005a560      0x39f /home/asergey/runtime-EclipseApplication/x86dev/lib/libdrivers.a(igc_base.o)
                0xffffffff8005a560                igc_acquire_phy_base
                0xffffffff8005a580                igc_release_phy_base
                0xffffffff8005a5a0                igc_init_hw_base
                0xffffffff8005a660                igc_power_down_phy_copper_base
                0xffffffff8005a6b0                igc_rx_fifo_flush_base
 *fill*         0xffffffff8005a8ff        0x1 9090
 .text          0xffffffff8005a900      0x680 /home/asergey/runtime-EclipseApplication/x86dev/lib/libdrivers.a(ixgbe_phy.o)
                0xffffffff8005a900                ixgbe_read_phy_reg_generic
                0xffffffff8005a970                ixgbe_write_phy_reg_generic
                0xffffffff8005a9e0                ixgbe_read_phy_reg_mdi
                0xffffffff8005aaf0                ixgbe_write_phy_reg_mdi
                0xffffffff8005ac00                ixgbe_init_phy_ops_generic
                0xffffffff8005ac40                ixgbe_check_reset_blocked
                0xffffffff8005ac70                ixgbe_validate_phy_addr
                0xffffffff8005acb0                ixgbe_get_phy_id
                0xffffffff8005ad30                ixgbe_identify_phy_generic
                0xffffffff8005ae80                ixgbe_get_phy_type_from_id
                0xffffffff8005ae90                ixgbe_tn_check_overtemp
                0xffffffff8005aee0                ixgbe_set_copper_phy_power
 .text          0xffffffff8005af80        0x9 /home/asergey/runtime-EclipseApplication/x86dev/lib/libdrivers_rsc.a(nulldrvr.o)
                0xffffffff8005af80                nullwrite
 *fill*         0xffffffff8005af89        0x7 9090
 .text          0xffffffff8005af90     0x113d /home/asergey/runtime-EclipseApplication/x86dev/lib/libdrivers_rsc.a(rddrvr.o)
                0xffffffff8005b3a0                __get_mem_by_name
                0xffffffff8005b440                rrdinstall
                0xffffffff8005b720                rrduninstall
                0xffffffff8005b770                rrdread
                0xffffffff8005b810                rrdwrite
                0xffffffff8005b8d0                rrdopen
                0xffffffff8005b8f0                rrdclose
                0xffffffff8005b990                rdinstall
                0xffffffff8005b9a0                rdopen
                0xffffffff8005b9b0                rdclose
                0xffffffff8005ba50                rdstrategy
                0xffffffff8005bb70                rdioctl
                0xffffffff8005c0c0                rrdioctl
 .text          0xffffffff8005c0cd        0x0 /home/asergey/runtime-EclipseApplication/x86dev/lib/libdrivers_rsc.a(rdinfo.o)
 *fill*         0xffffffff8005c0cd        0x3 9090
 .text          0xffffffff8005c0d0      0x67b /home/asergey/runtime-EclipseApplication/x86dev/lib/libdrivers_rsc.a(vmosdrvr.o)
                0xffffffff8005c0d0                vmos_ioctl
 *fill*         0xffffffff8005c74b        0x5 9090
 .text          0xffffffff8005c750     0x1097 /home/asergey/runtime-EclipseApplication/x86dev/lib/libdrivers_rsc.a(arinc653drvr.o)
                0xffffffff8005c7e0                arinc_fault
                0xffffffff8005c890                arinc653_get_module_time
                0xffffffff8005ccc0                arinc653_install
                0xffffffff8005cf20                arinc653_uninstall
                0xffffffff8005cfa0                arinc653_open
                0xffffffff8005d0c0                arinc653_close
                0xffffffff8005d140                arinc653_ioctl
 .text          0xffffffff8005d7e7        0x0 /home/asergey/runtime-EclipseApplication/x86dev/lib/libdrivers_rsc.a(arinc653info.o)
 *fill*         0xffffffff8005d7e7        0x9 9090
 .text          0xffffffff8005d7f0     0x27c1 /home/asergey/runtime-EclipseApplication/x86dev/lib/libdrivers_rsc.a(arinc653drvr_inter.o)
                0xffffffff8005f7d0                arinc653_module_channels_free
                0xffffffff8005f8f0                arinc653_module_channels_allocate
                0xffffffff8005fd90                arinc653_partition_ports_free
                0xffffffff8005fe80                arinc653_partition_ports_allocate
                0xffffffff8005ff60                arinc653_handle_port_ioctl
 *fill*         0xffffffff8005ffb1        0xf 9090
 .text          0xffffffff8005ffc0      0x83b /home/asergey/runtime-EclipseApplication/x86dev/lib/liblcs.a(lldinit.o)
                0xffffffff8005ffc0                lld_ifp_by_name
                0xffffffff80060030                lld_ifp_by_index
                0xffffffff80060200                LldAttach
                0xffffffff800604a0                LldInit
                0xffffffff80060580                LldResAlloc
 *fill*         0xffffffff800607fb        0x5 9090
 .text          0xffffffff80060800      0xe46 /home/asergey/runtime-EclipseApplication/x86dev/lib/liblcs.a(llinput.o)
                0xffffffff800608d0                LldSchedule
                0xffffffff80060960                LldTxMaybeFaulty
                0xffffffff800609a0                LldTxInitiate
                0xffffffff80060c20                LldProcessTx
                0xffffffff80060f10                LldInput
                0xffffffff800610d0                LldProcessRx
                0xffffffff80061380                LldReleaseCompleted
 *fill*         0xffffffff80061646        0xa 9090
 .text          0xffffffff80061650      0x3d8 /home/asergey/runtime-EclipseApplication/x86dev/lib/liblcs.a(lld_pfifo_ts.o)
 *fill*         0xffffffff80061a28        0x8 9090
 .text          0xffffffff80061a30       0xf4 /home/asergey/runtime-EclipseApplication/x86dev/lib/liblcs.a(arminit.o)
                0xffffffff80061a30                ArmInitialize
 *fill*         0xffffffff80061b24        0xc 9090
 .text          0xffffffff80061b30      0x783 /home/asergey/runtime-EclipseApplication/x86dev/lib/liblcs.a(arp.o)
                0xffffffff80061b80                ArpFindEntry
                0xffffffff80061be0                ArpDeleteEntry
                0xffffffff80061cb0                ArpAddEntry
                0xffffffff80062000                arp_input
 *fill*         0xffffffff800622b3        0xd 9090
 .text          0xffffffff800622c0       0x1a /home/asergey/runtime-EclipseApplication/x86dev/lib/liblcs.a(udp_init.o)
                0xffffffff800622c0                udp_init
 *fill*         0xffffffff800622da        0x6 9090
 .text          0xffffffff800622e0       0x30 /home/asergey/runtime-EclipseApplication/x86dev/lib/liblcs.a(icmp6_ini.o)
                0xffffffff800622e0                icmp6_init
 .text          0xffffffff80062310      0x279 /home/asergey/runtime-EclipseApplication/x86dev/lib/liblcs.a(in6_ifattach.o)
                0xffffffff80062560                in6_ifattach
 *fill*         0xffffffff80062589        0x7 9090
 .text          0xffffffff80062590      0x301 /home/asergey/runtime-EclipseApplication/x86dev/lib/liblcs.a(in6_pcb.o)
                0xffffffff80062720                in6_pcballoc
                0xffffffff800627f0                in6_pcbdetach
 *fill*         0xffffffff80062891        0xf 9090
 .text          0xffffffff800628a0      0x5bc /home/asergey/runtime-EclipseApplication/x86dev/lib/liblcs.a(in6_route.o)
                0xffffffff800628a0                calc_netmask
                0xffffffff80062900                inet6_lnaof
                0xffffffff80062930                rtifadd6
                0xffffffff80062960                rtifdel6
                0xffffffff80062b20                add_rt_entry6
                0xffffffff80062be0                del_rt_entry6
                0xffffffff80062dc0                in6_RTLookup
 *fill*         0xffffffff80062e5c        0x4 9090
 .text          0xffffffff80062e60      0x807 /home/asergey/runtime-EclipseApplication/x86dev/lib/liblcs.a(ip6_ctlo.o)
                0xffffffff80062e60                join_group
                0xffffffff80063130                leave_group
                0xffffffff80063570                ip6_ctloutput
 *fill*         0xffffffff80063667        0x9 9090
 .text          0xffffffff80063670      0x384 /home/asergey/runtime-EclipseApplication/x86dev/lib/liblcs.a(ip6_init.o)
                0xffffffff80063670                init_reassembly_queues
                0xffffffff80063840                ip_common_init
                0xffffffff80063980                ip6_init
 *fill*         0xffffffff800639f4        0xc 9090
 .text          0xffffffff80063a00      0x431 /home/asergey/runtime-EclipseApplication/x86dev/lib/liblcs.a(ip6_input.o)
                0xffffffff80063b20                ip6_input
 *fill*         0xffffffff80063e31        0xf 9090
 .text          0xffffffff80063e40      0x7f0 /home/asergey/runtime-EclipseApplication/x86dev/lib/liblcs.a(ip6_reassem.o)
                0xffffffff80064250                ip6_reassemb
                0xffffffff800644f0                lcsCheckReassmTimeout
 .text          0xffffffff80064630      0x482 /home/asergey/runtime-EclipseApplication/x86dev/lib/liblcs.a(ip_input.o)
                0xffffffff80064630                ip_input
 *fill*         0xffffffff80064ab2        0xe 9090
 .text          0xffffffff80064ac0      0x1df /home/asergey/runtime-EclipseApplication/x86dev/lib/liblcs.a(in_util.o)
                0xffffffff80064ac0                in_broadcast
                0xffffffff80064ae0                in_GetIfAddr
                0xffffffff80064af0                in_GetIfIndex
                0xffffffff80064b50                in_mask_valid
                0xffffffff80064b70                in_multicast
                0xffffffff80064b90                in_setpeeraddr
                0xffffffff80064bd0                in_setsockaddr
                0xffffffff80064c10                in_unicast
                0xffffffff80064c50                in_PrimaryIf
 *fill*         0xffffffff80064c9f        0x1 9090
 .text          0xffffffff80064ca0      0x63e /home/asergey/runtime-EclipseApplication/x86dev/lib/liblcs.a(ip_reassem.o)
                0xffffffff80065090                ip_reassemb
 *fill*         0xffffffff800652de        0x2 9090
 .text          0xffffffff800652e0      0x13b /home/asergey/runtime-EclipseApplication/x86dev/lib/liblcs.a(ip_init.o)
                0xffffffff800652e0                in_ifattach
                0xffffffff80065360                InitRTable
                0xffffffff800653a0                ip4_init
 *fill*         0xffffffff8006541b        0x5 9090
 .text          0xffffffff80065420      0x231 /home/asergey/runtime-EclipseApplication/x86dev/lib/liblcs.a(icmp_in.o)
                0xffffffff80065420                icmp_input
 *fill*         0xffffffff80065651        0xf 9090
 .text          0xffffffff80065660       0x30 /home/asergey/runtime-EclipseApplication/x86dev/lib/liblcs.a(icmp_ini.o)
                0xffffffff80065660                icmp_init
 .text          0xffffffff80065690     0x20e5 /home/asergey/runtime-EclipseApplication/x86dev/lib/liblcs.a(tcp_inpt.o)
                0xffffffff80065690                tcp_xmit_timer
                0xffffffff80065770                tcp_input
                0xffffffff80067600                tcp_rcv_bufspace_get
                0xffffffff80067620                tcp_snd_bufspace_get
                0xffffffff80067640                tcp_usr_recv
 *fill*         0xffffffff80067775        0xb 9090
 .text          0xffffffff80067780      0xd39 /home/asergey/runtime-EclipseApplication/x86dev/lib/liblcs.a(tcp_out.o)
                0xffffffff80067780                tcp_output
                0xffffffff800683f0                tcp_usr_send
                0xffffffff80068430                tcp_usr_buf
 *fill*         0xffffffff800684b9        0x7 9090
 .text          0xffffffff800684c0      0x574 /home/asergey/runtime-EclipseApplication/x86dev/lib/liblcs.a(tcp_time.o)
                0xffffffff800684c0                tcp_setup_timers
                0xffffffff80068600                tcp_reset_rexmit
                0xffffffff80068630                tcp_setpersist
                0xffffffff80068660                tcp_canceltimers
                0xffffffff80068680                tcp_timers
                0xffffffff80068990                tcp_timeout
                0xffffffff80068a10                tcp_isstimeout
 *fill*         0xffffffff80068a34        0xc 9090
 .text          0xffffffff80068a40      0x19c /home/asergey/runtime-EclipseApplication/x86dev/lib/liblcs.a(tcp_init.o)
                0xffffffff80068a40                tcp_init
 *fill*         0xffffffff80068bdc        0x4 9090
 .text          0xffffffff80068be0      0x12b /home/asergey/runtime-EclipseApplication/x86dev/lib/liblcs.a(tcp_pcb.o)
                0xffffffff80068be0                AddTCPCB
                0xffffffff80068c60                GetTCPCBbySocket
                0xffffffff80068cc0                RemoveTCPCB
 *fill*         0xffffffff80068d0b        0x5 9090
 .text          0xffffffff80068d10      0x9e4 /home/asergey/runtime-EclipseApplication/x86dev/lib/liblcs.a(tcp_util.o)
                0xffffffff80068d10                tcp_template
                0xffffffff80068d80                tcp_respond
                0xffffffff80068f20                tcp_drop
                0xffffffff80068fa0                tcp_init_cwnd
                0xffffffff80068fe0                tcp_mss
                0xffffffff80068ff0                tcp_process_options
                0xffffffff80069260                tcp_peeraddr
                0xffffffff800692d0                tcp_sockaddr
                0xffffffff80069330                tcp_ctloutput
                0xffffffff80069510                tcp_usr_recvcnt
                0xffffffff80069540                tcp_usr_cansend
                0xffffffff80069580                tcp_usr_sendsize
                0xffffffff800695b0                tcp_usr_recvsize
                0xffffffff800695e0                tcp_usr_conntimeout
                0xffffffff80069640                tcpip_cksum
 *fill*         0xffffffff800696f4        0xc 9090
 .text          0xffffffff80069700      0x41f /home/asergey/runtime-EclipseApplication/x86dev/lib/liblcs.a(igmp.o)
                0xffffffff80069910                igmp_init
                0xffffffff80069940                igmp_input
                0xffffffff80069aa0                igmp_joingroup
                0xffffffff80069b10                igmp_leavegroup
 *fill*         0xffffffff80069b1f        0x1 9090
 .text          0xffffffff80069b20     0x22f6 /home/asergey/runtime-EclipseApplication/x86dev/lib/liblcs.a(lcs_nux.o)
 *fill*         0xffffffff8006be16        0xa 9090
 .text          0xffffffff8006be20      0x8c7 /home/asergey/runtime-EclipseApplication/x86dev/lib/liblcs.a(ioctl.o)
                0xffffffff8006be20                ipv6_expander
                0xffffffff8006be90                lcssock_ioctl
 *fill*         0xffffffff8006c6e7        0x9 9090
 .text          0xffffffff8006c6f0      0x15c /home/asergey/runtime-EclipseApplication/x86dev/lib/liblcs.a(select.o)
                0xffffffff8006c6f0                soselect
 *fill*         0xffffffff8006c84c        0x4 9090
 .text          0xffffffff8006c850      0x43e /home/asergey/runtime-EclipseApplication/x86dev/lib/liblcs.a(sock.o)
                0xffffffff8006c850                sock_alloc
                0xffffffff8006ca90                sock_free
                0xffffffff8006cbb0                lcs_socket
 *fill*         0xffffffff8006cc8e        0x2 9090
 .text          0xffffffff8006cc90      0xc45 /home/asergey/runtime-EclipseApplication/x86dev/lib/liblcs.a(sock_raw.o)
                0xffffffff8006cda0                __prerr_invalid
                0xffffffff8006cdc0                __prerr_notconnected
                0xffffffff8006cde0                __prerr_notsupported_opt
                0xffffffff8006d820                add_to_raw_sockets
 *fill*         0xffffffff8006d8d5        0xb 9090
 .text          0xffffffff8006d8e0      0xb51 /home/asergey/runtime-EclipseApplication/x86dev/lib/liblcs.a(sock_udp.o)
 *fill*         0xffffffff8006e431        0xf 9090
 .text          0xffffffff8006e440     0x15f5 /home/asergey/runtime-EclipseApplication/x86dev/lib/liblcs.a(sock_tcp.o)
                0xffffffff8006e440                __tcp_fcntl
                0xffffffff8006e460                __tcp_attach
                0xffffffff8006e4d0                __tcp_getsockname
                0xffffffff8006e510                __tcp_connect
                0xffffffff8006e6c0                __tcp_bind
                0xffffffff8006e6f0                __tcp_send
                0xffffffff8006e900                __tcp_close
                0xffffffff8006ea70                __tcp_setsockopt
                0xffffffff8006ec90                __tcp_getpeername
                0xffffffff8006ed10                __tcp_recv
                0xffffffff8006eef0                __tcp_listen
                0xffffffff8006ef90                __tcp_getsockopt
                0xffffffff8006f180                __tcp_writable
                0xffffffff8006f1c0                __tcp_accept
                0xffffffff8006f350                __tcp_readable
                0xffffffff8006f400                get_connected_socket
                0xffffffff8006f470                soerror
                0xffffffff8006f4b0                socantrcvmore
                0xffffffff8006f500                socantsendmore
                0xffffffff8006f580                __tcp_shutdown
                0xffffffff8006f670                soisconnected
                0xffffffff8006f710                soisdisconnecting
                0xffffffff8006f770                soisconnecting
                0xffffffff8006f7b0                soisdisconnected
                0xffffffff8006f8b0                sonewconn
                0xffffffff8006f960                soabort
                0xffffffff8006f9e0                sousrcantrecvmore
                0xffffffff8006fa20                tcpLingerTimeout
 *fill*         0xffffffff8006fa35        0xb 9090
 .text          0xffffffff8006fa40      0x41e /home/asergey/runtime-EclipseApplication/x86dev/lib/liblcs.a(tmrchk.o)
                0xffffffff8006fa40                TmrAddToLinkList
                0xffffffff8006fb50                lcsTimersCheck
                0xffffffff8006fd20                GetTime
                0xffffffff8006fd90                lcsGetElapsedTime
 *fill*         0xffffffff8006fe5e        0x2 9090
 .text          0xffffffff8006fe60       0x8d /home/asergey/runtime-EclipseApplication/x86dev/lib/liblcs.a(tmrinit.o)
                0xffffffff8006fe60                TimersInit
 *fill*         0xffffffff8006feed        0x3 9090
 .text          0xffffffff8006fef0       0xc2 /home/asergey/runtime-EclipseApplication/x86dev/lib/liblcs.a(tmrscall.o)
                0xffffffff8006fef0                lcsTimerCall
 *fill*         0xffffffff8006ffb2        0xe 9090
 .text          0xffffffff8006ffc0      0x183 /home/asergey/runtime-EclipseApplication/x86dev/lib/liblcs.a(tmrset.o)
                0xffffffff8006ffc0                TmrGetFreeHandle
                0xffffffff80070070                lcsTimerSet
 *fill*         0xffffffff80070143        0xd 9090
 .text          0xffffffff80070150       0xeb /home/asergey/runtime-EclipseApplication/x86dev/lib/liblcs.a(tmrsrec.o)
                0xffffffff80070150                lcsTimerRecCall
 *fill*         0xffffffff8007023b        0x5 9090
 .text          0xffffffff80070240       0xc9 /home/asergey/runtime-EclipseApplication/x86dev/lib/liblcs.a(tmrstop.o)
                0xffffffff80070240                lcsTimerStop
 *fill*         0xffffffff80070309        0x7 9090
 .text          0xffffffff80070310      0x2d4 /home/asergey/runtime-EclipseApplication/x86dev/lib/liblcs.a(iorbcopy.o)
                0xffffffff80070310                IorbChainTruncate
                0xffffffff80070420                IorbChainDataLength
                0xffffffff80070450                IorbCopy
                0xffffffff80070540                IorbCopyChain
 *fill*         0xffffffff800705e4        0xc 9090
 .text          0xffffffff800705f0      0x118 /home/asergey/runtime-EclipseApplication/x86dev/lib/liblcs.a(iorbfree.o)
                0xffffffff80070630                IorbFree
 *fill*         0xffffffff80070708        0x8 9090
 .text          0xffffffff80070710      0x1ea /home/asergey/runtime-EclipseApplication/x86dev/lib/liblcs.a(bm_init.o)
                0xffffffff80070710                ReleaseBufferPool
                0xffffffff800707a0                InitializeBufferPool
 *fill*         0xffffffff800708fa        0x6 9090
 .text          0xffffffff80070900      0x142 /home/asergey/runtime-EclipseApplication/x86dev/lib/liblcs.a(iorbdup.o)
                0xffffffff80070990                IorbDup
 *fill*         0xffffffff80070a42        0xe 9090
 .text          0xffffffff80070a50      0x14b /home/asergey/runtime-EclipseApplication/x86dev/lib/liblcs.a(iorbget.o)
                0xffffffff80070a50                IorbGet
 *fill*         0xffffffff80070b9b        0x5 9090
 .text          0xffffffff80070ba0       0xc1 /home/asergey/runtime-EclipseApplication/x86dev/lib/liblcs.a(iorbunlk.o)
                0xffffffff80070ba0                IorbUnlinkAndFree
 *fill*         0xffffffff80070c61        0xf 9090
 .text          0xffffffff80070c70       0x8f /home/asergey/runtime-EclipseApplication/x86dev/lib/liblcs.a(iorbcs.o)
                0xffffffff80070c70                IorbChecksum
 *fill*         0xffffffff80070cff        0x1 9090
 .text          0xffffffff80070d00      0x3ea /home/asergey/runtime-EclipseApplication/x86dev/lib/liblcs.a(qsort.o)
                0xffffffff80070ff0                kqsort
                0xffffffff80071060                bsearch
 *fill*         0xffffffff800710ea        0x6 9090
 .text          0xffffffff800710f0      0x22d /home/asergey/runtime-EclipseApplication/x86dev/lib/liblcs.a(cksum.o)
                0xffffffff800710f0                in_cksum_partial
                0xffffffff80071220                in_cksum_fold
                0xffffffff80071240                in_cksum
                0xffffffff80071270                in_cksum_incremental
                0xffffffff800712a0                in6_pseudo
 *fill*         0xffffffff8007131d        0x3 9090
 .text          0xffffffff80071320       0x5e /home/asergey/runtime-EclipseApplication/x86dev/lib/liblcs.a(clntport.o)
                0xffffffff80071320                ClientPortNumber_Initialize
                0xffffffff80071340                GetNextClientPortNumber
 *fill*         0xffffffff8007137e        0x2 9090
 .text          0xffffffff80071380       0x68 /home/asergey/runtime-EclipseApplication/x86dev/lib/liblcs.a(hm.o)
                0xffffffff80071380                NodeSystemFault
 *fill*         0xffffffff800713e8        0x8 9090
 .text          0xffffffff800713f0      0x1c7 /home/asergey/runtime-EclipseApplication/x86dev/lib/liblcs.a(lcsprio.o)
                0xffffffff80071420                add_socket_prio
                0xffffffff800714a0                remove_socket_prio
                0xffffffff80071520                change_socket_prio
 *fill*         0xffffffff800715b7        0x9 9090
 .text          0xffffffff800715c0      0x1d9 /home/asergey/runtime-EclipseApplication/x86dev/lib/liblcs.a(uio_move.o)
                0xffffffff800715c0                uio_reset
                0xffffffff80071600                uio_move
                0xffffffff800716d0                uio_move_frombuf
 *fill*         0xffffffff80071799        0x7 9090
 .text          0xffffffff800717a0       0x4b /home/asergey/runtime-EclipseApplication/x86dev/lib/liblcs.a(psbdrop.o)
                0xffffffff800717a0                BufferDrop
 *fill*         0xffffffff800717eb        0x5 9090
 .text          0xffffffff800717f0       0xcc /home/asergey/runtime-EclipseApplication/x86dev/lib/liblcs.a(psbget.o)
                0xffffffff800717f0                BufferGet
 *fill*         0xffffffff800718bc        0x4 9090
 .text          0xffffffff800718c0       0x61 /home/asergey/runtime-EclipseApplication/x86dev/lib/liblcs.a(psbscap.o)
                0xffffffff800718c0                BufferSetCapacity
 *fill*         0xffffffff80071921        0xf 9090
 .text          0xffffffff80071930      0x1bb /home/asergey/runtime-EclipseApplication/x86dev/lib/liblcs.a(psbadd.o)
                0xffffffff80071930                CopyToBuffer
                0xffffffff80071a50                BufferAdd
 *fill*         0xffffffff80071aeb        0x5 9090
 .text          0xffffffff80071af0       0x25 /home/asergey/runtime-EclipseApplication/x86dev/lib/liblcs.a(psbspace.o)
                0xffffffff80071af0                BufferSpace
 *fill*         0xffffffff80071b15        0xb 9090
 .text          0xffffffff80071b20       0x24 /home/asergey/runtime-EclipseApplication/x86dev/lib/liblcs.a(psbcount.o)
                0xffffffff80071b20                BufferCount
 *fill*         0xffffffff80071b44        0xc 9090
 .text          0xffffffff80071b50        0x9 /home/asergey/runtime-EclipseApplication/x86dev/lib/liblcs.a(psbgcap.o)
                0xffffffff80071b50                BufferGetCapacity
 *fill*         0xffffffff80071b59        0x7 9090
 .text          0xffffffff80071b60      0x10d /home/asergey/runtime-EclipseApplication/x86dev/lib/liblcs.a(psbpeek.o)
                0xffffffff80071b60                BufferPeek
 *fill*         0xffffffff80071c6d        0x3 9090
 .text          0xffffffff80071c70      0x116 /home/asergey/runtime-EclipseApplication/x86dev/lib/liblcs.a(llmcast.o)
                0xffffffff80071c70                LldMcastBind
                0xffffffff80071d00                LinkLayerGroupOp
 *fill*         0xffffffff80071d86        0xa 9090
 .text          0xffffffff80071d90      0x56e /home/asergey/runtime-EclipseApplication/x86dev/lib/liblcs.a(lloutput.o)
                0xffffffff80072010                LinkLayerOutput
 *fill*         0xffffffff800722fe        0x2 9090
 .text          0xffffffff80072300      0x253 /home/asergey/runtime-EclipseApplication/x86dev/lib/liblcs.a(arpreq.o)
                0xffffffff80072300                arp_request
                0xffffffff80072480                arp_timeout
 *fill*         0xffffffff80072553        0xd 9090
 .text          0xffffffff80072560      0x296 /home/asergey/runtime-EclipseApplication/x86dev/lib/liblcs.a(arpsrch.o)
                0xffffffff80072560                ArpSearch
 *fill*         0xffffffff800727f6        0xa 9090
 .text          0xffffffff80072800       0xa0 /home/asergey/runtime-EclipseApplication/x86dev/lib/liblcs.a(udp_atch.o)
                0xffffffff80072800                udp_attach
 .text          0xffffffff800728a0       0x4c /home/asergey/runtime-EclipseApplication/x86dev/lib/liblcs.a(udp_bind.o)
                0xffffffff800728a0                udp_bind
 *fill*         0xffffffff800728ec        0x4 9090
 .text          0xffffffff800728f0       0x5e /home/asergey/runtime-EclipseApplication/x86dev/lib/liblcs.a(udp_conn.o)
                0xffffffff800728f0                udp_connect
 *fill*         0xffffffff8007294e        0x2 9090
 .text          0xffffffff80072950       0x38 /home/asergey/runtime-EclipseApplication/x86dev/lib/liblcs.a(udp_dtch.o)
                0xffffffff80072950                udp_detach
 *fill*         0xffffffff80072988        0x8 9090
 .text          0xffffffff80072990      0x3bf /home/asergey/runtime-EclipseApplication/x86dev/lib/liblcs.a(udp_inpt.o)
                0xffffffff80072990                __data_sorecv
                0xffffffff80072a70                udp_input
 *fill*         0xffffffff80072d4f        0x1 9090
 .text          0xffffffff80072d50      0x180 /home/asergey/runtime-EclipseApplication/x86dev/lib/liblcs.a(udp_pcb.o)
                0xffffffff80072d50                GetPCBbySocket
                0xffffffff80072e00                MatchBroadcastMulticastPCB6
 .text          0xffffffff80072ed0       0x93 /home/asergey/runtime-EclipseApplication/x86dev/lib/liblcs.a(udp_peer.o)
                0xffffffff80072ed0                udp_peeraddr
 *fill*         0xffffffff80072f63        0xd 9090
 .text          0xffffffff80072f70       0x84 /home/asergey/runtime-EclipseApplication/x86dev/lib/liblcs.a(udp_sock.o)
                0xffffffff80072f70                udp_sockaddr
 *fill*         0xffffffff80072ff4        0xc 9090
 .text          0xffffffff80073000      0x29c /home/asergey/runtime-EclipseApplication/x86dev/lib/liblcs.a(udp6_input.o)
                0xffffffff80073000                udp6_input
 *fill*         0xffffffff8007329c        0x4 9090
 .text          0xffffffff800732a0      0x2bc /home/asergey/runtime-EclipseApplication/x86dev/lib/liblcs.a(udp6_out.o)
                0xffffffff800732a0                udp6_output
 *fill*         0xffffffff8007355c        0x4 9090
 .text          0xffffffff80073560       0x82 /home/asergey/runtime-EclipseApplication/x86dev/lib/liblcs.a(udp_disc.o)
                0xffffffff80073560                udp_disconnect
 *fill*         0xffffffff800735e2        0xe 9090
 .text          0xffffffff800735f0      0x1ec /home/asergey/runtime-EclipseApplication/x86dev/lib/liblcs.a(udp_out.o)
                0xffffffff800735f0                udp_output
 *fill*         0xffffffff800737dc        0x4 9090
 .text          0xffffffff800737e0       0xdf /home/asergey/runtime-EclipseApplication/x86dev/lib/liblcs.a(udp_util.o)
                0xffffffff800737e0                udp_ctloutput
                0xffffffff80073860                udp_recompute_checksum
 *fill*         0xffffffff800738bf        0x1 9090
 .text          0xffffffff800738c0      0x274 /home/asergey/runtime-EclipseApplication/x86dev/lib/liblcs.a(icmp6_in.o)
                0xffffffff800738c0                icmp6_input
 *fill*         0xffffffff80073b34        0xc 9090
 .text          0xffffffff80073b40      0x26c /home/asergey/runtime-EclipseApplication/x86dev/lib/liblcs.a(icmp6_error.o)
                0xffffffff80073d70                icmp6_error
 *fill*         0xffffffff80073dac        0x4 9090
 .text          0xffffffff80073db0      0x2bf /home/asergey/runtime-EclipseApplication/x86dev/lib/liblcs.a(in6_pbind.o)
                0xffffffff80073db0                in6_pcbbind
 *fill*         0xffffffff8007406f        0x1 9090
 .text          0xffffffff80074070      0x2dd /home/asergey/runtime-EclipseApplication/x86dev/lib/liblcs.a(in6_pcon.o)
                0xffffffff80074070                in6_pcbconnect
 *fill*         0xffffffff8007434d        0x3 9090
 .text          0xffffffff80074350      0x3d8 /home/asergey/runtime-EclipseApplication/x86dev/lib/liblcs.a(in6_plook.o)
                0xffffffff80074350                in6_locate_pcb
 *fill*         0xffffffff80074728        0x8 9090
 .text          0xffffffff80074730      0x420 /home/asergey/runtime-EclipseApplication/x86dev/lib/liblcs.a(in6_util.o)
                0xffffffff80074790                in6_setpeeraddr
                0xffffffff800747f0                in6_setsockaddr
                0xffffffff80074850                in6_multicast_sort
                0xffffffff80074870                in6_lookup_multi_pcb
                0xffffffff800748e0                in6_lookup_multi
                0xffffffff80074920                in6_PrimaryIf
                0xffffffff800749a0                in6_GetIfAddr
                0xffffffff80074a20                in6_SetSourceAddress
 .text          0xffffffff80074b50      0x957 /home/asergey/runtime-EclipseApplication/x86dev/lib/liblcs.a(ip6_outpt.o)
                0xffffffff80074d80                ip6_output
 *fill*         0xffffffff800754a7        0x9 9090
 .text          0xffffffff800754b0      0x28f /home/asergey/runtime-EclipseApplication/x86dev/lib/liblcs.a(in_pcon.o)
                0xffffffff800754b0                in_pcbconnect
 *fill*         0xffffffff8007573f        0x1 9090
 .text          0xffffffff80075740      0xce8 /home/asergey/runtime-EclipseApplication/x86dev/lib/liblcs.a(in_route.o)
                0xffffffff800757e0                find_free_rtentry
                0xffffffff80075870                add_rt_entry
                0xffffffff80075a10                del_rt_entry
                0xffffffff80075bb0                in_RTLookup
                0xffffffff80075ff0                fill_rte
 *fill*         0xffffffff80076428        0x8 9090
 .text          0xffffffff80076430      0x34c /home/asergey/runtime-EclipseApplication/x86dev/lib/liblcs.a(ip_ctlo.o)
                0xffffffff80076430                ip_ctloutput
 *fill*         0xffffffff8007677c        0x4 9090
 .text          0xffffffff80076780      0x90d /home/asergey/runtime-EclipseApplication/x86dev/lib/liblcs.a(ip_outpt.o)
                0xffffffff80076980                ip_output
 *fill*         0xffffffff8007708d        0x3 9090
 .text          0xffffffff80077090      0x2ab /home/asergey/runtime-EclipseApplication/x86dev/lib/liblcs.a(tcp_atch.o)
                0xffffffff80077090                tcp_usr_attach
 *fill*         0xffffffff8007733b        0x5 9090
 .text          0xffffffff80077340      0x267 /home/asergey/runtime-EclipseApplication/x86dev/lib/liblcs.a(tcp_clse.o)
                0xffffffff80077340                tcp_close
                0xffffffff800774e0                tcp_usrclosed
 *fill*         0xffffffff800775a7        0x9 9090
 .text          0xffffffff800775b0      0x1dd /home/asergey/runtime-EclipseApplication/x86dev/lib/liblcs.a(tcp_disc.o)
                0xffffffff80077660                tcp_usr_disconnect
                0xffffffff800776d0                tcp_usr_detach
 *fill*         0xffffffff8007778d        0x3 9090
 .text          0xffffffff80077790       0x7b /home/asergey/runtime-EclipseApplication/x86dev/lib/liblcs.a(tcp_bind.o)
                0xffffffff80077790                tcp_usr_bind
 *fill*         0xffffffff8007780b        0x5 9090
 .text          0xffffffff80077810      0x24a /home/asergey/runtime-EclipseApplication/x86dev/lib/liblcs.a(tcp_conn.o)
                0xffffffff80077810                tcp_connect
                0xffffffff80077950                tcp_usr_connect
 *fill*         0xffffffff80077a5a        0x6 9090
 .text          0xffffffff80077a60       0x63 /home/asergey/runtime-EclipseApplication/x86dev/lib/liblcs.a(tcp_lstn.o)
                0xffffffff80077a60                tcp_usr_listen
 *fill*         0xffffffff80077ac3        0xd 9090
 .text          0xffffffff80077ad0     0x3667 /home/asergey/runtime-EclipseApplication/x86dev/lib/libnfs_client.a(nfs_file_open.o)
                0xffffffff80077ad0                nfs_get_attributes
                0xffffffff80077b20                nfs_refresh_stat
                0xffffffff80077c30                nfs_find_entry
                0xffffffff80077d10                nfs_find_dotdot
                0xffffffff80077db0                nfs_move_attr
                0xffffffff80077e50                nfs_setup_inode
                0xffffffff80078070                nfs_trunc_inode
                0xffffffff800781d0                nfs_update_mode
                0xffffffff80078340                nfs_change_owner
                0xffffffff800784b0                nfs_update_times
                0xffffffff80078620                nfs_write_inode
                0xffffffff800787c0                nfs_create_sattr
                0xffffffff80078830                nfs_create_link
                0xffffffff80078950                nfs_getnewinode
                0xffffffff80078ac0                nfs_create_symlink
                0xffffffff80078cf0                nfs_create_node
                0xffffffff80078eb0                nfs_readsymlink
                0xffffffff80078f20                nfs_getparent
                0xffffffff80078fe0                nfs_getparent1
                0xffffffff80079090                nfs_check_protection
                0xffffffff80079100                nfs_file_open
                0xffffffff800794b0                nfs_sysv_statfs
                0xffffffff80079570                nfs_remove_file
                0xffffffff80079600                nfs_freeup_inode
                0xffffffff80079720                nfs_find_file
                0xffffffff80079f10                nfs_itoa
                0xffffffff80079f60                nfs_get_tempname
                0xffffffff80079ff0                nfs_make_temp
                0xffffffff8007a1e0                nfs_unlink_file
                0xffffffff8007a210                nfs_remove_dir
                0xffffffff8007a2b0                nfs_rename_proc
                0xffffffff8007a370                nfs_rename
                0xffffffff8007a590                nfs_readlink
                0xffffffff8007a670                nfs_read
                0xffffffff8007a870                nfs_write
                0xffffffff8007ab50                nfs_seek
                0xffffffff8007acc0                nfs_close
                0xffffffff8007add0                nfs_ioctl
                0xffffffff8007ae40                nfs_getdents
 .text          0xffffffff8007b137        0x0 /home/asergey/runtime-EclipseApplication/x86dev/lib/libnfs_client.a(nfsinfo.o)
 *fill*         0xffffffff8007b137        0x9 9090
 .text          0xffffffff8007b140      0x793 /home/asergey/runtime-EclipseApplication/x86dev/lib/libnfs_client.a(nfs_inode.o)
                0xffffffff8007b140                initcnfsnodes
                0xffffffff8007b380                addbytes
                0xffffffff8007b3c0                nfsid_cmp
                0xffffffff8007b3f0                getcnfsnode
                0xffffffff8007b4d0                freenfshead
                0xffffffff8007b510                nfs_free_mtpthead
                0xffffffff8007b580                freecnfsnode
                0xffffffff8007b700                nfshead_insert
                0xffffffff8007b760                newcnfsnode
                0xffffffff8007b7e0                countcnfsnodes
 *fill*         0xffffffff8007b8d3        0xd 9090
 .text          0xffffffff8007b8e0     0x1acb /home/asergey/runtime-EclipseApplication/x86dev/lib/libnfs_client.a(unfs_driver.o)
                0xffffffff8007b8e0                unfs_install
                0xffffffff8007ba80                unfs_open
                0xffffffff8007bbb0                unfs_close
                0xffffffff8007bc50                close_unfs
                0xffffffff8007bd20                unfs_ioctl
                0xffffffff8007be80                unfs_select
                0xffffffff8007bea0                unfs_build_arg
                0xffffffff8007c200                unfs_read
                0xffffffff8007c310                unfs_setup_res
                0xffffffff8007c340                unfs_freeport
                0xffffffff8007c390                unfs_getport
                0xffffffff8007c420                unfs_put_req
                0xffffffff8007c480                unfs_get_req
                0xffffffff8007c4f0                set_unfs_prio
                0xffffffff8007c600                unfs_add_iotask_priority
                0xffffffff8007c670                unfs_remove_iotask_priority
                0xffffffff8007c6e0                unfs_setprio
                0xffffffff8007c720                nfs_splfs_register
                0xffffffff8007c8b0                nfs_splfs_unregister
                0xffffffff8007c970                nfs_splfs_mount
                0xffffffff8007ca10                nfs_splfs_umount
                0xffffffff8007cac0                unfs_move_readdir
                0xffffffff8007cb70                unfs_build_res
                0xffffffff8007cd30                unfs_write
                0xffffffff8007ce00                unfs_exec_io
                0xffffffff8007d1f0                unfs_reqcall
                0xffffffff8007d310                nfs_proc_exec
                0xffffffff8007d370                nfs_getgrpcnt
                0xffffffff8007d390                nfs_getgrpptr
 *fill*         0xffffffff8007d3ab        0x5 9090
 .text          0xffffffff8007d3b0      0x90e /home/asergey/runtime-EclipseApplication/x86dev/lib/libnfs_client.a(nfs_mount.o)
                0xffffffff8007d3b0                nfs_cache_not_configured
                0xffffffff8007d3d0                nfsumount
                0xffffffff8007d4b0                nfs_setup_opt
                0xffffffff8007d6c0                nfsmount
                0xffffffff8007dc20                nfs_getsize
                0xffffffff8007dc50                print_nfs_opt
 *fill*         0xffffffff8007dcbe        0x2 9090
 .text          0xffffffff8007dcc0      0x138 /home/asergey/runtime-EclipseApplication/x86dev/lib/libptrace_x86_64.a(ptrace_ctx.o)
                0xffffffff8007dcc0                set_usr_econtext
                0xffffffff8007dde0                set_usr_fcontext
 *fill*         0xffffffff8007ddf8        0x8 9090
 .text          0xffffffff8007de00       0xbb /home/asergey/runtime-EclipseApplication/x86dev/lib/libptrace_x86_64.a(ptrace_dbg_ctx.o)
                0xffffffff8007de00                save_debugregs
                0xffffffff8007de30                load_debugregs
                0xffffffff8007de60                clear_debugregs
                0xffffffff8007de70                ptrace_getdaddr
 *fill*         0xffffffff8007debb        0x5 9090
 .text          0xffffffff8007dec0     0x33b1 /home/asergey/runtime-EclipseApplication/x86dev/lib/libptrace.a(ptrace.o)
                0xffffffff8007f5f0                _get_econtext_pid
                0xffffffff8007f680                _set_econtext_pid
                0xffffffff8007f710                ptrace_resume
                0xffffffff8007fc90                find_dup
                0xffffffff8007fcc0                free_all_dup
                0xffffffff8007fd40                dup_page
                0xffffffff800811c0                ptrace_attach
 *fill*         0xffffffff80081271        0xf 9090
 .text          0xffffffff80081280      0x335 /home/asergey/runtime-EclipseApplication/x86dev/lib/libptrace.a(ptrace_child.o)
                0xffffffff80081280                ptrace_childread
                0xffffffff800813c0                ptrace_childwrite
 *fill*         0xffffffff800815b5        0xb 9090
 .text          0xffffffff800815c0       0x70 /home/asergey/runtime-EclipseApplication/x86dev/lib/libptrace.a(ptrace_fctx.o)
                0xffffffff800815c0                fp_save
 .text          0xffffffff80081630       0x8e /home/asergey/runtime-EclipseApplication/x86dev/lib/libptrace.a(ptrace_kill.o)
                0xffffffff80081630                continue_threads
 *fill*         0xffffffff800816be        0x2 9090
 .text          0xffffffff800816c0      0x4c0 /home/asergey/runtime-EclipseApplication/x86dev/lib/libptrace.a(ptrace_tde.o)
                0xffffffff80081850                excl_tde
                0xffffffff80081a00                dup_tde
 .text          0xffffffff80081b80      0xc7c /home/asergey/runtime-EclipseApplication/x86dev/lib/libdrm.a(drm.o)
                0xffffffff80081dc0                drm_init
                0xffffffff80081f30                drm_rescan
                0xffffffff80081fc0                drm_next_node
                0xffffffff80081ff0                drm_get_handle
                0xffffffff800820d0                drm_get_handle2
                0xffffffff800821a0                drm_find_handle
                0xffffffff80082260                drm_free_handle
                0xffffffff800822d0                drm_register_isr
                0xffffffff80082350                drm_map_resource
                0xffffffff800823a0                drm_map_resource_ext
                0xffffffff800823f0                drm_flush_resource
                0xffffffff80082450                drm_device_read
                0xffffffff80082490                drm_device_write
                0xffffffff800824d0                drm_alloc_node
                0xffffffff80082550                drm_find_bus_type
                0xffffffff800825a0                drm_getroot
                0xffffffff800825c0                drm_getchild
                0xffffffff80082600                drm_getsibling
                0xffffffff80082640                drm_getparent
                0xffffffff80082680                drm_getnode
                0xffffffff80082780                drm_select_subtree
                0xffffffff800827c0                drm_alloc_resource
 *fill*         0xffffffff800827fc        0x4 9090
 .text          0xffffffff80082800     0x282d /home/asergey/runtime-EclipseApplication/x86dev/lib/libdrm.a(pcibus.o)
                0xffffffff80082800                pcibus_alloc_res_bus
                0xffffffff80082810                pci_flush_resource
                0xffffffff800828f0                pcibus_msi_alloc_msgs
                0xffffffff80082da0                pcimap_resource
                0xffffffff80082dd0                pcibuslayer_init
                0xffffffff80083170                pciwrite_device
                0xffffffff80083570                pcibus_alloc_res_dev
                0xffffffff80083910                pcibus_busnode_init
                0xffffffff80083a30                pciread_device
                0xffffffff80083d10                pcibus_msi_register_isr
                0xffffffff800843e0                pcibuslayer_finalize
                0xffffffff800846f0                print_pci_node
                0xffffffff80084730                pci_confread
                0xffffffff80084770                pci_alloc_node
                0xffffffff800847b0                pci_get_class
                0xffffffff80084800                pci_get_subclass
                0xffffffff80084850                pcifind_child
 *fill*         0xffffffff8008502d        0x3 9090
 .text          0xffffffff80085030       0xdb /home/asergey/runtime-EclipseApplication/x86dev/lib/libdrm.a(sysbus.o)
                0xffffffff80085030                sysbuslayer_init
                0xffffffff80085040                sysbus_busnode_init
                0xffffffff80085050                sysfind_child
                0xffffffff80085080                sysmap_addrid
                0xffffffff80085090                sysflush_resource
                0xffffffff800850a0                sysbus_msi_register_isr
                0xffffffff800850b0                sysbus_msi_alloc_msgs
                0xffffffff800850c0                sysbuslayer_finalize
                0xffffffff800850d0                sysbus_alloc_res_bus
                0xffffffff800850e0                sysbus_alloc_res_dev
                0xffffffff800850f0                sysread_device
                0xffffffff80085100                syswrite_device
 *fill*         0xffffffff8008510b        0x5 9090
 .text          0xffffffff80085110      0x30a /home/asergey/runtime-EclipseApplication/x86dev/lib/libdrm.a(drm_sysctl.o)
                0xffffffff800853b0                sysctl_drm_install
 *fill*         0xffffffff8008541a        0x6 9090
 .text          0xffffffff80085420      0x621 /home/asergey/runtime-EclipseApplication/x86dev/lib/libdrm.a(pci_sysctl.o)
                0xffffffff80085a30                sysctl_drm_pci_install
 *fill*         0xffffffff80085a41        0xf 9090
 .text          0xffffffff80085a50      0x63c /home/asergey/runtime-EclipseApplication/x86dev/lib/libdrm.a(bios_pcialloc.o)
                0xffffffff80085a60                bios_pcialloc_busno
 *fill*         0xffffffff8008608c        0x4 9090
 .text          0xffffffff80086090     0x18d5 /home/asergey/runtime-EclipseApplication/x86dev/lib/libkernel.a(bread.o)
                0xffffffff80086090                binsert
                0xffffffff800860d0                bremove
                0xffffffff80086130                avinsert
                0xffffffff80086230                initcache
                0xffffffff80086420                avremove
                0xffffffff800864a0                incache
                0xffffffff800864e0                bforget
                0xffffffff800865e0                brelse
                0xffffffff80086650                bawrite
                0xffffffff800866a0                getblk
                0xffffffff80086b90                bread
                0xffffffff80086c20                newcblk
                0xffffffff80087030                breada
                0xffffffff80087360                bdwrite
                0xffffffff800873f0                bwrite
                0xffffffff80087460                bhwrite
                0xffffffff800874c0                sync_blocks
                0xffffffff80087620                cache_out
                0xffffffff80087820                cb_clean
 *fill*         0xffffffff80087965        0xb 9090
 .text          0xffffffff80087970      0x568 /home/asergey/runtime-EclipseApplication/x86dev/lib/libkernel.a(chread.o)
                0xffffffff80087970                chread
                0xffffffff80087a40                chwrite
                0xffffffff80087b10                chclose
                0xffffffff80087bf0                chioctl
                0xffffffff80087c20                chselect
                0xffffffff80087c50                chopen
 *fill*         0xffffffff80087ed8        0x8 9090
 .text          0xffffffff80087ee0      0x8a1 /home/asergey/runtime-EclipseApplication/x86dev/lib/libkernel.a(ddread.o)
                0xffffffff80087ee0                ddread
                0xffffffff800880b0                ddwrite
                0xffffffff800882e0                bdev_wbsize
                0xffffffff80088300                ddopen
                0xffffffff80088450                ddclose
                0xffffffff80088530                ddioctl
                0xffffffff80088570                close_bdevs
                0xffffffff80088630                reopen_bdevs
 *fill*         0xffffffff80088781        0xf 9090
 .text          0xffffffff80088790      0xe29 /home/asergey/runtime-EclipseApplication/x86dev/lib/libkernel.a(deliver.o)
                0xffffffff80088790                sig_fdcheck
                0xffffffff80088850                sig_fdclear
                0xffffffff80088a50                deliver
                0xffffffff80089500                sig_rewind
 *fill*         0xffffffff800895b9        0x7 9090
 .text          0xffffffff800895c0      0x9d8 /home/asergey/runtime-EclipseApplication/x86dev/lib/libkernel.a(dfread.o)
                0xffffffff800895c0                dfread
                0xffffffff80089900                dfwrite
                0xffffffff80089c70                dflseek
                0xffffffff80089df0                dfclose
                0xffffffff80089e30                dfioctl
                0xffffffff80089ed0                getblkp
                0xffffffff80089ee0                wgetblkp
                0xffffffff80089ef0                ffsync
 *fill*         0xffffffff80089f98        0x8 9090
 .text          0xffffffff80089fa0      0x5ca /home/asergey/runtime-EclipseApplication/x86dev/lib/libkernel.a(environ.o)
                0xffffffff8008a160                init_kenv
                0xffffffff8008a180                ksetenv
                0xffffffff8008a290                pre_ksetenv
                0xffffffff8008a370                kgetenv
                0xffffffff8008a480                kprintenv
 *fill*         0xffffffff8008a56a        0x6 9090
 .text          0xffffffff8008a570      0x1bf /home/asergey/runtime-EclipseApplication/x86dev/lib/libkernel.a(exception.o)
                0xffffffff8008a570                icatch
                0xffffffff8008a5c0                excp_init
                0xffffffff8008a610                trap_register
                0xffffffff8008a640                trap_unregister
                0xffffffff8008a670                excp_dispatch
 *fill*         0xffffffff8008a72f        0x1 9090
 .text          0xffffffff8008a730      0x9a6 /home/asergey/runtime-EclipseApplication/x86dev/lib/libkernel.a(exit.o)
                0xffffffff8008a730                killemall
                0xffffffff8008a8d0                xkill
                0xffffffff8008b090                _exit
 *fill*         0xffffffff8008b0d6        0xa 9090
 .text          0xffffffff8008b0e0     0x153b /home/asergey/runtime-EclipseApplication/x86dev/lib/libkernel.a(fast_ada.o)
                0xffffffff8008b260                fsem_detachr
                0xffffffff8008b300                fast_info_init
                0xffffffff8008b450                fast_enable_preemption
                0xffffffff8008b4b0                _fast_info_attach
                0xffffffff8008b5d0                fast_cleanup
                0xffffffff8008b810                fast_sem_get
                0xffffffff8008b840                unnamed_fast_sem_get
                0xffffffff8008b8f0                fast_sem_delete
                0xffffffff8008b910                unnamed_fast_sem_delete
                0xffffffff8008b930                fast_mutex_reinit
                0xffffffff8008ba40                _fast_csem_set
                0xffffffff8008bb50                fast_csem_set
                0xffffffff8008bfb0                _fast_sem_wait
                0xffffffff8008bfd0                _fast_sem_twait
                0xffffffff8008bff0                _fast_sem_signal
                0xffffffff8008c1e0                _fast_csem_wait
                0xffffffff8008c4a0                _fast_csem_signal
 *fill*         0xffffffff8008c61b        0x5 9090
 .text          0xffffffff8008c620     0x166a /home/asergey/runtime-EclipseApplication/x86dev/lib/libkernel.a(file_open.o)
                0xffffffff8008c620                find_entry
                0xffffffff8008c6e0                f_len
                0xffffffff8008c720                getdents
                0xffffffff8008c830                remove_entry
                0xffffffff8008c840                make_entry
                0xffffffff8008c8e0                make_inode
                0xffffffff8008c940                trunc_inode
                0xffffffff8008c950                trunc2inode
                0xffffffff8008c970                freeup_inode
                0xffffffff8008caf0                setup_inode
                0xffffffff8008cd10                find_file
                0xffffffff8008d3d0                inode_open
                0xffffffff8008d680                file_open
 *fill*         0xffffffff8008dc8a        0x6 9090
 .text          0xffffffff8008dc90      0x276 /home/asergey/runtime-EclipseApplication/x86dev/lib/libkernel.a(fpcontext.o)
                0xffffffff8008dc90                fp_initialize
                0xffffffff8008dcd0                fp_new
                0xffffffff8008dd40                fp_context_switch
                0xffffffff8008ddc0                fp_copy
                0xffffffff8008de10                fp_copy_to
                0xffffffff8008de90                fp_copy_from
                0xffffffff8008df00                fp_force_off
 *fill*         0xffffffff8008df06        0xa 9090
 .text          0xffffffff8008df10      0x265 /home/asergey/runtime-EclipseApplication/x86dev/lib/libkernel.a(get_freefile.o)
                0xffffffff8008df10                get_freefile
                0xffffffff8008dfa0                init_ffiles
                0xffffffff8008e070                freefile
                0xffffffff8008e0c0                freeup_file
 *fill*         0xffffffff8008e175        0xb 9090
 .text          0xffffffff8008e180     0x104f /home/asergey/runtime-EclipseApplication/x86dev/lib/libkernel.a(getmem.o)
                0xffffffff8008e600                mem_init
                0xffffffff8008e890                get1page
                0xffffffff8008e9b0                firstpage
                0xffffffff8008e9c0                make_mempty
                0xffffffff8008e9e0                is_mempty
                0xffffffff8008e9f0                free1page
                0xffffffff8008eac0                get_pages
                0xffffffff8008eae0                free_pages
                0xffffffff8008eb00                append_mblock
                0xffffffff8008eb80                dup_mblock
                0xffffffff8008ed40                getmem
                0xffffffff8008ee30                freemem
                0xffffffff8008ee80                mem_lock
                0xffffffff8008ee90                mem_unlock
                0xffffffff8008eea0                get_cpages
                0xffffffff8008f150                alloc_cmem
                0xffffffff8008f190                free_cmem
 *fill*         0xffffffff8008f1cf        0x1 9090
 .text          0xffffffff8008f1d0      0x6c5 /home/asergey/runtime-EclipseApplication/x86dev/lib/libkernel.a(getrusage.o)
                0xffffffff8008f1d0                _getrusage
                0xffffffff8008f3a0                sumrusage
                0xffffffff8008f420                getrusage
                0xffffffff8008f440                getrlimit
                0xffffffff8008f590                setrlimit
 *fill*         0xffffffff8008f895        0xb 9090
 .text          0xffffffff8008f8a0       0xd8 /home/asergey/runtime-EclipseApplication/x86dev/lib/libkernel.a(hm_except.o)
                0xffffffff8008f8a0                khm_post
 *fill*         0xffffffff8008f978        0x8 9090
 .text          0xffffffff8008f980      0x5b1 /home/asergey/runtime-EclipseApplication/x86dev/lib/libkernel.a(hwmarks.o)
                0xffffffff8008f980                maximum_resource
                0xffffffff8008f9b0                exceeded_resource
                0xffffffff8008fcd0                update_resource
                0xffffffff8008fd40                init_VM_hwmarks
                0xffffffff8008ff10                get_res_usage
 *fill*         0xffffffff8008ff31        0xf 9090
 .text          0xffffffff8008ff40      0x47f /home/asergey/runtime-EclipseApplication/x86dev/lib/libkernel.a(initdrivers.o)
                0xffffffff8008ff40                initdrivers
 *fill*         0xffffffff800903bf        0x1 9090
 .text          0xffffffff800903c0      0x762 /home/asergey/runtime-EclipseApplication/x86dev/lib/libkernel.a(inode.o)
                0xffffffff800903c0                initcinodes
                0xffffffff80090630                getcinode
                0xffffffff80090680                free_mtpthead
                0xffffffff800906f0                freecinode
                0xffffffff80090830                ihead_insert
                0xffffffff80090870                newcinode
                0xffffffff80090960                countcinodes
                0xffffffff80090a10                free_inode
                0xffffffff80090a20                new_inode
                0xffffffff80090a30                read_inode
                0xffffffff80090a40                write_inode
                0xffffffff80090a50                sync_inodes
 *fill*         0xffffffff80090b22        0xe 9090
 .text          0xffffffff80090b30      0x4de /home/asergey/runtime-EclipseApplication/x86dev/lib/libkernel.a(ioint.o)
                0xffffffff80090b50                excp_ioinit
                0xffffffff80090c50                iointset
                0xffffffff80090d20                iointclr
                0xffffffff80090dc0                ioint_link
                0xffffffff80090e00                excp_ioint
                0xffffffff80090ee0                excp_iodeliver
                0xffffffff80090fd0                excp_iodispatch
 *fill*         0xffffffff8009100e        0x2 9090
 .text          0xffffffff80091010      0x289 /home/asergey/runtime-EclipseApplication/x86dev/lib/libkernel.a(kern_syms.o)
                0xffffffff80091010                initsymbols
                0xffffffff80091090                kern_symbol
                0xffffffff80091150                kern_closest_symbol
 *fill*         0xffffffff80091299        0x7 9090
 .text          0xffffffff800912a0      0xc0b /home/asergey/runtime-EclipseApplication/x86dev/lib/libkernel.a(kprintf.o)
                0xffffffff800912a0                kkputc
                0xffffffff80091430                sputc
                0xffffffff80091470                skputc
                0xffffffff800914d0                kkprintf_hook
                0xffffffff800914e0                skdb_hook
                0xffffffff80091500                skgetc
                0xffffffff80091530                _doprnt
                0xffffffff80091ce0                kkprintf
                0xffffffff80091d60                skprintf
                0xffffffff80091dc0                ksnprintf
                0xffffffff80091e50                ksprintf
 *fill*         0xffffffff80091eab        0x5 9090
 .text          0xffffffff80091eb0       0xf3 /home/asergey/runtime-EclipseApplication/x86dev/lib/libkernel.a(globswap.o)
                0xffffffff80091eb0                Allocate_Global_VM_Pages
                0xffffffff80091f00                Swap_Global_Page
                0xffffffff80091f50                Init_Global_Memory
 *fill*         0xffffffff80091fa3        0xd 9090
 .text          0xffffffff80091fb0      0xbce /home/asergey/runtime-EclipseApplication/x86dev/lib/libkernel.a(lockf.o)
                0xffffffff80091fb0                null_nfs_lockf
                0xffffffff800920f0                null_nfs_lockf_close
                0xffffffff80092110                init_lockf
                0xffffffff80092290                testit
                0xffffffff80092380                lockit
                0xffffffff80092780                unlockit
                0xffffffff80092a90                lockf_close
 *fill*         0xffffffff80092b7e        0x2 9090
 .text          0xffffffff80092b80     0x5574 /home/asergey/runtime-EclipseApplication/x86dev/lib/libkernel.a(lynxfs.o)
                0xffffffff80098080                lynxfs_install
 *fill*         0xffffffff800980f4        0xc 9090
 .text          0xffffffff80098100      0x581 /home/asergey/runtime-EclipseApplication/x86dev/lib/libkernel.a(main.o)
                0xffffffff80098230                lynxos_main
 *fill*         0xffffffff80098681        0xf 9090
 .text          0xffffffff80098690      0x158 /home/asergey/runtime-EclipseApplication/x86dev/lib/libkernel.a(map_kernel_am.o)
                0xffffffff80098690                map_kernel
 *fill*         0xffffffff800987e8        0x8 9090
 .text          0xffffffff800987f0      0x688 /home/asergey/runtime-EclipseApplication/x86dev/lib/libkernel.a(mem_map.o)
                0xffffffff800987f0                mmchainjob
                0xffffffff80098950                mmchain
                0xffffffff80098970                get_phys
                0xffffffff800989a0                mem_unmap
                0xffffffff80098a40                mem_map
                0xffffffff80098bc0                permap_add
                0xffffffff80098c90                __kmmap
                0xffffffff80098dc0                kvtop
 *fill*         0xffffffff80098e78        0x8 9090
 .text          0xffffffff80098e80     0x22af /home/asergey/runtime-EclipseApplication/x86dev/lib/libkernel.a(name_server.o)
                0xffffffff800992d0                init_name_server
                0xffffffff80099650                name_fdup
                0xffffffff80099710                name_fstat
                0xffffffff80099810                name_time_set
                0xffffffff80099900                name_open
                0xffffffff80099fc0                name_unlockall
                0xffffffff8009a050                name_close
                0xffffffff8009a170                name_closeall
                0xffffffff8009a320                name_shareall
                0xffffffff8009a410                name_unlink
                0xffffffff8009a5a0                name_fchmod
                0xffffffff8009a6b0                name_fchown
                0xffffffff8009a7e0                name_copy_uname
                0xffffffff8009a9a0                name_server
 *fill*         0xffffffff8009b12f        0x1 9090
 .text          0xffffffff8009b130       0x29 /home/asergey/runtime-EclipseApplication/x86dev/lib/libkernel.a(nux.o)
 *fill*         0xffffffff8009b159        0x7 9090
 .text          0xffffffff8009b160      0x25d /home/asergey/runtime-EclipseApplication/x86dev/lib/libkernel.a(osm.o)
                0xffffffff8009b160                __ctxsw_do_switch
                0xffffffff8009b1e0                __ctxsw_switch_while_pending
                0xffffffff8009b270                __osm_kern_to_user
                0xffffffff8009b2c0                __ctxsw_switch_if_allowed
                0xffffffff8009b300                __osm_intr_disable_op
                0xffffffff8009b320                __osm_intr_restore_op
                0xffffffff8009b360                __osm_ctxsw_disable_op
                0xffffffff8009b390                __osm_ctxsw_restore_op
 *fill*         0xffffffff8009b3bd        0x3 9090
 .text          0xffffffff8009b3c0      0x21e /home/asergey/runtime-EclipseApplication/x86dev/lib/libkernel.a(pagefault.o)
                0xffffffff8009b4e0                user_pagefault
                0xffffffff8009b520                kernel_pagefault
 *fill*         0xffffffff8009b5de        0x2 9090
 .text          0xffffffff8009b5e0      0x127 /home/asergey/runtime-EclipseApplication/x86dev/lib/libkernel.a(panic.o)
                0xffffffff8009b5e0                panic
                0xffffffff8009b707                end_panic
 *fill*         0xffffffff8009b707        0x9 9090
 .text          0xffffffff8009b710      0x1fc /home/asergey/runtime-EclipseApplication/x86dev/lib/libkernel.a(perm.o)
                0xffffffff8009b710                perm_read
                0xffffffff8009b790                perm_write
                0xffffffff8009b810                perm_dirsrch
                0xffffffff8009b890                perm_exec
 *fill*         0xffffffff8009b90c        0x4 9090
 .text          0xffffffff8009b910     0x160a /home/asergey/runtime-EclipseApplication/x86dev/lib/libkernel.a(pipe.o)
                0xffffffff8009b9a0                initfifos
                0xffffffff8009baa0                pwritev
                0xffffffff8009c020                pwrite
                0xffffffff8009c060                preadv
                0xffffffff8009c490                pread
                0xffffffff8009c4d0                pclose
                0xffffffff8009c740                pselect
                0xffffffff8009c820                plseek
                0xffffffff8009c840                pioctl
                0xffffffff8009c960                ppopen
                0xffffffff8009cbb0                ppconnect
                0xffffffff8009cc40                _pipe
                0xffffffff8009ce20                pipe
 *fill*         0xffffffff8009cf1a        0x6 9090
 .text          0xffffffff8009cf20      0x276 /home/asergey/runtime-EclipseApplication/x86dev/lib/libkernel.a(priot.o)
                0xffffffff8009cf20                priot_add
                0xffffffff8009cf80                priot_remove
                0xffffffff8009cff0                priot_max
                0xffffffff8009d010                priot_addn
                0xffffffff8009d0d0                priot_removen
 *fill*         0xffffffff8009d196        0xa 9090
 .text          0xffffffff8009d1a0      0x3f6 /home/asergey/runtime-EclipseApplication/x86dev/lib/libkernel.a(procinit.o)
                0xffffffff8009d1a0                __start_init
                0xffffffff8009d310                conf_init
                0xffffffff8009d450                init_nullpss
 *fill*         0xffffffff8009d596        0xa 9090
 .text          0xffffffff8009d5a0       0x80 /home/asergey/runtime-EclipseApplication/x86dev/lib/libkernel.a(reco.o)
                0xffffffff8009d5a0                noreco
                0xffffffff8009d5c0                recojmp
                0xffffffff8009d600                recoset
 .text          0xffffffff8009d620      0x4e7 /home/asergey/runtime-EclipseApplication/x86dev/lib/libkernel.a(resched.o)
                0xffffffff8009d620                __ctxsw_sched_thread
                0xffffffff8009dad0                yield
 *fill*         0xffffffff8009db07        0x9 9090
 .text          0xffffffff8009db10      0x68a /home/asergey/runtime-EclipseApplication/x86dev/lib/libkernel.a(rtimeset.o)
                0xffffffff8009db10                init_rtimer
                0xffffffff8009dbc0                timer_tick
                0xffffffff8009dc50                clock_sendralarm
                0xffffffff8009dd40                clock_rtimer_deq
                0xffffffff8009dd80                clock_rtimer_set
                0xffffffff8009dea0                clock_rgettime
                0xffffffff8009df40                rtimeremove
                0xffffffff8009dfd0                sendvalarm
                0xffffffff8009e000                sendpalarm
                0xffffffff8009e030                update_timers
 *fill*         0xffffffff8009e19a        0x6 9090
 .text          0xffffffff8009e1a0      0x475 /home/asergey/runtime-EclipseApplication/x86dev/lib/libkernel.a(sbrk.o)
                0xffffffff8009e1a0                more_stack
                0xffffffff8009e2e0                sbrk
                0xffffffff8009e580                oslsysbrk
 *fill*         0xffffffff8009e615        0xb 9090
 .text          0xffffffff8009e620     0x119e /home/asergey/runtime-EclipseApplication/x86dev/lib/libkernel.a(setpriority.o)
                0xffffffff8009e620                setprio
                0xffffffff8009e6c0                setpriority
                0xffffffff8009e9b0                getpriority
                0xffffffff8009eb40                _getpriority
                0xffffffff8009eb50                _getrpriority
                0xffffffff8009eb70                get_process_maxprio
                0xffffffff8009ec10                getpid
                0xffffffff8009ec20                getppid
                0xffffffff8009ec40                getuid
                0xffffffff8009ec60                geteuid
                0xffffffff8009ec80                setresuid
                0xffffffff8009ed50                setresgid
                0xffffffff8009ee70                getgid
                0xffffffff8009ee90                getegid
                0xffffffff8009eeb0                _getpgrp
                0xffffffff8009eed0                getpgrp
                0xffffffff8009ef60                group_in_use
                0xffffffff8009efc0                group_in_session
                0xffffffff8009f080                tty_sid
                0xffffffff8009f140                tty_acs
                0xffffffff8009f180                setsid
                0xffffffff8009f200                setpgrp
                0xffffffff8009f2c0                getsid
                0xffffffff8009f2e0                setpgid
                0xffffffff8009f470                uname
                0xffffffff8009f560                setgroups
                0xffffffff8009f6b0                getgroups
                0xffffffff8009f760                ingroup
 *fill*         0xffffffff8009f7be        0x2 9090
 .text          0xffffffff8009f7c0      0x3fe /home/asergey/runtime-EclipseApplication/x86dev/lib/libkernel.a(setscheduler.o)
                0xffffffff8009f7c0                setscheduler
                0xffffffff8009fac0                getscheduler
 *fill*         0xffffffff8009fbbe        0x2 9090
 .text          0xffffffff8009fbc0      0x6a1 /home/asergey/runtime-EclipseApplication/x86dev/lib/libkernel.a(stack.o)
                0xffffffff800a0020                sstk_new
                0xffffffff800a00b0                ustk_new
                0xffffffff800a0150                stk_free
                0xffffffff800a01d0                ustk_free
 *fill*         0xffffffff800a0261        0xf 9090
 .text          0xffffffff800a0270      0x99b /home/asergey/runtime-EclipseApplication/x86dev/lib/libkernel.a(stask.o)
                0xffffffff800a02b0                initst
                0xffffffff800a0380                st_alloc
                0xffffffff800a0410                st_free
                0xffffffff800a04b0                kthread_create
                0xffffffff800a0810                stremove
                0xffffffff800a0900                stsetprio
                0xffffffff800a09d0                stkill
                0xffffffff800a0aa0                stgetid
                0xffffffff800a0ac0                stgetprio
                0xffffffff800a0b00                stgetowner
                0xffffffff800a0b40                stsignal
                0xffffffff800a0b60                stdeliver
 *fill*         0xffffffff800a0c0b        0x5 9090
 .text          0xffffffff800a0c10        0x8 /home/asergey/runtime-EclipseApplication/x86dev/lib/libkernel.a(stopcpu.o)
                0xffffffff800a0c10                stopcpu
 *fill*         0xffffffff800a0c18        0x8 9090
 .text          0xffffffff800a0c20     0x11a0 /home/asergey/runtime-EclipseApplication/x86dev/lib/libkernel.a(swait.o)
                0xffffffff800a0c20                sreset
                0xffffffff800a0cd0                scount
                0xffffffff800a0d80                set_eff_prio
                0xffffffff800a0f80                pi_replace
                0xffffffff800a1080                swait
                0xffffffff800a1460                unswait
                0xffffffff800a1610                pi_pass
                0xffffffff800a1700                ssignal
                0xffffffff800a18d0                ssignaln
                0xffffffff800a1980                pi_owned
                0xffffffff800a19a0                pi_disown
                0xffffffff800a1aa0                pi_init
                0xffffffff800a1ab0                tswait
                0xffffffff800a1d10                sismine
 .text          0xffffffff800a1dc0      0x3b1 /home/asergey/runtime-EclipseApplication/x86dev/lib/libkernel.a(sysbrk.o)
                0xffffffff800a1dc0                _sysbrk
                0xffffffff800a1e30                _sysfree
                0xffffffff800a1ec0                initsysbrk
                0xffffffff800a2000                sysbrk
                0xffffffff800a20e0                sysfree
 *fill*         0xffffffff800a2171        0xf 9090
 .text          0xffffffff800a2180      0x480 /home/asergey/runtime-EclipseApplication/x86dev/lib/libkernel.a(tde.o)
                0xffffffff800a2180                free_textd
                0xffffffff800a21c0                new_textd
                0xffffffff800a2260                use_textd
                0xffffffff800a2290                create_textd
                0xffffffff800a22e0                unuse_textd
                0xffffffff800a2330                init_textdir
                0xffffffff800a2430                freeup_tde
                0xffffffff800a2560                get_tde
 .text          0xffffffff800a2600     0x1538 /home/asergey/runtime-EclipseApplication/x86dev/lib/libkernel.a(threads.o)
                0xffffffff800a2790                st_build
                0xffffffff800a2e50                st_awaken
                0xffffffff800a2ec0                st_resume
                0xffffffff800a2fb0                st_catatonia
                0xffffffff800a3020                _stexit
                0xffffffff800a3230                st_detach
                0xffffffff800a33a0                st_detachit
                0xffffffff800a3410                st_join
                0xffffffff800a3690                st_getstid
                0xffffffff800a36b0                st_setkhandle
                0xffffffff800a3760                st_name
                0xffffffff800a3860                st_registercancel
                0xffffffff800a3920                st_cancel
                0xffffffff800a3aa0                is_executable
                0xffffffff800a3af0                thread_dispatch
 *fill*         0xffffffff800a3b38        0x8 9090
 .text          0xffffffff800a3b40      0x9ab /home/asergey/runtime-EclipseApplication/x86dev/lib/libkernel.a(time.o)
                0xffffffff800a3ce0                clkint
                0xffffffff800a3e80                init_timers
                0xffffffff800a3eb0                nanotime
                0xffffffff800a3fa0                get_timestamp
                0xffffffff800a3fc0                usecs_in_tick
                0xffffffff800a3ff0                get_uptime
                0xffffffff800a4080                hgetime
                0xffffffff800a4100                initime
                0xffffffff800a4210                setime
 *fill*         0xffffffff800a44eb        0x5 9090
 .text          0xffffffff800a44f0      0x84b /home/asergey/runtime-EclipseApplication/x86dev/lib/libkernel.a(timeout.o)
                0xffffffff800a4570                initimeout
                0xffffffff800a46c0                timeout_create
                0xffffffff800a48c0                timeout
                0xffffffff800a48e0                setup_timeout
                0xffffffff800a4900                cancel_timeout
                0xffffffff800a4a60                dotimeout
                0xffffffff800a4b60                remove_ktimers
                0xffffffff800a4bc0                update_timeouts
 *fill*         0xffffffff800a4d3b        0x5 9090
 .text          0xffffffff800a4d40       0xd9 /home/asergey/runtime-EclipseApplication/x86dev/lib/libkernel.a(usleep.o)
                0xffffffff800a4d40                usec_sleep
 *fill*         0xffffffff800a4e19        0x7 9090
 .text          0xffffffff800a4e20      0x15e /home/asergey/runtime-EclipseApplication/x86dev/lib/libkernel.a(utils.o)
                0xffffffff800a4e30                normal_long_long
                0xffffffff800a4e40                normal_long
                0xffffffff800a4e50                normal_short
                0xffffffff800a4e60                dblink_enq
                0xffffffff800a4e80                dblink_deq
                0xffffffff800a4ea0                suser
                0xffffffff800a4ef0                sysctl_add
                0xffffffff800a4f00                vmemgok
                0xffffffff800a4f10                is_proc_permitted
 *fill*         0xffffffff800a4f7e        0x2 9090
 .text          0xffffffff800a4f80      0x378 /home/asergey/runtime-EclipseApplication/x86dev/lib/libkernel.a(vfs.o)
                0xffffffff800a4f80                vfs_insert
                0xffffffff800a4fd0                interrogate_fs
                0xffffffff800a5030                get_volume_info
                0xffffffff800a5050                set_boot_status
                0xffffffff800a5060                vfs_getdents
                0xffffffff800a5080                vfs_other_entries
                0xffffffff800a50a0                vfs_find_entry
                0xffffffff800a50c0                vfs_mkcontig
                0xffffffff800a50e0                vfs_make_inode
                0xffffffff800a5100                vfs_new_inode
                0xffffffff800a5120                vfs_free_inode
                0xffffffff800a5140                vfs_write_inode
                0xffffffff800a5160                vfs_read_inode
                0xffffffff800a5180                vfs_remove_entry
                0xffffffff800a51a0                vfs_trunc_inode
                0xffffffff800a51c0                vfs_trunc2inode
                0xffffffff800a51e0                vfs_trunc_contig
                0xffffffff800a5200                vfs_readlink
                0xffffffff800a5220                vfs_getblkp
                0xffffffff800a5240                vfs_wgetblkp
                0xffffffff800a5260                vfs_mkdir
                0xffffffff800a5280                vfs_rmdir
                0xffffffff800a52a0                vfs_make_entry
                0xffffffff800a52c0                vfs_symlink
                0xffffffff800a52e0                vfs_newdotdot
 *fill*         0xffffffff800a52f8        0x8 9090
 .text          0xffffffff800a5300      0x792 /home/asergey/runtime-EclipseApplication/x86dev/lib/libkernel.a(vmos_rinsert.o)
                0xffffffff800a5300                rinsert
                0xffffffff800a54f0                rdesert
                0xffffffff800a5690                unrinsert
                0xffffffff800a5880                rinsert_h
                0xffffffff800a5a40                __rdyq_highest_thread_get
 *fill*         0xffffffff800a5a92        0xe 9090
 .text          0xffffffff800a5aa0      0x3a6 /home/asergey/runtime-EclipseApplication/x86dev/lib/libkernel.a(vmosschedu.o)
                0xffffffff800a5b60                idle_thread
                0xffffffff800a5b70                __ctxsw_sched_partition
 *fill*         0xffffffff800a5e46        0xa 9090
 .text          0xffffffff800a5e50     0x1595 /home/asergey/runtime-EclipseApplication/x86dev/lib/libkernel.a(execve.o)
                0xffffffff800a7020                mlexecve
                0xffffffff800a70d0                execve
 *fill*         0xffffffff800a73e5        0xb 9090
 .text          0xffffffff800a73f0      0x943 /home/asergey/runtime-EclipseApplication/x86dev/lib/libkernel.a(fast_sem_open.o)
                0xffffffff800a7690                fast_sem_open
                0xffffffff800a77b0                fast_sem_close
                0xffffffff800a77d0                fast_sem_unlink
                0xffffffff800a7820                fast_sem_markdelete
                0xffffffff800a7a00                fast_sem_unmarkdelete
                0xffffffff800a7b80                init_mmarks
                0xffffffff800a7c90                mmark_delete_objs
 *fill*         0xffffffff800a7d33        0xd 9090
 .text          0xffffffff800a7d40     0x274b /home/asergey/runtime-EclipseApplication/x86dev/lib/libkernel.a(fork.o)
                0xffffffff800a7e50                userret
                0xffffffff800a7e70                freepid
                0xffffffff800a7f10                newpid
                0xffffffff800a80c0                fork
                0xffffffff800a8ef0                SWAP_PERVM_PAGES
                0xffffffff800a8f10                RESTORE_PERVM_PAGES
                0xffffffff800a8f30                create_pinit
                0xffffffff800a9cd0                __proc_start_init
                0xffffffff800aa460                default_clean_parent_tde
 *fill*         0xffffffff800aa48b        0x5 9090
 .text          0xffffffff800aa490      0xa6d /home/asergey/runtime-EclipseApplication/x86dev/lib/libkernel.a(install.o)
                0xffffffff800aa600                dr_install
                0xffffffff800aa960                cdv_install
                0xffffffff800aac80                bdv_install
 *fill*         0xffffffff800aaefd        0x3 9090
 .text          0xffffffff800aaf00      0xddf /home/asergey/runtime-EclipseApplication/x86dev/lib/libkernel.a(install_elf.o)
                0xffffffff800ab060                load_module_elf
 *fill*         0xffffffff800abcdf        0x1 9090
 .text          0xffffffff800abce0      0x2e1 /home/asergey/runtime-EclipseApplication/x86dev/lib/libkernel.a(init_global_resources.o)
                0xffffffff800abce0                Init_Global_Resources
 *fill*         0xffffffff800abfc1        0xf 9090
 .text          0xffffffff800abfd0      0xe10 /home/asergey/runtime-EclipseApplication/x86dev/lib/libkernel.a(load.o)
                0xffffffff800abfd0                dmz
                0xffffffff800ac050                is_copied_from_rfs
                0xffffffff800ac080                read_file
                0xffffffff800ac970                pre_smart_load
                0xffffffff800acb30                break_smart_load
                0xffffffff800acbe0                post_smart_load
 .text          0xffffffff800acde0      0x341 /home/asergey/runtime-EclipseApplication/x86dev/lib/libkernel.a(load_elf.o)
                0xffffffff800acde0                read_elf32_headers
 *fill*         0xffffffff800ad121        0xf 9090
 .text          0xffffffff800ad130      0x2c9 /home/asergey/runtime-EclipseApplication/x86dev/lib/libkernel.a(load_elf64.o)
                0xffffffff800ad130                read_elf64_headers
 *fill*         0xffffffff800ad3f9        0x7 9090
 .text          0xffffffff800ad400      0x92e /home/asergey/runtime-EclipseApplication/x86dev/lib/libkernel.a(mempartition.o)
                0xffffffff800ad590                reinit_sysbrk_globals
                0xffffffff800ad680                reinit_getmem_globals
                0xffffffff800ad790                vm_mem_alloc
 *fill*         0xffffffff800add2e        0x2 9090
 .text          0xffffffff800add30      0xbea /home/asergey/runtime-EclipseApplication/x86dev/lib/libkernel.a(mmap.o)
                0xffffffff800ade40                init_mmaps
                0xffffffff800adef0                __mmap
                0xffffffff800adef0                mmap
                0xffffffff800adef0                __ksc_mmap
                0xffffffff800ae3e0                munmap
                0xffffffff800ae510                mprotect
 *fill*         0xffffffff800ae91a        0x6 9090
 .text          0xffffffff800ae920      0x729 /home/asergey/runtime-EclipseApplication/x86dev/lib/libkernel.a(pshmem.o)
                0xffffffff800aea80                initshm
                0xffffffff800aeb50                shm_check_fault
                0xffffffff800aec40                shm_open
                0xffffffff800aede0                shm_fstat
                0xffffffff800aee70                shm_time_set
                0xffffffff800aee90                shm_fchmod
                0xffffffff800aeeb0                shm_fchown
                0xffffffff800aeed0                trunc2f_shm
                0xffffffff800aef70                get_shm_nsid
                0xffffffff800aef90                shm_close
                0xffffffff800af000                shm_unlink
 *fill*         0xffffffff800af049        0x7 9090
 .text          0xffffffff800af050     0x148c /home/asergey/runtime-EclipseApplication/x86dev/lib/libkernel.a(sm.o)
                0xffffffff800af5c0                find_mod_ends
                0xffffffff800af640                st_remove_vaddr_region
                0xffffffff800af720                get_stack_entry_size
                0xffffffff800af7a0                mod_vaddr_region
                0xffffffff800b0120                sm_autoshare
                0xffffffff800b0380                sm_noshare
                0xffffffff800b03d0                sm_freeall
 *fill*         0xffffffff800b04dc        0x4 9090
 .text          0xffffffff800b04e0      0x238 /home/asergey/runtime-EclipseApplication/x86dev/lib/libkernel.a(sc_router.o)
                0xffffffff800b04e0                nosys
                0xffffffff800b0560                syscall
 .text          0xffffffff800b0718        0x0 /home/asergey/runtime-EclipseApplication/x86dev/lib/libkernel.a(syscall_table.o)
 *fill*         0xffffffff800b0718        0x8 9090
 .text          0xffffffff800b0720      0xa9a /home/asergey/runtime-EclipseApplication/x86dev/lib/libkernel.a(wait.o)
                0xffffffff800b0750                release
                0xffffffff800b0d80                wait3
                0xffffffff800b0eb0                waitpid
                0xffffffff800b10a0                wait
                0xffffffff800b1110                vmos_wait
 *fill*         0xffffffff800b11ba        0x6 9090
 .text          0xffffffff800b11c0      0x5b3 /home/asergey/runtime-EclipseApplication/x86dev/lib/libkernel.a(cfread.o)
                0xffffffff800b11c0                cfread
                0xffffffff800b1390                cfwrite
                0xffffffff800b1570                mkcontig
                0xffffffff800b1710                trunc_contig
                0xffffffff800b1720                truncf_contig
                0xffffffff800b1750                trunc2f_contig
 *fill*         0xffffffff800b1773        0xd 9090
 .text          0xffffffff800b1780      0x371 /home/asergey/runtime-EclipseApplication/x86dev/lib/libkernel.a(cprintf.o)
                0xffffffff800b1780                cputc
                0xffffffff800b17d0                console_close
                0xffffffff800b1830                cprintf
                0xffffffff800b18b0                console_open
                0xffffffff800b19f0                console_change
 *fill*         0xffffffff800b1af1        0xf 9090
 .text          0xffffffff800b1b00      0x16f /home/asergey/runtime-EclipseApplication/x86dev/lib/libkernel.a(hwt_bench.o)
                0xffffffff800b1b00                hwt_get
                0xffffffff800b1b80                hwt_add
                0xffffffff800b1bd0                hwt_diff
                0xffffffff800b1c10                hwt_conv_ts
 *fill*         0xffffffff800b1c6f        0x1 9090
 .text          0xffffffff800b1c70      0x596 /home/asergey/runtime-EclipseApplication/x86dev/lib/libkernel.a(kern_mib.o)
                0xffffffff800b2160                sysctl_init_kern_mib
 *fill*         0xffffffff800b2206        0xa 9090
 .text          0xffffffff800b2210     0x1326 /home/asergey/runtime-EclipseApplication/x86dev/lib/libkernel.a(kern_sysctl.o)
                0xffffffff800b2b90                sysctl_register_oid
                0xffffffff800b2c20                sysctl_unregister_oid
                0xffffffff800b2c60                sysctl_handle_int
                0xffffffff800b2cd0                sysctl_handle_long
                0xffffffff800b2d40                sysctl_handle_string
                0xffffffff800b2dc0                sysctl_handle_opaque
                0xffffffff800b2e20                sysctl_find_oid
                0xffffffff800b3080                kernel_sysctl
                0xffffffff800b3170                userland_sysctl
                0xffffffff800b3390                sysctl
                0xffffffff800b34f0                sysctl_init_kern_sysctl
 *fill*         0xffffffff800b3536        0xa 9090
 .text          0xffffffff800b3540       0x49 /home/asergey/runtime-EclipseApplication/x86dev/lib/libkernel.a(loadavg.o)
                0xffffffff800b3540                loadavg
 *fill*         0xffffffff800b3589        0x7 9090
 .text          0xffffffff800b3590       0x41 /home/asergey/runtime-EclipseApplication/x86dev/lib/libkernel.a(sysctl_init.o)
                0xffffffff800b3590                sysctl_init
 *fill*         0xffffffff800b35d1        0xf 9090
 .text          0xffffffff800b35e0      0x2f6 /home/asergey/runtime-EclipseApplication/x86dev/lib/libkernel.a(sysinfo.o)
                0xffffffff800b35e0                get_thinfo
                0xffffffff800b36f0                get_prinfo
                0xffffffff800b38d0                get_osinfo
 *fill*         0xffffffff800b38d6        0xa 9090
 .text          0xffffffff800b38e0     0x709f /home/asergey/runtime-EclipseApplication/x86dev/lib/libkernel.a(ttymgr.o)
                0xffffffff800b5910                enqueue
                0xffffffff800b6a50                dequeue
                0xffffffff800b7320                dequeue_readq_nowait
                0xffffffff800b7490                dequeue_readq
                0xffffffff800b74e0                qcount
                0xffffffff800b74f0                initqueue
                0xffffffff800b7550                qflush
                0xffffffff800b75b0                closequeue
                0xffffffff800b75f0                nq_buffenq
                0xffffffff800b7610                tmgr_install
                0xffffffff800b76f0                tmgr_uninstall
                0xffffffff800b7700                tmgr_mopen
                0xffffffff800b78f0                tmgr_open
                0xffffffff800b7e80                tmgr_mclose
                0xffffffff800b7f30                tmgr_close
                0xffffffff800b8150                tmgr_read
                0xffffffff800b88c0                tmgr_mread
                0xffffffff800b8b80                tmgr_write
                0xffffffff800b8ff0                tmgr_mwrite
                0xffffffff800b90f0                restart_output
                0xffffffff800b91a0                tmgr_ioctl
                0xffffffff800b9dd0                tmgr_mioctl
                0xffffffff800ba170                tmgr_select
                0xffffffff800ba1f0                tmgr_mselect
                0xffffffff800ba290                tmgr_tx
                0xffffffff800ba4e0                tmgr_rx
                0xffffffff800ba790                tmgr_ex
 *fill*         0xffffffff800ba97f        0x1 9090
 .text          0xffffffff800ba980      0x47f /home/asergey/runtime-EclipseApplication/x86dev/lib/libkernel.a(uninstall.o)
                0xffffffff800ba980                dr_uninstall
                0xffffffff800bab00                cdv_uninstall
                0xffffffff800bac90                bdv_uninstall
 *fill*         0xffffffff800badff        0x1 9090
 .text          0xffffffff800bae00      0x15c /home/asergey/runtime-EclipseApplication/x86dev/lib/libkernel.a(utimes.o)
                0xffffffff800bae00                utimes
 .text          0xffffffff800baf5c        0x0 /home/asergey/runtime-EclipseApplication/x86dev/lib/libkernel.a(globmem.o)
 *fill*         0xffffffff800baf5c        0x4 9090
 .text          0xffffffff800baf60      0x38b /home/asergey/runtime-EclipseApplication/x86dev/lib/libkernel.a(clock_impl.o)
                0xffffffff800baf60                init_clocks
                0xffffffff800bb090                clock_register
                0xffffffff800bb1d0                clock_deregister
 *fill*         0xffffffff800bb2eb        0x5 9090
 .text          0xffffffff800bb2f0      0x18e /home/asergey/runtime-EclipseApplication/x86dev/lib/libkernel.a(clock_getcpuclockid.o)
                0xffffffff800bb2f0                clock_getcpuclockid
                0xffffffff800bb2f0                __ksc_clock_getcpuclockid
                0xffffffff800bb2f0                __clock_getcpuclockid
 *fill*         0xffffffff800bb47e        0x2 9090
 .text          0xffffffff800bb480       0xe0 /home/asergey/runtime-EclipseApplication/x86dev/lib/libkernel.a(clock_getres.o)
                0xffffffff800bb480                __ksc_clock_getres
                0xffffffff800bb480                clock_getres
                0xffffffff800bb480                __clock_getres
 .text          0xffffffff800bb560      0x108 /home/asergey/runtime-EclipseApplication/x86dev/lib/libkernel.a(clock_gettime.o)
                0xffffffff800bb560                clock_gettime
                0xffffffff800bb560                __ksc_clock_gettime
                0xffffffff800bb560                __clock_gettime
 *fill*         0xffffffff800bb668        0x8 9090
 .text          0xffffffff800bb670      0x387 /home/asergey/runtime-EclipseApplication/x86dev/lib/libkernel.a(clock_nanosleep.o)
                0xffffffff800bb6a0                __ksc_clock_nanosleep
                0xffffffff800bb6a0                __clock_nanosleep
                0xffffffff800bb6a0                clock_nanosleep
 *fill*         0xffffffff800bb9f7        0x9 9090
 .text          0xffffffff800bba00      0x16b /home/asergey/runtime-EclipseApplication/x86dev/lib/libkernel.a(clock_settime.o)
                0xffffffff800bba00                __clock_settime
                0xffffffff800bba00                clock_settime
                0xffffffff800bba00                __ksc_clock_settime
 *fill*         0xffffffff800bbb6b        0x5 9090
 .text          0xffffffff800bbb70      0x247 /home/asergey/runtime-EclipseApplication/x86dev/lib/libkernel.a(timer_impl.o)
                0xffffffff800bbb70                init_timer_table
                0xffffffff800bbcd0                timer_removeall
 *fill*         0xffffffff800bbdb7        0x9 9090
 .text          0xffffffff800bbdc0       0xc9 /home/asergey/runtime-EclipseApplication/x86dev/lib/libkernel.a(gettime_op.o)
                0xffffffff800bbdc0                __gettime_op
 *fill*         0xffffffff800bbe89        0x7 9090
 .text          0xffffffff800bbe90      0x3a3 /home/asergey/runtime-EclipseApplication/x86dev/lib/libkernel.a(getitimer.o)
                0xffffffff800bbf10                __ksc_getitimer
                0xffffffff800bbf10                getitimer
                0xffffffff800bbf10                __getitimer
                0xffffffff800bc020                setitimer
                0xffffffff800bc020                __setitimer
                0xffffffff800bc020                __ksc_setitimer
 *fill*         0xffffffff800bc233        0xd 9090
 .text          0xffffffff800bc240      0x35a /home/asergey/runtime-EclipseApplication/x86dev/lib/libkernel.a(timer_create.o)
                0xffffffff800bc240                __ksc_timer_create
                0xffffffff800bc240                __timer_create
 *fill*         0xffffffff800bc59a        0x6 9090
 .text          0xffffffff800bc5a0      0x1e2 /home/asergey/runtime-EclipseApplication/x86dev/lib/libkernel.a(timer_delete.o)
                0xffffffff800bc5a0                timer_delete
                0xffffffff800bc5a0                __timer_delete
                0xffffffff800bc5a0                __ksc_timer_delete
 *fill*         0xffffffff800bc782        0xe 9090
 .text          0xffffffff800bc790      0x15d /home/asergey/runtime-EclipseApplication/x86dev/lib/libkernel.a(timer_getoverrun.o)
                0xffffffff800bc790                __ksc_timer_getoverrun
                0xffffffff800bc790                __timer_getoverrun
                0xffffffff800bc790                timer_getoverrun
 *fill*         0xffffffff800bc8ed        0x3 9090
 .text          0xffffffff800bc8f0      0x170 /home/asergey/runtime-EclipseApplication/x86dev/lib/libkernel.a(timer_gettime.o)
                0xffffffff800bc8f0                timer_gettime
                0xffffffff800bc8f0                __ksc_timer_gettime
                0xffffffff800bc8f0                __timer_gettime
 .text          0xffffffff800bca60      0x481 /home/asergey/runtime-EclipseApplication/x86dev/lib/libkernel.a(timer_settime.o)
                0xffffffff800bca60                __ksc_timer_settime
                0xffffffff800bca60                __timer_settime
                0xffffffff800bca60                timer_settime
 *fill*         0xffffffff800bcee1        0xf 9090
 .text          0xffffffff800bcef0      0x118 /home/asergey/runtime-EclipseApplication/x86dev/lib/libkernel.a(clock_adjtimex.o)
                0xffffffff800bcef0                __clock_adjtimex
                0xffffffff800bcef0                __ksc_clock_adjtimex
                0xffffffff800bcef0                clock_adjtimex
 *fill*         0xffffffff800bd008        0x8 9090
 .text          0xffffffff800bd010       0xc9 /home/asergey/runtime-EclipseApplication/x86dev/lib/libkernel.a(reboot_impl.o)
                0xffffffff800bd010                kkreboot
 *fill*         0xffffffff800bd0d9        0x7 9090
 .text          0xffffffff800bd0e0      0x2ab /home/asergey/runtime-EclipseApplication/x86dev/lib/libkernel.a(get_resource_entry.o)
                0xffffffff800bd190                __get_resource_entry
                0xffffffff800bd190                __ksc_get_resource_entry
 *fill*         0xffffffff800bd38b        0x5 9090
 .text          0xffffffff800bd390       0x4b /home/asergey/runtime-EclipseApplication/x86dev/lib/libkernel.a(ptrace.o)
                0xffffffff800bd3d0                __ptrace
                0xffffffff800bd3d0                __ksc_ptrace
                0xffffffff800bd3d0                ptrace
 *fill*         0xffffffff800bd3db        0x5 9090
 .text          0xffffffff800bd3e0       0x77 /home/asergey/runtime-EclipseApplication/x86dev/lib/libkernel.a(reboot.o)
                0xffffffff800bd3e0                __reboot
                0xffffffff800bd3e0                __ksc_reboot
                0xffffffff800bd3e0                reboot
 *fill*         0xffffffff800bd457        0x9 9090
 .text          0xffffffff800bd460       0x9e /home/asergey/runtime-EclipseApplication/x86dev/lib/libkernel.a(ulimit.o)
                0xffffffff800bd460                __ksc_ulimit
                0xffffffff800bd460                ulimit
                0xffffffff800bd460                __ulimit
 *fill*         0xffffffff800bd4fe        0x2 9090
 .text          0xffffffff800bd500       0xe0 /home/asergey/runtime-EclipseApplication/x86dev/lib/libkernel.a(uname.o)
                0xffffffff800bd500                __ksc_uname
                0xffffffff800bd500                __uname
 .text          0xffffffff800bd5e0      0x42e /home/asergey/runtime-EclipseApplication/x86dev/lib/libkernel.a(mount_impl.o)
                0xffffffff800bd600                premount
 *fill*         0xffffffff800bda0e        0x2 9090
 .text          0xffffffff800bda10      0x117 /home/asergey/runtime-EclipseApplication/x86dev/lib/libkernel.a(getdents.o)
                0xffffffff800bda10                __getdents
                0xffffffff800bda10                __ksc_getdents
 *fill*         0xffffffff800bdb27        0x9 9090
 .text          0xffffffff800bdb30      0x5f0 /home/asergey/runtime-EclipseApplication/x86dev/lib/libkernel.a(mount.o)
                0xffffffff800bdb30                mount
                0xffffffff800bdb30                __mount
                0xffffffff800bdb30                __ksc_mount
 .text          0xffffffff800be120      0x279 /home/asergey/runtime-EclipseApplication/x86dev/lib/libkernel.a(umount.o)
                0xffffffff800be120                __ksc_umount
                0xffffffff800be120                __umount
                0xffffffff800be120                umount
 *fill*         0xffffffff800be399        0x7 9090
 .text          0xffffffff800be3a0      0x2df /home/asergey/runtime-EclipseApplication/x86dev/lib/libkernel.a(rwbounds.o)
                0xffffffff800be660                __ksc_rbounds
                0xffffffff800be660                rbounds
                0xffffffff800be660                __rbounds
                0xffffffff800be670                __wbounds
                0xffffffff800be670                __ksc_wbounds
                0xffffffff800be670                wbounds
 *fill*         0xffffffff800be67f        0x1 9090
 .text          0xffffffff800be680      0x9f7 /home/asergey/runtime-EclipseApplication/x86dev/lib/libkernel.a(socket_impl.o)
                0xffffffff800be680                initsockets
                0xffffffff800be770                _sock_seterr
                0xffffffff800be790                getasocket
                0xffffffff800be830                freeasocket
                0xffffffff800be890                skread
                0xffffffff800be9e0                skwrite
                0xffffffff800bea50                skselect
                0xffffffff800bead0                skclose
                0xffffffff800bed30                skioctl
                0xffffffff800befc0                nux_write
                0xffffffff800befe0                nux_read
                0xffffffff800bf000                nux_ioctl
                0xffffffff800bf020                nux_select
                0xffffffff800bf040                nux_close
                0xffffffff800bf060                nux_fcntl
 *fill*         0xffffffff800bf077        0x9 9090
 .text          0xffffffff800bf080      0x42f /home/asergey/runtime-EclipseApplication/x86dev/lib/libkernel.a(accept.o)
                0xffffffff800bf310                __accept
                0xffffffff800bf310                accept
                0xffffffff800bf310                __ksc_accept
 *fill*         0xffffffff800bf4af        0x1 9090
 .text          0xffffffff800bf4b0      0x249 /home/asergey/runtime-EclipseApplication/x86dev/lib/libkernel.a(bind.o)
                0xffffffff800bf650                __ksc_bind
                0xffffffff800bf650                bind
                0xffffffff800bf650                __bind
 *fill*         0xffffffff800bf6f9        0x7 9090
 .text          0xffffffff800bf700      0x501 /home/asergey/runtime-EclipseApplication/x86dev/lib/libkernel.a(connect.o)
                0xffffffff800bfb50                connect
                0xffffffff800bfb50                __ksc_connect
                0xffffffff800bfb50                __connect
 *fill*         0xffffffff800bfc01        0xf 9090
 .text          0xffffffff800bfc10      0x148 /home/asergey/runtime-EclipseApplication/x86dev/lib/libkernel.a(gethostname.o)
                0xffffffff800bfc10                __gethostname
                0xffffffff800bfc10                gethostname
                0xffffffff800bfc10                __ksc_gethostname
                0xffffffff800bfca0                sethostname
                0xffffffff800bfca0                __ksc_sethostname
                0xffffffff800bfca0                __sethostname
 *fill*         0xffffffff800bfd58        0x8 9090
 .text          0xffffffff800bfd60       0x95 /home/asergey/runtime-EclipseApplication/x86dev/lib/libkernel.a(getpeername.o)
                0xffffffff800bfd60                __getpeername
                0xffffffff800bfd60                getpeername
                0xffffffff800bfd60                __ksc_getpeername
 *fill*         0xffffffff800bfdf5        0xb 9090
 .text          0xffffffff800bfe00       0x71 /home/asergey/runtime-EclipseApplication/x86dev/lib/libkernel.a(getsockname.o)
                0xffffffff800bfe00                __ksc_getsockname
                0xffffffff800bfe00                __getsockname
                0xffffffff800bfe00                getsockname
 *fill*         0xffffffff800bfe71        0xf 9090
 .text          0xffffffff800bfe80      0x17f /home/asergey/runtime-EclipseApplication/x86dev/lib/libkernel.a(getsockopt.o)
                0xffffffff800bfe80                getsockopt
                0xffffffff800bfe80                __getsockopt
                0xffffffff800bfe80                __ksc_getsockopt
 *fill*         0xffffffff800bffff        0x1 9090
 .text          0xffffffff800c0000       0xd1 /home/asergey/runtime-EclipseApplication/x86dev/lib/libkernel.a(listen.o)
                0xffffffff800c0070                __listen
                0xffffffff800c0070                listen
                0xffffffff800c0070                __ksc_listen
 *fill*         0xffffffff800c00d1        0xf 9090
 .text          0xffffffff800c00e0       0x93 /home/asergey/runtime-EclipseApplication/x86dev/lib/libkernel.a(recv.o)
                0xffffffff800c00e0                recv
                0xffffffff800c00e0                __ksc_recv
                0xffffffff800c00e0                __recv
 *fill*         0xffffffff800c0173        0xd 9090
 .text          0xffffffff800c0180       0x93 /home/asergey/runtime-EclipseApplication/x86dev/lib/libkernel.a(recvfrom.o)
                0xffffffff800c0180                __recvfrom
                0xffffffff800c0180                recvfrom
                0xffffffff800c0180                __ksc_recvfrom
 *fill*         0xffffffff800c0213        0xd 9090
 .text          0xffffffff800c0220       0x73 /home/asergey/runtime-EclipseApplication/x86dev/lib/libkernel.a(recvmsg.o)
                0xffffffff800c0220                __recvmsg
                0xffffffff800c0220                __ksc_recvmsg
                0xffffffff800c0220                recvmsg
 *fill*         0xffffffff800c0293        0xd 9090
 .text          0xffffffff800c02a0       0xd6 /home/asergey/runtime-EclipseApplication/x86dev/lib/libkernel.a(send.o)
                0xffffffff800c02a0                __ksc_send
                0xffffffff800c02a0                send
                0xffffffff800c02a0                __send
 *fill*         0xffffffff800c0376        0xa 9090
 .text          0xffffffff800c0380       0x73 /home/asergey/runtime-EclipseApplication/x86dev/lib/libkernel.a(sendmsg.o)
                0xffffffff800c0380                __ksc_sendmsg
                0xffffffff800c0380                sendmsg
                0xffffffff800c0380                __sendmsg
 *fill*         0xffffffff800c03f3        0xd 9090
 .text          0xffffffff800c0400       0xc3 /home/asergey/runtime-EclipseApplication/x86dev/lib/libkernel.a(sendto.o)
                0xffffffff800c0400                __ksc_sendto
                0xffffffff800c0400                sendto
                0xffffffff800c0400                __sendto
 *fill*         0xffffffff800c04c3        0xd 9090
 .text          0xffffffff800c04d0      0x123 /home/asergey/runtime-EclipseApplication/x86dev/lib/libkernel.a(setsockopt.o)
                0xffffffff800c04d0                setsockopt
                0xffffffff800c04d0                __ksc_setsockopt
                0xffffffff800c04d0                __setsockopt
 *fill*         0xffffffff800c05f3        0xd 9090
 .text          0xffffffff800c0600      0x1a1 /home/asergey/runtime-EclipseApplication/x86dev/lib/libkernel.a(shutdown.o)
                0xffffffff800c0740                __ksc_shutdown
                0xffffffff800c0740                __shutdown
                0xffffffff800c0740                shutdown
 *fill*         0xffffffff800c07a1        0xf 9090
 .text          0xffffffff800c07b0      0x159 /home/asergey/runtime-EclipseApplication/x86dev/lib/libkernel.a(socket.o)
                0xffffffff800c07b0                socket
                0xffffffff800c07b0                __ksc_socket
                0xffffffff800c07b0                __socket
 *fill*         0xffffffff800c0909        0x7 9090
 .text          0xffffffff800c0910      0x297 /home/asergey/runtime-EclipseApplication/x86dev/lib/libkernel.a(socketpair.o)
                0xffffffff800c0a40                __socketpair
                0xffffffff800c0a40                __ksc_socketpair
                0xffffffff800c0a40                socketpair
 *fill*         0xffffffff800c0ba7        0x9 9090
 .text          0xffffffff800c0bb0      0x2a9 /home/asergey/runtime-EclipseApplication/x86dev/lib/libkernel.a(chdir_impl.o)
                0xffffffff800c0bb0                ichdir
                0xffffffff800c0c60                fchcdev
                0xffffffff800c0da0                _chcdev
                0xffffffff800c0e30                condev
 *fill*         0xffffffff800c0e59        0x7 9090
 .text          0xffffffff800c0e60      0x11b /home/asergey/runtime-EclipseApplication/x86dev/lib/libkernel.a(chmod_impl.o)
                0xffffffff800c0e60                ichmod
 *fill*         0xffffffff800c0f7b        0x5 9090
 .text          0xffffffff800c0f80      0x138 /home/asergey/runtime-EclipseApplication/x86dev/lib/libkernel.a(chown_impl.o)
                0xffffffff800c0f80                ichown
 *fill*         0xffffffff800c10b8        0x8 9090
 .text          0xffffffff800c10c0      0x12d /home/asergey/runtime-EclipseApplication/x86dev/lib/libkernel.a(fcntl_impl.o)
                0xffffffff800c10c0                unflock
                0xffffffff800c1140                sysvtolocklist
 *fill*         0xffffffff800c11ed        0x3 9090
 .text          0xffffffff800c11f0      0x3fa /home/asergey/runtime-EclipseApplication/x86dev/lib/libkernel.a(link_impl.o)
                0xffffffff800c11f0                f_name
                0xffffffff800c1240                f_match
                0xffffffff800c12b0                sticky_protected
                0xffffffff800c1310                newdotdot
                0xffffffff800c1440                make_link
                0xffffffff800c1520                is_cwd_or_root
                0xffffffff800c15e0                other_entries
 *fill*         0xffffffff800c15ea        0x6 9090
 .text          0xffffffff800c15f0      0x93c /home/asergey/runtime-EclipseApplication/x86dev/lib/libkernel.a(read_impl.o)
                0xffffffff800c15f0                getf
                0xffffffff800c16e0                freef
                0xffffffff800c1760                ifd_is_empty
                0xffffffff800c1790                share_files
                0xffffffff800c19e0                share_pinit_files
                0xffffffff800c1ab0                close_all
                0xffffffff800c1ac0                close_onexec
                0xffffffff800c1ad0                prio_event
                0xffffffff800c1b60                ionotty
                0xffffffff800c1b80                ioerr
                0xffffffff800c1b90                ioerr_st
                0xffffffff800c1ba0                ionull
                0xffffffff800c1bb0                ionull_ll
                0xffffffff800c1bc0                ionull_st
                0xffffffff800c1bd0                get_fd
                0xffffffff800c1e30                _dup2
 *fill*         0xffffffff800c1f2c        0x4 9090
 .text          0xffffffff800c1f30       0x39 /home/asergey/runtime-EclipseApplication/x86dev/lib/libkernel.a(readlink_impl.o)
                0xffffffff800c1f30                symlinkcopy
 *fill*         0xffffffff800c1f69        0x7 9090
 .text          0xffffffff800c1f70      0x46b /home/asergey/runtime-EclipseApplication/x86dev/lib/libkernel.a(stat_impl.o)
                0xffffffff800c1f70                istat
                0xffffffff800c2090                pipe_stat
                0xffffffff800c21a0                socket_stat
                0xffffffff800c2240                file_statfs
 *fill*         0xffffffff800c23db        0x5 9090
 .text          0xffffffff800c23e0      0x174 /home/asergey/runtime-EclipseApplication/x86dev/lib/libkernel.a(access.o)
                0xffffffff800c23e0                __ksc_access
                0xffffffff800c23e0                access
                0xffffffff800c23e0                __access
 *fill*         0xffffffff800c2554        0xc 9090
 .text          0xffffffff800c2560       0x74 /home/asergey/runtime-EclipseApplication/x86dev/lib/libkernel.a(chcdev.o)
                0xffffffff800c2560                __ksc_chcdev
                0xffffffff800c2560                __chcdev
                0xffffffff800c2560                chcdev
 *fill*         0xffffffff800c25d4        0xc 9090
 .text          0xffffffff800c25e0       0x53 /home/asergey/runtime-EclipseApplication/x86dev/lib/libkernel.a(chdir.o)
                0xffffffff800c25e0                chdir
                0xffffffff800c25e0                __chdir
                0xffffffff800c25e0                __ksc_chdir
 *fill*         0xffffffff800c2633        0xd 9090
 .text          0xffffffff800c2640       0x4a /home/asergey/runtime-EclipseApplication/x86dev/lib/libkernel.a(chmod.o)
                0xffffffff800c2640                chmod
                0xffffffff800c2640                __chmod
                0xffffffff800c2640                __ksc_chmod
 *fill*         0xffffffff800c268a        0x6 9090
 .text          0xffffffff800c2690       0x5c /home/asergey/runtime-EclipseApplication/x86dev/lib/libkernel.a(chown.o)
                0xffffffff800c2690                chown
                0xffffffff800c2690                __chown
                0xffffffff800c2690                __ksc_chown
 *fill*         0xffffffff800c26ec        0x4 9090
 .text          0xffffffff800c26f0      0x428 /home/asergey/runtime-EclipseApplication/x86dev/lib/libkernel.a(close.o)
                0xffffffff800c26f0                close_fd
                0xffffffff800c28f0                __close
                0xffffffff800c28f0                __ksc_close
                0xffffffff800c28f0                close
                0xffffffff800c2930                close_fds
 *fill*         0xffffffff800c2b18        0x8 9090
 .text          0xffffffff800c2b20       0x39 /home/asergey/runtime-EclipseApplication/x86dev/lib/libkernel.a(dup2.o)
                0xffffffff800c2b20                __dup2
                0xffffffff800c2b20                dup2
                0xffffffff800c2b20                __ksc_dup2
 *fill*         0xffffffff800c2b59        0x7 9090
 .text          0xffffffff800c2b60       0x3a /home/asergey/runtime-EclipseApplication/x86dev/lib/libkernel.a(dup.o)
                0xffffffff800c2b60                __dup
                0xffffffff800c2b60                __ksc_dup
                0xffffffff800c2b60                dup
 *fill*         0xffffffff800c2b9a        0x6 9090
 .text          0xffffffff800c2ba0       0xc3 /home/asergey/runtime-EclipseApplication/x86dev/lib/libkernel.a(fchdir.o)
                0xffffffff800c2ba0                fchdir
                0xffffffff800c2ba0                __ksc_fchdir
                0xffffffff800c2ba0                __fchdir
 *fill*         0xffffffff800c2c63        0xd 9090
 .text          0xffffffff800c2c70       0x98 /home/asergey/runtime-EclipseApplication/x86dev/lib/libkernel.a(fchmod.o)
                0xffffffff800c2c70                fchmod
                0xffffffff800c2c70                __ksc_fchmod
                0xffffffff800c2c70                __fchmod
 *fill*         0xffffffff800c2d08        0x8 9090
 .text          0xffffffff800c2d10       0xbb /home/asergey/runtime-EclipseApplication/x86dev/lib/libkernel.a(fchown.o)
                0xffffffff800c2d10                fchown
                0xffffffff800c2d10                __fchown
                0xffffffff800c2d10                __ksc_fchown
 *fill*         0xffffffff800c2dcb        0x5 9090
 .text          0xffffffff800c2dd0      0x664 /home/asergey/runtime-EclipseApplication/x86dev/lib/libkernel.a(fcntl.o)
                0xffffffff800c33a0                __ksc_fcntl
                0xffffffff800c33a0                __fcntl
                0xffffffff800c33a0                fcntl
 *fill*         0xffffffff800c3434        0xc 9090
 .text          0xffffffff800c3440       0x40 /home/asergey/runtime-EclipseApplication/x86dev/lib/libkernel.a(fdatasync.o)
                0xffffffff800c3440                __fdatasync
                0xffffffff800c3440                __ksc_fdatasync
                0xffffffff800c3440                fdatasync
 .text          0xffffffff800c3480      0x23d /home/asergey/runtime-EclipseApplication/x86dev/lib/libkernel.a(flock.o)
                0xffffffff800c3480                flock
                0xffffffff800c3480                __flock
                0xffffffff800c3480                __ksc_flock
 *fill*         0xffffffff800c36bd        0x3 9090
 .text          0xffffffff800c36c0      0x157 /home/asergey/runtime-EclipseApplication/x86dev/lib/libkernel.a(fstat.o)
                0xffffffff800c36c0                __ksc_fstat
                0xffffffff800c36c0                fstat
                0xffffffff800c36c0                __fstat
 *fill*         0xffffffff800c3817        0x9 9090
 .text          0xffffffff800c3820       0xc1 /home/asergey/runtime-EclipseApplication/x86dev/lib/libkernel.a(fstatfs.o)
                0xffffffff800c3820                fstatfs
                0xffffffff800c3820                __fstatfs
                0xffffffff800c3820                __ksc_fstatfs
 *fill*         0xffffffff800c38e1        0xf 9090
 .text          0xffffffff800c38f0       0x40 /home/asergey/runtime-EclipseApplication/x86dev/lib/libkernel.a(fsync.o)
                0xffffffff800c38f0                __ksc_fsync
                0xffffffff800c38f0                fsync
                0xffffffff800c38f0                __fsync
 .text          0xffffffff800c3930      0x21f /home/asergey/runtime-EclipseApplication/x86dev/lib/libkernel.a(ftruncate.o)
                0xffffffff800c3930                __ftruncate
                0xffffffff800c3930                ftruncate
                0xffffffff800c3930                __ksc_ftruncate
 *fill*         0xffffffff800c3b4f        0x1 9090
 .text          0xffffffff800c3b50        0xc /home/asergey/runtime-EclipseApplication/x86dev/lib/libkernel.a(getdtablesize.o)
                0xffffffff800c3b50                __getdtablesize
                0xffffffff800c3b50                __ksc_getdtablesize
                0xffffffff800c3b50                getdtablesize
 *fill*         0xffffffff800c3b5c        0x4 9090
 .text          0xffffffff800c3b60       0xbc /home/asergey/runtime-EclipseApplication/x86dev/lib/libkernel.a(ioctl.o)
                0xffffffff800c3b60                ioctl
                0xffffffff800c3b60                __ioctl
                0xffffffff800c3b60                __ksc_ioctl
 *fill*         0xffffffff800c3c1c        0x4 9090
 .text          0xffffffff800c3c20      0x128 /home/asergey/runtime-EclipseApplication/x86dev/lib/libkernel.a(link.o)
                0xffffffff800c3c20                __link
                0xffffffff800c3c20                __ksc_link
                0xffffffff800c3c20                link
 *fill*         0xffffffff800c3d48        0x8 9090
 .text          0xffffffff800c3d50       0x49 /home/asergey/runtime-EclipseApplication/x86dev/lib/libkernel.a(lseek64.o)
                0xffffffff800c3d50                __ksc_lseek64
                0xffffffff800c3d50                __lseek64
                0xffffffff800c3d50                lseek64
 *fill*         0xffffffff800c3d99        0x7 9090
 .text          0xffffffff800c3da0       0x49 /home/asergey/runtime-EclipseApplication/x86dev/lib/libkernel.a(lseek.o)
                0xffffffff800c3da0                __ksc_lseek
                0xffffffff800c3da0                lseek
                0xffffffff800c3da0                __lseek
 *fill*         0xffffffff800c3de9        0x7 9090
 .text          0xffffffff800c3df0       0x77 /home/asergey/runtime-EclipseApplication/x86dev/lib/libkernel.a(lstat.o)
                0xffffffff800c3df0                lstat
                0xffffffff800c3df0                __ksc_lstat
                0xffffffff800c3df0                __lstat
 *fill*         0xffffffff800c3e67        0x9 9090
 .text          0xffffffff800c3e70      0x125 /home/asergey/runtime-EclipseApplication/x86dev/lib/libkernel.a(mkdir.o)
                0xffffffff800c3e70                __ksc_mkdir
                0xffffffff800c3e70                __mkdir
                0xffffffff800c3e70                mkdir
 *fill*         0xffffffff800c3f95        0xb 9090
 .text          0xffffffff800c3fa0      0x1cd /home/asergey/runtime-EclipseApplication/x86dev/lib/libkernel.a(mknod.o)
                0xffffffff800c3fa0                mknod
                0xffffffff800c3fa0                __mknod
                0xffffffff800c3fa0                __ksc_mknod
 *fill*         0xffffffff800c416d        0x3 9090
 .text          0xffffffff800c4170       0xc8 /home/asergey/runtime-EclipseApplication/x86dev/lib/libkernel.a(open.o)
                0xffffffff800c4170                __open
                0xffffffff800c4170                __ksc_open
                0xffffffff800c4170                open
 *fill*         0xffffffff800c4238        0x8 9090
 .text          0xffffffff800c4240       0x9e /home/asergey/runtime-EclipseApplication/x86dev/lib/libkernel.a(read.o)
                0xffffffff800c4240                __read
                0xffffffff800c4240                read
                0xffffffff800c4240                __ksc_read
 *fill*         0xffffffff800c42de        0x2 9090
 .text          0xffffffff800c42e0       0xf2 /home/asergey/runtime-EclipseApplication/x86dev/lib/libkernel.a(readlink.o)
                0xffffffff800c42e0                readlink
                0xffffffff800c42e0                __ksc_readlink
                0xffffffff800c42e0                __readlink
 *fill*         0xffffffff800c43d2        0xe 9090
 .text          0xffffffff800c43e0      0x1dd /home/asergey/runtime-EclipseApplication/x86dev/lib/libkernel.a(readv.o)
                0xffffffff800c43e0                __readv
                0xffffffff800c43e0                readv
                0xffffffff800c43e0                __ksc_readv
 *fill*         0xffffffff800c45bd        0x3 9090
 .text          0xffffffff800c45c0      0x892 /home/asergey/runtime-EclipseApplication/x86dev/lib/libkernel.a(rename.o)
                0xffffffff800c45c0                rename
                0xffffffff800c45c0                __ksc_rename
                0xffffffff800c45c0                __rename
 *fill*         0xffffffff800c4e52        0xe 9090
 .text          0xffffffff800c4e60      0x1de /home/asergey/runtime-EclipseApplication/x86dev/lib/libkernel.a(rmdir.o)
                0xffffffff800c4e60                rmdir
                0xffffffff800c4e60                __ksc_rmdir
                0xffffffff800c4e60                __rmdir
 *fill*         0xffffffff800c503e        0x2 9090
 .text          0xffffffff800c5040      0xb5c /home/asergey/runtime-EclipseApplication/x86dev/lib/libkernel.a(select.o)
                0xffffffff800c52e0                __select
                0xffffffff800c52e0                __ksc_select
                0xffffffff800c52e0                select
 *fill*         0xffffffff800c5b9c        0x4 9090
 .text          0xffffffff800c5ba0       0xaf /home/asergey/runtime-EclipseApplication/x86dev/lib/libkernel.a(stat.o)
                0xffffffff800c5ba0                __ksc_stat
                0xffffffff800c5ba0                __stat
                0xffffffff800c5ba0                stat
 *fill*         0xffffffff800c5c4f        0x1 9090
 .text          0xffffffff800c5c50      0x101 /home/asergey/runtime-EclipseApplication/x86dev/lib/libkernel.a(statfs.o)
                0xffffffff800c5c50                statfs
                0xffffffff800c5c50                __statfs
                0xffffffff800c5c50                __ksc_statfs
 *fill*         0xffffffff800c5d51        0xf 9090
 .text          0xffffffff800c5d60      0x173 /home/asergey/runtime-EclipseApplication/x86dev/lib/libkernel.a(symlink.o)
                0xffffffff800c5d60                __ksc_symlink
                0xffffffff800c5d60                __symlink
                0xffffffff800c5d60                symlink
 *fill*         0xffffffff800c5ed3        0xd 9090
 .text          0xffffffff800c5ee0       0x16 /home/asergey/runtime-EclipseApplication/x86dev/lib/libkernel.a(sync.o)
                0xffffffff800c5ee0                __ksc_sync
                0xffffffff800c5ee0                sync
                0xffffffff800c5ee0                __sync
 *fill*         0xffffffff800c5ef6        0xa 9090
 .text          0xffffffff800c5f00       0x2a /home/asergey/runtime-EclipseApplication/x86dev/lib/libkernel.a(umask.o)
                0xffffffff800c5f00                __ksc_umask
                0xffffffff800c5f00                __umask
                0xffffffff800c5f00                umask
 *fill*         0xffffffff800c5f2a        0x6 9090
 .text          0xffffffff800c5f30      0x1d1 /home/asergey/runtime-EclipseApplication/x86dev/lib/libkernel.a(unlink.o)
                0xffffffff800c5f30                __unlink
                0xffffffff800c5f30                unlink
                0xffffffff800c5f30                __ksc_unlink
 *fill*         0xffffffff800c6101        0xf 9090
 .text          0xffffffff800c6110       0xf6 /home/asergey/runtime-EclipseApplication/x86dev/lib/libkernel.a(write.o)
                0xffffffff800c6110                __write
                0xffffffff800c6110                write
                0xffffffff800c6110                __ksc_write
 *fill*         0xffffffff800c6206        0xa 9090
 .text          0xffffffff800c6210      0x1b9 /home/asergey/runtime-EclipseApplication/x86dev/lib/libkernel.a(writev.o)
                0xffffffff800c6210                writev
                0xffffffff800c6210                __ksc_writev
                0xffffffff800c6210                __writev
 *fill*         0xffffffff800c63c9        0x7 9090
 .text          0xffffffff800c63d0      0x681 /home/asergey/runtime-EclipseApplication/x86dev/lib/libkernel.a(blkwak_impl.o)
                0xffffffff800c63d0                valid_blkwak_id
                0xffffffff800c6440                blkwak_cleanup_links
                0xffffffff800c6510                insert_onto_block
                0xffffffff800c6590                pi_insert_onto_thread
                0xffffffff800c6820                propagate_priority
                0xffffffff800c6870                blk_link_remove
                0xffffffff800c6900                bw_cleanup
                0xffffffff800c6a00                blk_link_refresh
 *fill*         0xffffffff800c6a51        0xf 9090
 .text          0xffffffff800c6a60      0x8eb /home/asergey/runtime-EclipseApplication/x86dev/lib/libkernel.a(block.o)
                0xffffffff800c6ad0                __ksc_block
                0xffffffff800c6ad0                __block
 *fill*         0xffffffff800c734b        0x5 9090
 .text          0xffffffff800c7350      0x1a0 /home/asergey/runtime-EclipseApplication/x86dev/lib/libkernel.a(rewait.o)
                0xffffffff800c7350                __rewait
                0xffffffff800c7350                __ksc_rewait
 .text          0xffffffff800c74f0      0x2d9 /home/asergey/runtime-EclipseApplication/x86dev/lib/libkernel.a(wakeup.o)
                0xffffffff800c74f0                __ksc_wakeup
                0xffffffff800c74f0                __wakeup
 *fill*         0xffffffff800c77c9        0x7 9090
 .text          0xffffffff800c77d0     0x22dc /home/asergey/runtime-EclipseApplication/x86dev/lib/libkernel.a(kill_impl.o)
                0xffffffff800c77d0                is_descendant
                0xffffffff800c7820                make_ready
                0xffffffff800c79d0                event_alloc
                0xffffffff800c7a60                p_alloc_eventq
                0xffffffff800c7b10                alloc_eventq
                0xffffffff800c7bc0                p_event_deq
                0xffffffff800c7c30                p_event_empty_queues
                0xffffffff800c7d20                p_free_eventq
                0xffffffff800c7da0                event_free
                0xffffffff800c7de0                event_enq
                0xffffffff800c7e60                tkill
                0xffffffff800c84d0                killvm
                0xffffffff800c86b0                pkill
                0xffffffff800c8950                killpg
                0xffffffff800c89c0                _killpg
                0xffffffff800c8a40                _kill
                0xffffffff800c8b10                killfpgrp
                0xffffffff800c8c00                dokill
                0xffffffff800c8f80                killctty
                0xffffffff800c9120                event_deq
                0xffffffff800c9190                event_qempty
                0xffffffff800c91c0                p_event_qempty
                0xffffffff800c91f0                event_empty_queues
                0xffffffff800c92f0                free_eventq
                0xffffffff800c9360                orphan
                0xffffffff800c9650                deliversigs
                0xffffffff800c9920                __sigsuspend_op
 *fill*         0xffffffff800c9aac        0x4 9090
 .text          0xffffffff800c9ab0     0x1664 /home/asergey/runtime-EclipseApplication/x86dev/lib/libkernel.a(signal_impl.o)
                0xffffffff800c9be0                terminate
                0xffffffff800c9c50                termcore
                0xffffffff800ca180                __sigaction_op
                0xffffffff800ca620                __sigprocmask_op
                0xffffffff800ca8f0                sigwlist_free
                0xffffffff800ca980                sigwvec_free
                0xffffffff800ca9d0                deq_sigwaiter
                0xffffffff800caa50                ksigwait
                0xffffffff800caf50                init_signotes
                0xffffffff800cb060                profil
 *fill*         0xffffffff800cb114        0xc 9090
 .text          0xffffffff800cb120       0x16 /home/asergey/runtime-EclipseApplication/x86dev/lib/libkernel.a(kill.o)
                0xffffffff800cb120                __ksc_kill
                0xffffffff800cb120                __kill
                0xffffffff800cb120                kill
 *fill*         0xffffffff800cb136        0xa 9090
 .text          0xffffffff800cb140       0x82 /home/asergey/runtime-EclipseApplication/x86dev/lib/libkernel.a(sigaction.o)
                0xffffffff800cb140                __ksc_sigaction
                0xffffffff800cb140                sigaction
                0xffffffff800cb140                __sigaction
 *fill*         0xffffffff800cb1c2        0xe 9090
 .text          0xffffffff800cb1d0       0x2b /home/asergey/runtime-EclipseApplication/x86dev/lib/libkernel.a(sigblock.o)
                0xffffffff800cb1d0                __sigblock
                0xffffffff800cb1d0                __ksc_sigblock
                0xffffffff800cb1d0                sigblock
 *fill*         0xffffffff800cb1fb        0x5 9090
 .text          0xffffffff800cb200      0x4dc /home/asergey/runtime-EclipseApplication/x86dev/lib/libkernel.a(signotify.o)
                0xffffffff800cb200                freeall_signote
                0xffffffff800cb310                __signotify
                0xffffffff800cb310                __ksc_signotify
 *fill*         0xffffffff800cb6dc        0x4 9090
 .text          0xffffffff800cb6e0       0x22 /home/asergey/runtime-EclipseApplication/x86dev/lib/libkernel.a(sigpause.o)
                0xffffffff800cb6e0                sigpause
                0xffffffff800cb6e0                __ksc_sigpause
                0xffffffff800cb6e0                __sigpause
 *fill*         0xffffffff800cb702        0xe 9090
 .text          0xffffffff800cb710       0x78 /home/asergey/runtime-EclipseApplication/x86dev/lib/libkernel.a(sigpending.o)
                0xffffffff800cb710                __ksc_sigpending
                0xffffffff800cb710                sigpending
                0xffffffff800cb710                __sigpending
 *fill*         0xffffffff800cb788        0x8 9090
 .text          0xffffffff800cb790       0xc8 /home/asergey/runtime-EclipseApplication/x86dev/lib/libkernel.a(sigprocmask.o)
                0xffffffff800cb790                __ksc_sigprocmask
                0xffffffff800cb790                __sigprocmask
                0xffffffff800cb790                sigprocmask
 *fill*         0xffffffff800cb858        0x8 9090
 .text          0xffffffff800cb860        0xf /home/asergey/runtime-EclipseApplication/x86dev/lib/libkernel.a(sigqueue.o)
                0xffffffff800cb860                __ksc_sigqueue
                0xffffffff800cb860                sigqueue
                0xffffffff800cb860                __sigqueue
 *fill*         0xffffffff800cb86f        0x1 9090
 .text          0xffffffff800cb870       0x39 /home/asergey/runtime-EclipseApplication/x86dev/lib/libkernel.a(sigsetmask.o)
                0xffffffff800cb870                __sigsetmask
                0xffffffff800cb870                __ksc_sigsetmask
                0xffffffff800cb870                sigsetmask
 *fill*         0xffffffff800cb8a9        0x7 9090
 .text          0xffffffff800cb8b0       0x4c /home/asergey/runtime-EclipseApplication/x86dev/lib/libkernel.a(sigsuspend.o)
                0xffffffff800cb8b0                __ksc_sigsuspend
                0xffffffff800cb8b0                __sigsuspend
                0xffffffff800cb8b0                sigsuspend
 *fill*         0xffffffff800cb8fc        0x4 9090
 .text          0xffffffff800cb900      0x163 /home/asergey/runtime-EclipseApplication/x86dev/lib/libkernel.a(sigtimedwait.o)
                0xffffffff800cb900                __sigtimedwait
                0xffffffff800cb900                __ksc_sigtimedwait
                0xffffffff800cb900                sigtimedwait
 *fill*         0xffffffff800cba63        0xd 9090
 .text          0xffffffff800cba70       0x82 /home/asergey/runtime-EclipseApplication/x86dev/lib/libkernel.a(sigvec.o)
                0xffffffff800cba70                __sigvec
                0xffffffff800cba70                __ksc_sigvec
 *fill*         0xffffffff800cbaf2        0xe 9090
 .text          0xffffffff800cbb00       0xb8 /home/asergey/runtime-EclipseApplication/x86dev/lib/libkernel.a(sigwait.o)
                0xffffffff800cbb00                __ksc_sigwait
                0xffffffff800cbb00                __sigwait
                0xffffffff800cbb00                sigwait
 *fill*         0xffffffff800cbbb8        0x8 9090
 .text          0xffffffff800cbbc0      0x1eb /home/asergey/runtime-EclipseApplication/x86dev/lib/libkernel.a(get_set_thread_priority.o)
                0xffffffff800cbbc0                __ksc_get_set_thread_priority
                0xffffffff800cbbc0                __get_set_thread_priority
 *fill*         0xffffffff800cbdab        0x5 9090
 .text          0xffffffff800cbdb0      0x1dc /home/asergey/runtime-EclipseApplication/x86dev/lib/libkernel.a(adjtime.o)
                0xffffffff800cbdb0                __adjtime
                0xffffffff800cbdb0                __ksc_adjtime
                0xffffffff800cbdb0                adjtime
 *fill*         0xffffffff800cbf8c        0x4 9090
 .text          0xffffffff800cbf90       0xf8 /home/asergey/runtime-EclipseApplication/x86dev/lib/libkernel.a(gettimeofday.o)
                0xffffffff800cbf90                __ksc_gettimeofday
                0xffffffff800cbf90                __gettimeofday
                0xffffffff800cbf90                gettimeofday
 *fill*         0xffffffff800cc088        0x8 9090
 .text          0xffffffff800cc090       0x78 /home/asergey/runtime-EclipseApplication/x86dev/lib/libkernel.a(times.o)
                0xffffffff800cc090                times
                0xffffffff800cc090                __ksc_times
                0xffffffff800cc090                __times
 *fill*         0xffffffff800cc108        0x8 9090
 .text          0xffffffff800cc110      0x107 /home/asergey/runtime-EclipseApplication/x86dev/lib/libkernel.a(settimeofday.o)
                0xffffffff800cc110                __ksc_settimeofday
                0xffffffff800cc110                __settimeofday
 *fill*         0xffffffff800cc217        0x9 9090
 .text          0xffffffff800cc220       0x3a /home/asergey/runtime-EclipseApplication/x86dev/lib/libmisc.a(nhn.o)
                0xffffffff800cc220                ntohl
                0xffffffff800cc230                ntohs
                0xffffffff800cc240                htonl
                0xffffffff800cc250                htons
 *fill*         0xffffffff800cc25a        0x6 9090
 .text          0xffffffff800cc260       0x18 /home/asergey/runtime-EclipseApplication/x86dev/lib/libmisc.a(reg_access.o)
                0xffffffff800cc260                reg_read32
                0xffffffff800cc270                reg_write32
 *fill*         0xffffffff800cc278        0x8 9090
 .text          0xffffffff800cc280       0x4c /home/asergey/runtime-EclipseApplication/x86dev/lib/libmisc.a(abs.o)
                0xffffffff800cc280                abs
                0xffffffff800cc290                labs
                0xffffffff800cc2a0                ffs
 *fill*         0xffffffff800cc2cc        0x4 9090
 .text          0xffffffff800cc2d0       0x6d /home/asergey/runtime-EclipseApplication/x86dev/lib/libmisc.a(calloc.o)
                0xffffffff800cc2d0                calloc
 *fill*         0xffffffff800cc33d        0x3 9090
 .text          0xffffffff800cc340       0x26 /home/asergey/runtime-EclipseApplication/x86dev/lib/libmisc.a(s_rindex.o)
                0xffffffff800cc340                rindex
 *fill*         0xffffffff800cc366        0xa 9090
 .text          0xffffffff800cc370       0x33 /home/asergey/runtime-EclipseApplication/x86dev/lib/libmisc.a(strcat.o)
                0xffffffff800cc370                strcat
 *fill*         0xffffffff800cc3a3        0xd 9090
 .text          0xffffffff800cc3b0       0x46 /home/asergey/runtime-EclipseApplication/x86dev/lib/libmisc.a(strcmp.o)
                0xffffffff800cc3b0                strcmp
 *fill*         0xffffffff800cc3f6        0xa 9090
 .text          0xffffffff800cc400       0x34 /home/asergey/runtime-EclipseApplication/x86dev/lib/libmisc.a(strchr.o)
                0xffffffff800cc400                strchr
 *fill*         0xffffffff800cc434        0xc 9090
 .text          0xffffffff800cc440       0x20 /home/asergey/runtime-EclipseApplication/x86dev/lib/libmisc.a(strcpy.o)
                0xffffffff800cc440                strcpy
 .text          0xffffffff800cc460       0x22 /home/asergey/runtime-EclipseApplication/x86dev/lib/libmisc.a(strlen.o)
                0xffffffff800cc460                strlen
 *fill*         0xffffffff800cc482        0xe 9090
 .text          0xffffffff800cc490       0x54 /home/asergey/runtime-EclipseApplication/x86dev/lib/libmisc.a(strncat.o)
                0xffffffff800cc490                strncat
 *fill*         0xffffffff800cc4e4        0xc 9090
 .text          0xffffffff800cc4f0       0x41 /home/asergey/runtime-EclipseApplication/x86dev/lib/libmisc.a(strncmp.o)
                0xffffffff800cc4f0                strncmp
 *fill*         0xffffffff800cc531        0xf 9090
 .text          0xffffffff800cc540       0x4f /home/asergey/runtime-EclipseApplication/x86dev/lib/libmisc.a(strncpy.o)
                0xffffffff800cc540                strncpy
 *fill*         0xffffffff800cc58f        0x1 9090
 .text          0xffffffff800cc590       0x2d /home/asergey/runtime-EclipseApplication/x86dev/lib/libmisc.a(strnlen.o)
                0xffffffff800cc590                strnlen
 *fill*         0xffffffff800cc5bd        0x3 9090
 .text          0xffffffff800cc5c0       0xf1 /home/asergey/runtime-EclipseApplication/x86dev/lib/libmisc.a(malloc.o)
                0xffffffff800cc5c0                malloc
                0xffffffff800cc5f0                realloc
                0xffffffff800cc690                free
 *fill*         0xffffffff800cc6b1        0xf 9090
 .text          0xffffffff800cc6c0       0x3a /home/asergey/runtime-EclipseApplication/x86dev/lib/libmisc.a(memcmp.o)
                0xffffffff800cc6c0                memcmp
 *fill*         0xffffffff800cc6fa        0x6 9090
 .text          0xffffffff800cc700       0x19 /home/asergey/runtime-EclipseApplication/x86dev/lib/libmisc.a(atomic_ops.o)
                0xffffffff800cc700                __atomic_inc
                0xffffffff800cc710                __atomic_dec
 *fill*         0xffffffff800cc719        0x7 9090
 .text          0xffffffff800cc720       0x43 /home/asergey/runtime-EclipseApplication/x86dev/lib/libmisc.a(memcpy_x86.o)
                0xffffffff800cc720                memcpy
                0xffffffff800cc730                memmove
 *fill*         0xffffffff800cc763        0xd 9090
 .text          0xffffffff800cc770       0x16 /home/asergey/runtime-EclipseApplication/x86dev/lib/libmisc.a(memset_x86.o)
                0xffffffff800cc770                memset
 *fill*         0xffffffff800cc786        0x2 9090
 .text          0xffffffff800cc788       0x4d /home/asergey/runtime-EclipseApplication/x86dev/lib/libfamily_x86_64.a(cpu.o)
                0xffffffff800cc788                csp_get_CR0
                0xffffffff800cc798                csp_get_CR4
                0xffffffff800cc7a8                csp_set_CR0
                0xffffffff800cc7b8                csp_set_CR4
                0xffffffff800cc7c8                csp_get_sp
 *fill*         0xffffffff800cc7d5        0x3 9090
 .text          0xffffffff800cc7d8       0x52 /home/asergey/runtime-EclipseApplication/x86dev/lib/libfamily_x86_64.a(csp_fsetbit_asm.o)
                0xffffffff800cc7d8                fsetbit
                0xffffffff800cc7f0                fsetbitp
                0xffffffff800cc818                fsetlbit
 *fill*         0xffffffff800cc82a        0x6 9090
 .text          0xffffffff800cc830       0x45 /home/asergey/runtime-EclipseApplication/x86dev/lib/libfamily_x86_64.a(csp_misc.o)
                0xffffffff800cc830                csp_null_loop
                0xffffffff800cc840                currstk_backtrace
                0xffffffff800cc860                quick_cksum
 *fill*         0xffffffff800cc875        0x3 9090
 .text          0xffffffff800cc878        0xd /home/asergey/runtime-EclipseApplication/x86dev/lib/libfamily_x86_64.a(csp__stexit.o)
                0xffffffff800cc878                csp__stexit
 *fill*         0xffffffff800cc885        0xb 9090
 .text          0xffffffff800cc890      0x1f8 /home/asergey/runtime-EclipseApplication/x86dev/lib/libfamily_x86_64.a(xcontext.o)
                0xffffffff800cc890                get_usr_econtext
                0xffffffff800cc9d0                set_usr_req_econtext
                0xffffffff800cca70                get_usr_fcontext
 *fill*         0xffffffff800cca88        0x8 9090
 .text          0xffffffff800cca90      0x1fd /home/asergey/runtime-EclipseApplication/x86dev/lib/libfamily_x86_64.a(reloc_elf.o)
                0xffffffff800cca90                csp_reloc_sec
                0xffffffff800ccab0                csp_reloc_asec
 *fill*         0xffffffff800ccc8d        0x3 9090
 .text          0xffffffff800ccc90      0x12c /home/asergey/runtime-EclipseApplication/x86dev/lib/libfamily_x86_64.a(signal_asm.o)
                0xffffffff800ccc90                sig_exechandler_asm
                0xffffffff800ccd70                sig_recover
                0xffffffff800ccdb0                sig_return
 *fill*         0xffffffff800ccdbc        0x4 9090
 .text          0xffffffff800ccdc0      0x1ba /home/asergey/runtime-EclipseApplication/x86dev/lib/libfamily_x86_64.a(signal.o)
                0xffffffff800ccdc0                sig_exechandler
                0xffffffff800ccf20                sig_setup_returncode
                0xffffffff800ccf60                csp_rewind_sstack
 *fill*         0xffffffff800ccf7a        0x6 9090
 .text          0xffffffff800ccf80      0x329 /home/asergey/runtime-EclipseApplication/x86dev/lib/libfamily_x86_64.a(syscall.o)
                0xffffffff800ccf80                sc_execsyscall
                0xffffffff800cd250                sc_abort
 *fill*         0xffffffff800cd2a9        0x7 9090
 .text          0xffffffff800cd2b0      0x4b5 /home/asergey/runtime-EclipseApplication/x86dev/lib/libcsp_x86_64.a(context.o)
                0xffffffff800cd2b0                ctx_execuser
                0xffffffff800cd470                ctx_setup_context
                0xffffffff800cd660                ctx_switch
                0xffffffff800cd6b0                ctx_dump
 *fill*         0xffffffff800cd765        0xb 9090
 .text          0xffffffff800cd770      0xf65 /home/asergey/runtime-EclipseApplication/x86dev/lib/libcsp_x86_64.a(csp_mem_map.o)
                0xffffffff800cd7c0                dup_ptes_job
                0xffffffff800cdaa0                map_page
                0xffffffff800cdd00                unmap_page
                0xffffffff800cde10                cleanup_softtab
                0xffffffff800cde50                setup_softtab
                0xffffffff800ce010                csp_map_global_page
                0xffffffff800ce050                csp_get_global_ppn
                0xffffffff800ce150                mmcon
                0xffffffff800ce280                mem_trans
                0xffffffff800ce350                aliaspnum
                0xffffffff800ce370                aliaspage
                0xffffffff800ce390                unaliaspage
                0xffffffff800ce3b0                setup_pagetable
                0xffffffff800ce470                freeup_pagetable
                0xffffffff800ce670                cleanup_pagetable
                0xffffffff800ce6b0                setjob
 *fill*         0xffffffff800ce6d5        0xb 9090
 .text          0xffffffff800ce6e0       0x73 /home/asergey/runtime-EclipseApplication/x86dev/lib/libcsp_x86_64.a(fpu.o)
                0xffffffff800ce6e0                ctx_initialize_fpu_context
                0xffffffff800ce720                ctx_save_fpu_context
                0xffffffff800ce730                ctx_restore_fpu_context
                0xffffffff800ce740                fpx_dump
 *fill*         0xffffffff800ce753        0xd 9090
 .text          0xffffffff800ce760       0x24 /home/asergey/runtime-EclipseApplication/x86dev/lib/libcsp_x86_64.a(tlb.o)
                0xffffffff800ce760                csp_tlb_inval
 *fill*         0xffffffff800ce784        0x4 9090
 .text          0xffffffff800ce788      0x23d /home/asergey/runtime-EclipseApplication/x86dev/lib/libcsp_x86_64.a(context_asm.o)
                0xffffffff800ce788                ctx_execuser_asm
                0xffffffff800ce7c8                ctx_switch_asm
                0xffffffff800ce880                ctx_clone_context
                0xffffffff800ce940                ctx_recoset
                0xffffffff800ce948                ctx_setjmp
                0xffffffff800ce988                ctx_recojmp
                0xffffffff800ce990                ctx_longjmp
 *fill*         0xffffffff800ce9c5        0xb 9090
 .text          0xffffffff800ce9d0      0x130 /home/asergey/runtime-EclipseApplication/x86dev/lib/libptrace_x86_64.a(ptrace_trap.o)
                0xffffffff800cead0                ptrace_low_handlers_install
 .text          0xffffffff800ceb00     0x103c /home/asergey/runtime-EclipseApplication/x86dev/lib/libptrace.a(core.o)
                0xffffffff800ceb00                writecore
 *(.text.*)
 .text.unlikely
                0xffffffff800cfb3c        0xe /home/asergey/runtime-EclipseApplication/x86dev/lib/libdrivers.a(ohci.o)
 .text.unlikely
                0xffffffff800cfb4a        0xa /home/asergey/runtime-EclipseApplication/x86dev/lib/libdrivers.a(xhci.o)
 .text.unlikely
                0xffffffff800cfb54       0x14 /home/asergey/runtime-EclipseApplication/x86dev/lib/liblcs.a(in6_route.o)
 .text.unlikely
                0xffffffff800cfb68        0xa /home/asergey/runtime-EclipseApplication/x86dev/lib/liblcs.a(ip_reassem.o)
 .text.unlikely
                0xffffffff800cfb72       0x48 /home/asergey/runtime-EclipseApplication/x86dev/lib/liblcs.a(tcp_pcb.o)
 .text.unlikely
                0xffffffff800cfbba       0x1a /home/asergey/runtime-EclipseApplication/x86dev/lib/liblcs.a(in6_util.o)
 .text.unlikely
                0xffffffff800cfbd4        0xa /home/asergey/runtime-EclipseApplication/x86dev/lib/libdrm.a(pcibus.o)
 *(.gnu.warning)
 *(.gnu.linkonce.t*)
                0xffffffff800cfbe0                . = ALIGN (0x10)
 *fill*         0xffffffff800cfbde        0x2 9090

.start          0xffffffff800cfbe0       0xc6
 .start         0xffffffff800cfbe0       0xc6 bsp.x86_64.o
                0xffffffff800cfbe0                bsp_pre_init
                0xffffffff800cfca0                bsp_map_io

.iplt           0xffffffff800cfca6        0x0
 .iplt          0xffffffff800cfca6        0x0 bsp.x86_64.o
                0xffffffff800cfca8                . = ALIGN (0x8)
                0xffffffff800cfca8                __ctors_start = .

.ctors
 *(.ctors)
 *(.ctors.*)
                0xffffffff800cfca8                __ctors_end = .
                0xffffffff800cfcb0                . = ALIGN (0x10)

.rodata         0xffffffff800cfcc0    0x138fe
 *(.rodata)
 .rodata        0xffffffff800cfcc0       0x83 bsp.x86_64.o
                0xffffffff800cfd10                lynx_version
                0xffffffff800cfd28                lynx_release
                0xffffffff800cfd38                lynx_osname
 *fill*         0xffffffff800cfd43        0x5 
 .rodata        0xffffffff800cfd48      0x2ff conf.o
 *fill*         0xffffffff800d0047        0x1 
 .rodata        0xffffffff800d0048      0x1f8 info.o
 .rodata        0xffffffff800d0240       0x1d timestamp.o
                0xffffffff800d0240                lynx_timestamp
 *fill*         0xffffffff800d025d        0x3 
 .rodata        0xffffffff800d0260      0x140 /home/asergey/runtime-EclipseApplication/x86dev/lib/libcsp_x86_64.a(trap.o)
 .rodata        0xffffffff800d03a0      0x1e0 /home/asergey/runtime-EclipseApplication/x86dev/lib/libdrivers.a(kdbdrvr.o)
 .rodata        0xffffffff800d0580      0x6e8 /home/asergey/runtime-EclipseApplication/x86dev/lib/libdrivers.a(lcs_emdrvr.o)
 .rodata        0xffffffff800d0c68       0xd8 /home/asergey/runtime-EclipseApplication/x86dev/lib/libdrivers.a(tty_16550.o)
 .rodata        0xffffffff800d0d40       0x40 /home/asergey/runtime-EclipseApplication/x86dev/lib/libdrivers.a(simusb.o)
 .rodata        0xffffffff800d0d80       0x88 /home/asergey/runtime-EclipseApplication/x86dev/lib/libdrivers.a(scsimgr.o)
 *fill*         0xffffffff800d0e08        0x8 
 .rodata        0xffffffff800d0e10       0x14 /home/asergey/runtime-EclipseApplication/x86dev/lib/libdrivers.a(usbdrvr.o)
 *fill*         0xffffffff800d0e24       0x1c 
 .rodata        0xffffffff800d0e40       0x30 /home/asergey/runtime-EclipseApplication/x86dev/lib/libdrivers.a(ixgbepfdrvr.o)
 *fill*         0xffffffff800d0e70       0x10 
 .rodata        0xffffffff800d0e80       0x40 /home/asergey/runtime-EclipseApplication/x86dev/lib/libdrivers.a(ixgbepfinfo.o)
                0xffffffff800d0e80                ixgbepf_port_info
 .rodata        0xffffffff800d0ec0       0x98 /home/asergey/runtime-EclipseApplication/x86dev/lib/libdrivers.a(lcsdrvr.o)
 .rodata        0xffffffff800d0f58       0xf0 /home/asergey/runtime-EclipseApplication/x86dev/lib/libdrivers.a(hmdrvr.o)
 .rodata        0xffffffff800d1048       0x48 /home/asergey/runtime-EclipseApplication/x86dev/lib/libdrivers.a(mmapdrvr.o)
 .rodata        0xffffffff800d1090       0x70 /home/asergey/runtime-EclipseApplication/x86dev/lib/libdrivers.a(ahci.o)
 .rodata        0xffffffff800d1100     0x1aa0 /home/asergey/runtime-EclipseApplication/x86dev/lib/libdrivers.a(dis_x86_64.o)
 .rodata        0xffffffff800d2ba0      0xac0 /home/asergey/runtime-EclipseApplication/x86dev/lib/libdrivers.a(kdb_x86_64.o)
 .rodata        0xffffffff800d3660      0x460 /home/asergey/runtime-EclipseApplication/x86dev/lib/libdrivers.a(remote.o)
 .rodata        0xffffffff800d3ac0       0xa0 /home/asergey/runtime-EclipseApplication/x86dev/lib/libdrivers.a(usb_subr.o)
 .rodata        0xffffffff800d3b60      0x120 /home/asergey/runtime-EclipseApplication/x86dev/lib/libdrivers.a(ohci.o)
 .rodata        0xffffffff800d3c80      0x720 /home/asergey/runtime-EclipseApplication/x86dev/lib/libdrivers.a(ehci.o)
 .rodata        0xffffffff800d43a0      0x640 /home/asergey/runtime-EclipseApplication/x86dev/lib/libdrivers.a(xhci.o)
 .rodata        0xffffffff800d49e0       0x24 /home/asergey/runtime-EclipseApplication/x86dev/lib/libdrivers.a(uhub.o)
 *fill*         0xffffffff800d4a04       0x1c 
 .rodata        0xffffffff800d4a20      0x120 /home/asergey/runtime-EclipseApplication/x86dev/lib/libdrivers.a(ukbd.o)
                0xffffffff800d4a20                ukbd_keymapdata
 .rodata        0xffffffff800d4b40      0xa88 /home/asergey/runtime-EclipseApplication/x86dev/lib/libdrivers.a(ukbdmap.o)
                0xffffffff800d4b40                ukbd_keydesctab
 *fill*         0xffffffff800d55c8        0x8 
 .rodata        0xffffffff800d55d0      0x108 /home/asergey/runtime-EclipseApplication/x86dev/lib/libdrivers.a(umass.o)
                0xffffffff800d56a0                umass_cbi_methods
                0xffffffff800d56c0                umass_bbb_methods
 *fill*         0xffffffff800d56d8        0x8 
 .rodata        0xffffffff800d56e0      0x3e8 /home/asergey/runtime-EclipseApplication/x86dev/lib/libdrivers.a(umass_quirks.o)
 .rodata        0xffffffff800d5ac8        0x5 /home/asergey/runtime-EclipseApplication/x86dev/lib/libdrivers.a(lfatfs_mnt.o)
 *fill*         0xffffffff800d5acd       0x13 
 .rodata        0xffffffff800d5ae0      0x338 /home/asergey/runtime-EclipseApplication/x86dev/lib/libdrivers.a(msdosfs_conv.o)
                0xffffffff800d5de0                leapyear
                0xffffffff800d5e00                regyear
 *fill*         0xffffffff800d5e18        0x8 
 .rodata        0xffffffff800d5e20       0xc0 /home/asergey/runtime-EclipseApplication/x86dev/lib/libdrivers.a(ixgbe_api.o)
 .rodata        0xffffffff800d5ee0       0x40 /home/asergey/runtime-EclipseApplication/x86dev/lib/libdrivers.a(ixgbe_common.o)
 .rodata        0xffffffff800d5f20      0x14c /home/asergey/runtime-EclipseApplication/x86dev/lib/libdrivers.a(usb_quirks.o)
                0xffffffff800d5f20                usbd_no_quirk
 *fill*         0xffffffff800d606c       0x14 
 .rodata        0xffffffff800d6080      0x170 /home/asergey/runtime-EclipseApplication/x86dev/lib/libdrivers.a(usbroothub.o)
                0xffffffff800d61c0                roothub_ctrl_methods
 .rodata        0xffffffff800d61f0       0xe0 /home/asergey/runtime-EclipseApplication/x86dev/lib/libdrivers.a(hid.o)
 .rodata        0xffffffff800d62d0       0x88 /home/asergey/runtime-EclipseApplication/x86dev/lib/libdrivers_rsc.a(rddrvr.o)
 .rodata        0xffffffff800d6358       0xa8 /home/asergey/runtime-EclipseApplication/x86dev/lib/libdrivers_rsc.a(vmosdrvr.o)
 .rodata        0xffffffff800d6400      0x541 /home/asergey/runtime-EclipseApplication/x86dev/lib/libdrivers_rsc.a(arinc653drvr.o)
 *fill*         0xffffffff800d6941        0x7 
 .rodata        0xffffffff800d6948       0x40 /home/asergey/runtime-EclipseApplication/x86dev/lib/libdrivers_rsc.a(arinc653info.o)
                0xffffffff800d6950                arinc653_info
 *fill*         0xffffffff800d6988       0x18 
 .rodata        0xffffffff800d69a0      0x4c1 /home/asergey/runtime-EclipseApplication/x86dev/lib/libdrivers_rsc.a(arinc653drvr_inter.o)
 .rodata        0xffffffff800d6e61        0x6 /home/asergey/runtime-EclipseApplication/x86dev/lib/liblcs.a(arp.o)
 *fill*         0xffffffff800d6e67        0x9 
 .rodata        0xffffffff800d6e70       0x10 /home/asergey/runtime-EclipseApplication/x86dev/lib/liblcs.a(in6_ifattach.o)
 .rodata        0xffffffff800d6e80       0xa0 /home/asergey/runtime-EclipseApplication/x86dev/lib/liblcs.a(ip6_ctlo.o)
 .rodata        0xffffffff800d6f20       0x20 /home/asergey/runtime-EclipseApplication/x86dev/lib/liblcs.a(ip6_init.o)
                0xffffffff800d6f20                in6addr_loopback
                0xffffffff800d6f30                in6addr_any
 .rodata        0xffffffff800d6f40       0x30 /home/asergey/runtime-EclipseApplication/x86dev/lib/liblcs.a(tcp_inpt.o)
 .rodata        0xffffffff800d6f70       0x30 /home/asergey/runtime-EclipseApplication/x86dev/lib/liblcs.a(tcp_time.o)
 .rodata        0xffffffff800d6fa0      0x290 /home/asergey/runtime-EclipseApplication/x86dev/lib/liblcs.a(ioctl.o)
 .rodata        0xffffffff800d7230       0x50 /home/asergey/runtime-EclipseApplication/x86dev/lib/liblcs.a(sock_raw.o)
 .rodata        0xffffffff800d7280       0x50 /home/asergey/runtime-EclipseApplication/x86dev/lib/liblcs.a(sock_udp.o)
 .rodata        0xffffffff800d72d0        0xc /home/asergey/runtime-EclipseApplication/x86dev/lib/liblcs.a(llmcast.o)
 .rodata        0xffffffff800d72dc        0x6 /home/asergey/runtime-EclipseApplication/x86dev/lib/liblcs.a(lloutput.o)
 .rodata        0xffffffff800d72e2        0x6 /home/asergey/runtime-EclipseApplication/x86dev/lib/liblcs.a(arpsrch.o)
 .rodata        0xffffffff800d72e8       0x28 /home/asergey/runtime-EclipseApplication/x86dev/lib/liblcs.a(icmp6_error.o)
 .rodata        0xffffffff800d7310       0xa0 /home/asergey/runtime-EclipseApplication/x86dev/lib/liblcs.a(ip_ctlo.o)
 .rodata        0xffffffff800d73b0      0x148 /home/asergey/runtime-EclipseApplication/x86dev/lib/libnfs_client.a(unfs_driver.o)
 .rodata        0xffffffff800d74f8      0x3e8 /home/asergey/runtime-EclipseApplication/x86dev/lib/libptrace.a(ptrace.o)
 .rodata        0xffffffff800d78e0      0x128 /home/asergey/runtime-EclipseApplication/x86dev/lib/libdrm.a(pcibus.o)
 .rodata        0xffffffff800d7a08       0x88 /home/asergey/runtime-EclipseApplication/x86dev/lib/libdrm.a(drm_sysctl.o)
 .rodata        0xffffffff800d7a90       0x98 /home/asergey/runtime-EclipseApplication/x86dev/lib/libkernel.a(hwmarks.o)
 .rodata        0xffffffff800d7b28      0x1a8 /home/asergey/runtime-EclipseApplication/x86dev/lib/libkernel.a(kprintf.o)
 .rodata        0xffffffff800d7cd0        0xa /home/asergey/runtime-EclipseApplication/x86dev/lib/libkernel.a(lynxfs.o)
 *fill*         0xffffffff800d7cda        0x6 
 .rodata        0xffffffff800d7ce0       0x88 /home/asergey/runtime-EclipseApplication/x86dev/lib/libkernel.a(name_server.o)
 .rodata        0xffffffff800d7d68       0x1a /home/asergey/runtime-EclipseApplication/x86dev/lib/libkernel.a(panic.o)
 *fill*         0xffffffff800d7d82       0x1e 
 .rodata        0xffffffff800d7da0      0x100 /home/asergey/runtime-EclipseApplication/x86dev/lib/libkernel.a(time.o)
 .rodata        0xffffffff800d7ea0       0x12 /home/asergey/runtime-EclipseApplication/x86dev/lib/libkernel.a(utils.o)
 *fill*         0xffffffff800d7eb2        0x6 
 .rodata        0xffffffff800d7eb8       0x50 /home/asergey/runtime-EclipseApplication/x86dev/lib/libkernel.a(install_elf.o)
 .rodata        0xffffffff800d7f08       0x30 /home/asergey/runtime-EclipseApplication/x86dev/lib/libkernel.a(kern_sysctl.o)
 .rodata        0xffffffff800d7f38        0xc /home/asergey/runtime-EclipseApplication/x86dev/lib/libkernel.a(loadavg.o)
 *fill*         0xffffffff800d7f44       0x1c 
 .rodata        0xffffffff800d7f60      0x570 /home/asergey/runtime-EclipseApplication/x86dev/lib/libkernel.a(ttymgr.o)
 .rodata        0xffffffff800d84d0       0x18 /home/asergey/runtime-EclipseApplication/x86dev/lib/libkernel.a(getitimer.o)
 .rodata        0xffffffff800d84e8       0x50 /home/asergey/runtime-EclipseApplication/x86dev/lib/libkernel.a(fcntl.o)
 .rodata        0xffffffff800d8538        0xc /home/asergey/runtime-EclipseApplication/x86dev/lib/libkernel.a(select.o)
 *fill*         0xffffffff800d8544        0x4 
 .rodata        0xffffffff800d8548        0x8 /home/asergey/runtime-EclipseApplication/x86dev/lib/libkernel.a(kill_impl.o)
                0xffffffff800d8548                __null_sigval
 .rodata        0xffffffff800d8550       0x38 /home/asergey/runtime-EclipseApplication/x86dev/lib/libfamily_x86_64.a(syscall.o)
 *fill*         0xffffffff800d8588       0x18 
 .rodata        0xffffffff800d85a0       0xc8 /home/asergey/runtime-EclipseApplication/x86dev/lib/libcsp_x86_64.a(context.o)
 *(.rodata.*)
 .rodata.str1.1
                0xffffffff800d8668       0xf2 bsp.x86_64.o
 *fill*         0xffffffff800d875a        0x6 
 .rodata.str1.8
                0xffffffff800d8760      0x56f bsp.x86_64.o
 *fill*         0xffffffff800d8ccf        0x1 
 .rodata.str1.8
                0xffffffff800d8cd0       0x27 /home/asergey/runtime-EclipseApplication/x86dev/lib/libcsp_x86_64.a(trap.o)
 *fill*         0xffffffff800d8cf7        0x1 
 .rodata.str1.8
                0xffffffff800d8cf8       0x25 /home/asergey/runtime-EclipseApplication/x86dev/lib/libcsp_x86_64.a(csp_init_am.o)
 .rodata.str1.1
                0xffffffff800d8d1d      0x3d7 /home/asergey/runtime-EclipseApplication/x86dev/lib/libdrivers.a(ahcidrvr.o)
 *fill*         0xffffffff800d90f4        0x4 
 .rodata.str1.8
                0xffffffff800d90f8       0x62 /home/asergey/runtime-EclipseApplication/x86dev/lib/libdrivers.a(ahcidrvr.o)
 *fill*         0xffffffff800d915a        0x6 
 .rodata.str1.8
                0xffffffff800d9160     0x35de /home/asergey/runtime-EclipseApplication/x86dev/lib/libdrivers.a(kdbdrvr.o)
 .rodata.str1.1
                0xffffffff800dc73e      0x6eb /home/asergey/runtime-EclipseApplication/x86dev/lib/libdrivers.a(kdbdrvr.o)
                                        0x758 (size before relaxing)
 .rodata.str1.1
                0xffffffff800dce29       0x54 /home/asergey/runtime-EclipseApplication/x86dev/lib/libdrivers.a(lcs_emdrvr.o)
                                         0x5a (size before relaxing)
 *fill*         0xffffffff800dce7d        0x3 
 .rodata.str1.8
                0xffffffff800dce80       0x2f /home/asergey/runtime-EclipseApplication/x86dev/lib/libdrivers.a(lcs_emdrvr.o)
 *fill*         0xffffffff800dceaf        0x1 
 .rodata.str1.8
                0xffffffff800dceb0       0x2a /home/asergey/runtime-EclipseApplication/x86dev/lib/libdrivers.a(ttydrvr.o)
 .rodata.str1.1
                0xffffffff800dceda       0x15 /home/asergey/runtime-EclipseApplication/x86dev/lib/libdrivers.a(ehci_pci.o)
 .rodata.str1.1
                0xffffffff800dceef        0x7 /home/asergey/runtime-EclipseApplication/x86dev/lib/libdrivers.a(xhci_pci.o)
 *fill*         0xffffffff800dcef6        0x2 
 .rodata.str1.8
                0xffffffff800dcef8       0x21 /home/asergey/runtime-EclipseApplication/x86dev/lib/libdrivers.a(simusb.o)
 .rodata.str1.1
                0xffffffff800dcf19        0xd /home/asergey/runtime-EclipseApplication/x86dev/lib/libdrivers.a(simusb.o)
                                         0x19 (size before relaxing)
 .rodata.str1.1
                0xffffffff800dcf26      0x134 /home/asergey/runtime-EclipseApplication/x86dev/lib/libdrivers.a(scsimgr.o)
 .rodata.str1.1
                0xffffffff800dd05a       0x74 /home/asergey/runtime-EclipseApplication/x86dev/lib/libdrivers.a(usbdrvr.o)
 .rodata.str1.1
                0xffffffff800dd0ce       0x74 /home/asergey/runtime-EclipseApplication/x86dev/lib/libdrivers.a(lsk_helperdrvr.o)
                                          0x3 (size before relaxing)
 .rodata.str1.1
                0xffffffff800dd0ce       0x12 /home/asergey/runtime-EclipseApplication/x86dev/lib/libdrivers.a(lfatfsdrvr.o)
 .rodata.str1.8
                0xffffffff800dd0e0       0x67 /home/asergey/runtime-EclipseApplication/x86dev/lib/libdrivers.a(ixgbepfdrvr.o)
 .rodata.str1.1
                0xffffffff800dd147       0x65 /home/asergey/runtime-EclipseApplication/x86dev/lib/libdrivers.a(lcsdrvr.o)
 *fill*         0xffffffff800dd1ac        0x4 
 .rodata.str1.8
                0xffffffff800dd1b0       0x77 /home/asergey/runtime-EclipseApplication/x86dev/lib/libdrivers.a(lcsdrvr.o)
 .rodata.str1.1
                0xffffffff800dd227       0x14 /home/asergey/runtime-EclipseApplication/x86dev/lib/libdrivers.a(lsk_fifodrvr.o)
 .rodata.str1.1
                0xffffffff800dd23b        0xf /home/asergey/runtime-EclipseApplication/x86dev/lib/libdrivers.a(hmdrvr.o)
                                         0x18 (size before relaxing)
 *fill*         0xffffffff800dd24a        0x6 
 .rodata.str1.8
                0xffffffff800dd250       0x88 /home/asergey/runtime-EclipseApplication/x86dev/lib/libdrivers.a(hmdrvr.o)
 .rodata.str1.1
                0xffffffff800dd2d8        0x7 /home/asergey/runtime-EclipseApplication/x86dev/lib/libdrivers.a(ahci.o)
 .rodata.str1.1
                0xffffffff800dd2df     0x1115 /home/asergey/runtime-EclipseApplication/x86dev/lib/libdrivers.a(dis_x86_64.o)
                                       0x1349 (size before relaxing)
 .rodata.str1.1
                0xffffffff800de3f4      0x274 /home/asergey/runtime-EclipseApplication/x86dev/lib/libdrivers.a(kdb_x86_64.o)
                                        0x29a (size before relaxing)
 .rodata.str1.8
                0xffffffff800de668      0x340 /home/asergey/runtime-EclipseApplication/x86dev/lib/libdrivers.a(kdb_x86_64.o)
 .rodata.str1.1
                0xffffffff800de9a8      0x112 /home/asergey/runtime-EclipseApplication/x86dev/lib/libdrivers.a(remote.o)
                                        0x128 (size before relaxing)
 *fill*         0xffffffff800deaba        0x6 
 .rodata.str1.8
                0xffffffff800deac0       0x22 /home/asergey/runtime-EclipseApplication/x86dev/lib/libdrivers.a(tty_io.o)
 .rodata.str1.1
                0xffffffff800deae2       0x20 /home/asergey/runtime-EclipseApplication/x86dev/lib/libdrivers.a(usbdi.o)
 .rodata.str1.1
                0xffffffff800deb02       0xf1 /home/asergey/runtime-EclipseApplication/x86dev/lib/libdrivers.a(usb_lynxos.o)
                                         0xfd (size before relaxing)
 *fill*         0xffffffff800debf3        0x5 
 .rodata.str1.8
                0xffffffff800debf8       0x5c /home/asergey/runtime-EclipseApplication/x86dev/lib/libdrivers.a(usb_lynxos.o)
 .rodata.str1.1
                0xffffffff800dec54      0x113 /home/asergey/runtime-EclipseApplication/x86dev/lib/libdrivers.a(usb_subr.o)
                                        0x124 (size before relaxing)
 .rodata.str1.1
                0xffffffff800ded67       0x13 /home/asergey/runtime-EclipseApplication/x86dev/lib/libdrivers.a(usb_callouts.o)
 *fill*         0xffffffff800ded7a        0x6 
 .rodata.str1.8
                0xffffffff800ded80       0x23 /home/asergey/runtime-EclipseApplication/x86dev/lib/libdrivers.a(usb_callouts.o)
 .rodata.str1.1
                0xffffffff800deda3        0x7 /home/asergey/runtime-EclipseApplication/x86dev/lib/libdrivers.a(ohci_drvr.o)
                                         0x15 (size before relaxing)
 .rodata.str1.1
                0xffffffff800dedaa       0x30 /home/asergey/runtime-EclipseApplication/x86dev/lib/libdrivers.a(ohci.o)
 *fill*         0xffffffff800dedda        0x6 
 .rodata.str1.8
                0xffffffff800dede0       0x49 /home/asergey/runtime-EclipseApplication/x86dev/lib/libdrivers.a(ohci.o)
 .rodata.str1.1
                0xffffffff800dee29        0x7 /home/asergey/runtime-EclipseApplication/x86dev/lib/libdrivers.a(ohci_map.o)
 .rodata.str1.1
                0xffffffff800dee29        0x7 /home/asergey/runtime-EclipseApplication/x86dev/lib/libdrivers.a(ehci_map.o)
 .rodata.str1.1
                0xffffffff800dee29      0x3cf /home/asergey/runtime-EclipseApplication/x86dev/lib/libdrivers.a(ehci.o)
                                        0x3dc (size before relaxing)
 .rodata.str1.8
                0xffffffff800df1f8      0xa20 /home/asergey/runtime-EclipseApplication/x86dev/lib/libdrivers.a(ehci.o)
 .rodata.str1.1
                0xffffffff800dfc18        0x7 /home/asergey/runtime-EclipseApplication/x86dev/lib/libdrivers.a(xhci_map.o)
 .rodata.str1.1
                0xffffffff800dfc18        0xe /home/asergey/runtime-EclipseApplication/x86dev/lib/libdrivers.a(xhci.o)
 *fill*         0xffffffff800dfc26        0x2 
 .rodata.str1.8
                0xffffffff800dfc28       0x26 /home/asergey/runtime-EclipseApplication/x86dev/lib/libdrivers.a(xhci.o)
 *fill*         0xffffffff800dfc4e        0x2 
 .rodata.str1.8
                0xffffffff800dfc50      0x34e /home/asergey/runtime-EclipseApplication/x86dev/lib/libdrivers.a(uhub.o)
 .rodata.str1.1
                0xffffffff800dff9e      0x107 /home/asergey/runtime-EclipseApplication/x86dev/lib/libdrivers.a(uhub.o)
                                        0x10b (size before relaxing)
 *fill*         0xffffffff800e00a5        0x3 
 .rodata.str1.8
                0xffffffff800e00a8       0x23 /home/asergey/runtime-EclipseApplication/x86dev/lib/libdrivers.a(umass.o)
 .rodata.str1.1
                0xffffffff800e00cb       0x10 /home/asergey/runtime-EclipseApplication/x86dev/lib/libdrivers.a(umass.o)
 *fill*         0xffffffff800e00db        0x5 
 .rodata.str1.8
                0xffffffff800e00e0       0x37 /home/asergey/runtime-EclipseApplication/x86dev/lib/libdrivers.a(virtqueue.o)
 *fill*         0xffffffff800e0117        0x1 
 .rodata.str1.8
                0xffffffff800e0118      0x26c /home/asergey/runtime-EclipseApplication/x86dev/lib/libdrivers.a(if_igc.o)
 .rodata.str1.1
                0xffffffff800e0384       0x12 /home/asergey/runtime-EclipseApplication/x86dev/lib/libdrivers.a(lfatfs_blk.o)
 .rodata.str1.1
                0xffffffff800e0384       0x10 /home/asergey/runtime-EclipseApplication/x86dev/lib/libdrivers.a(lfatfs_dent.o)
                                         0x17 (size before relaxing)
 .rodata.str1.1
                0xffffffff800e0384       0x12 /home/asergey/runtime-EclipseApplication/x86dev/lib/libdrivers.a(lfatfs_dir.o)
 .rodata.str1.1
                0xffffffff800e0384       0x12 /home/asergey/runtime-EclipseApplication/x86dev/lib/libdrivers.a(lfatfs_inode.o)
 *fill*         0xffffffff800e0384        0x4 
 .rodata.str1.8
                0xffffffff800e0388       0x37 /home/asergey/runtime-EclipseApplication/x86dev/lib/libdrivers.a(lfatfs_inode.o)
 .rodata.str1.1
                0xffffffff800e03bf       0x24 /home/asergey/runtime-EclipseApplication/x86dev/lib/libdrivers.a(lfatfs_mnt.o)
 .rodata.str1.1
                0xffffffff800e03e3       0x19 /home/asergey/runtime-EclipseApplication/x86dev/lib/libdrivers.a(msdosfs_denode.o)
 .rodata.str1.1
                0xffffffff800e03fc       0x18 /home/asergey/runtime-EclipseApplication/x86dev/lib/libdrivers.a(msdosfs_lookup.o)
 .rodata.str1.1
                0xffffffff800e0414       0x18 /home/asergey/runtime-EclipseApplication/x86dev/lib/libdrivers.a(ixgbe_common.o)
 .rodata.str1.1
                0xffffffff800e042c       0x18 /home/asergey/runtime-EclipseApplication/x86dev/lib/libdrivers.a(ixgbepf_vf_common.o)
 .rodata.str1.1
                0xffffffff800e042c        0xb /home/asergey/runtime-EclipseApplication/x86dev/lib/libdrivers.a(lcsthreads.o)
 .rodata.str1.1
                0xffffffff800e0437        0x7 /home/asergey/runtime-EclipseApplication/x86dev/lib/libdrivers.a(usbdi_util.o)
 .rodata.str1.1
                0xffffffff800e0437        0xf /home/asergey/runtime-EclipseApplication/x86dev/lib/libdrivers.a(usb_mem.o)
 .rodata.str1.1
                0xffffffff800e0446        0xe /home/asergey/runtime-EclipseApplication/x86dev/lib/libdrivers.a(usbroothub.o)
 *fill*         0xffffffff800e0454        0x4 
 .rodata.str1.8
                0xffffffff800e0458       0x99 /home/asergey/runtime-EclipseApplication/x86dev/lib/libdrivers_rsc.a(rddrvr.o)
 .rodata.str1.1
                0xffffffff800e04f1        0x3 /home/asergey/runtime-EclipseApplication/x86dev/lib/libdrivers_rsc.a(rddrvr.o)
 .rodata.str1.1
                0xffffffff800e04f1       0x29 /home/asergey/runtime-EclipseApplication/x86dev/lib/libdrivers_rsc.a(rdinfo.o)
 *fill*         0xffffffff800e051a        0x6 
 .rodata.str1.8
                0xffffffff800e0520       0xc3 /home/asergey/runtime-EclipseApplication/x86dev/lib/libdrivers_rsc.a(vmosdrvr.o)
 .rodata.str1.1
                0xffffffff800e05e3        0x8 /home/asergey/runtime-EclipseApplication/x86dev/lib/libdrivers_rsc.a(vmosdrvr.o)
 *fill*         0xffffffff800e05eb        0x5 
 .rodata.str1.8
                0xffffffff800e05f0      0x317 /home/asergey/runtime-EclipseApplication/x86dev/lib/libdrivers_rsc.a(arinc653drvr.o)
 *fill*         0xffffffff800e0907        0x1 
 .rodata.str1.8
                0xffffffff800e0908      0x29a /home/asergey/runtime-EclipseApplication/x86dev/lib/libdrivers_rsc.a(arinc653drvr_inter.o)
                                        0x2c2 (size before relaxing)
 .rodata.str1.1
                0xffffffff800e0ba2       0x1d /home/asergey/runtime-EclipseApplication/x86dev/lib/libdrivers_rsc.a(arinc653drvr_inter.o)
 .rodata.str1.1
                0xffffffff800e0bbf        0xf /home/asergey/runtime-EclipseApplication/x86dev/lib/liblcs.a(lldinit.o)
                                         0x12 (size before relaxing)
 .rodata.str1.1
                0xffffffff800e0bce       0x1f /home/asergey/runtime-EclipseApplication/x86dev/lib/liblcs.a(llinput.o)
 .rodata.str1.8
                0xffffffff800e0bed       0x52 /home/asergey/runtime-EclipseApplication/x86dev/lib/liblcs.a(llinput.o)
 *fill*         0xffffffff800e0bed        0x3 
 .rodata.str1.8
                0xffffffff800e0bf0       0x54 /home/asergey/runtime-EclipseApplication/x86dev/lib/liblcs.a(arminit.o)
                                         0xac (size before relaxing)
 .rodata.str1.1
                0xffffffff800e0c44        0xa /home/asergey/runtime-EclipseApplication/x86dev/lib/liblcs.a(arminit.o)
 .rodata.str1.1
                0xffffffff800e0c4e        0x6 /home/asergey/runtime-EclipseApplication/x86dev/lib/liblcs.a(arp.o)
 *fill*         0xffffffff800e0c54        0x4 
 .rodata.str1.8
                0xffffffff800e0c58       0x74 /home/asergey/runtime-EclipseApplication/x86dev/lib/liblcs.a(ip6_init.o)
                                         0xcc (size before relaxing)
 .rodata.str1.1
                0xffffffff800e0ccc        0xb /home/asergey/runtime-EclipseApplication/x86dev/lib/liblcs.a(ip6_init.o)
 .rodata.str1.1
                0xffffffff800e0cd7        0xc /home/asergey/runtime-EclipseApplication/x86dev/lib/liblcs.a(ip6_input.o)
 .rodata.str1.1
                0xffffffff800e0ce3        0xb /home/asergey/runtime-EclipseApplication/x86dev/lib/liblcs.a(ip_input.o)
 .rodata.str1.1
                0xffffffff800e0cee       0x29 /home/asergey/runtime-EclipseApplication/x86dev/lib/liblcs.a(tcp_init.o)
 .rodata.str1.8
                0xffffffff800e0d17       0x52 /home/asergey/runtime-EclipseApplication/x86dev/lib/liblcs.a(tcp_init.o)
 .rodata.str1.1
                0xffffffff800e0d17        0xa /home/asergey/runtime-EclipseApplication/x86dev/lib/liblcs.a(tcp_pcb.o)
 *fill*         0xffffffff800e0d21        0x7 
 .rodata.str1.8
                0xffffffff800e0d28       0x48 /home/asergey/runtime-EclipseApplication/x86dev/lib/liblcs.a(ioctl.o)
 .rodata.str1.8
                0xffffffff800e0d70       0x50 /home/asergey/runtime-EclipseApplication/x86dev/lib/liblcs.a(sock.o)
                                         0xa8 (size before relaxing)
 .rodata.str1.1
                0xffffffff800e0dc0       0x28 /home/asergey/runtime-EclipseApplication/x86dev/lib/liblcs.a(sock.o)
 .rodata.str1.1
                0xffffffff800e0de8       0x40 /home/asergey/runtime-EclipseApplication/x86dev/lib/liblcs.a(sock_tcp.o)
 .rodata.str1.8
                0xffffffff800e0e28       0x21 /home/asergey/runtime-EclipseApplication/x86dev/lib/liblcs.a(sock_tcp.o)
                                         0x79 (size before relaxing)
 .rodata.str1.1
                0xffffffff800e0e49       0x24 /home/asergey/runtime-EclipseApplication/x86dev/lib/liblcs.a(tmrinit.o)
 .rodata.str1.8
                0xffffffff800e0e6d       0x52 /home/asergey/runtime-EclipseApplication/x86dev/lib/liblcs.a(tmrinit.o)
 .rodata.str1.1
                0xffffffff800e0e6d        0xb /home/asergey/runtime-EclipseApplication/x86dev/lib/liblcs.a(iorbfree.o)
 .rodata.str1.1
                0xffffffff800e0e78        0xa /home/asergey/runtime-EclipseApplication/x86dev/lib/liblcs.a(iorbdup.o)
 .rodata.str1.1
                0xffffffff800e0e82        0xa /home/asergey/runtime-EclipseApplication/x86dev/lib/liblcs.a(iorbget.o)
 .rodata.str1.1
                0xffffffff800e0e8c        0xb /home/asergey/runtime-EclipseApplication/x86dev/lib/liblcs.a(iorbunlk.o)
 *fill*         0xffffffff800e0e97        0x1 
 .rodata.str1.8
                0xffffffff800e0e98       0x28 /home/asergey/runtime-EclipseApplication/x86dev/lib/liblcs.a(hm.o)
 .rodata.str1.1
                0xffffffff800e0ec0        0x3 /home/asergey/runtime-EclipseApplication/x86dev/lib/liblcs.a(hm.o)
 .rodata.str1.1
                0xffffffff800e0ec0        0xa /home/asergey/runtime-EclipseApplication/x86dev/lib/liblcs.a(psbscap.o)
 .rodata.str1.1
                0xffffffff800e0eca        0xa /home/asergey/runtime-EclipseApplication/x86dev/lib/liblcs.a(llmcast.o)
 .rodata.str1.1
                0xffffffff800e0ed4        0xb /home/asergey/runtime-EclipseApplication/x86dev/lib/liblcs.a(lloutput.o)
 .rodata.str1.1
                0xffffffff800e0edf        0xa /home/asergey/runtime-EclipseApplication/x86dev/lib/liblcs.a(arpsrch.o)
 *fill*         0xffffffff800e0ee9        0x7 
 .rodata.str1.8
                0xffffffff800e0ef0       0x6d /home/asergey/runtime-EclipseApplication/x86dev/lib/liblcs.a(ip6_outpt.o)
                                         0xc5 (size before relaxing)
 .rodata.str1.1
                0xffffffff800e0f5d        0xc /home/asergey/runtime-EclipseApplication/x86dev/lib/liblcs.a(ip6_outpt.o)
 *fill*         0xffffffff800e0f69        0x7 
 .rodata.str1.8
                0xffffffff800e0f70       0x8b /home/asergey/runtime-EclipseApplication/x86dev/lib/liblcs.a(ip_outpt.o)
                                         0xe3 (size before relaxing)
 .rodata.str1.1
                0xffffffff800e0ffb        0xb /home/asergey/runtime-EclipseApplication/x86dev/lib/liblcs.a(ip_outpt.o)
 .rodata.str1.1
                0xffffffff800e1006        0xb /home/asergey/runtime-EclipseApplication/x86dev/lib/liblcs.a(tcp_atch.o)
 .rodata.str1.1
                0xffffffff800e1011        0xb /home/asergey/runtime-EclipseApplication/x86dev/lib/liblcs.a(tcp_disc.o)
 .rodata.str1.1
                0xffffffff800e101c        0xb /home/asergey/runtime-EclipseApplication/x86dev/lib/liblcs.a(tcp_conn.o)
 .rodata.str1.1
                0xffffffff800e1027        0x8 /home/asergey/runtime-EclipseApplication/x86dev/lib/libnfs_client.a(nfs_file_open.o)
                                          0xd (size before relaxing)
 *fill*         0xffffffff800e102f        0x1 
 .rodata.str1.8
                0xffffffff800e1030       0x23 /home/asergey/runtime-EclipseApplication/x86dev/lib/libnfs_client.a(nfs_file_open.o)
 .rodata.str1.1
                0xffffffff800e1053       0x1c /home/asergey/runtime-EclipseApplication/x86dev/lib/libnfs_client.a(nfs_inode.o)
 .rodata.str1.1
                0xffffffff800e106f       0x18 /home/asergey/runtime-EclipseApplication/x86dev/lib/libnfs_client.a(unfs_driver.o)
 *fill*         0xffffffff800e1087        0x1 
 .rodata.str1.8
                0xffffffff800e1088      0x198 /home/asergey/runtime-EclipseApplication/x86dev/lib/libnfs_client.a(unfs_driver.o)
 .rodata.str1.8
                0xffffffff800e1220       0xd1 /home/asergey/runtime-EclipseApplication/x86dev/lib/libnfs_client.a(nfs_mount.o)
 .rodata.str1.1
                0xffffffff800e12f1        0x3 /home/asergey/runtime-EclipseApplication/x86dev/lib/libnfs_client.a(nfs_mount.o)
 *fill*         0xffffffff800e12f1        0x7 
 .rodata.str1.8
                0xffffffff800e12f8       0x2f /home/asergey/runtime-EclipseApplication/x86dev/lib/libptrace.a(ptrace.o)
 *fill*         0xffffffff800e1327        0x1 
 .rodata.str1.8
                0xffffffff800e1328       0xd9 /home/asergey/runtime-EclipseApplication/x86dev/lib/libdrm.a(pcibus.o)
 .rodata.str1.1
                0xffffffff800e1401       0x3e /home/asergey/runtime-EclipseApplication/x86dev/lib/libdrm.a(drm_sysctl.o)
                                         0x40 (size before relaxing)
 .rodata.str1.1
                0xffffffff800e143f        0x4 /home/asergey/runtime-EclipseApplication/x86dev/lib/libdrm.a(pci_sysctl.o)
                                          0x6 (size before relaxing)
 .rodata.str1.1
                0xffffffff800e1443       0x16 /home/asergey/runtime-EclipseApplication/x86dev/lib/libkernel.a(deliver.o)
 *fill*         0xffffffff800e1459        0x7 
 .rodata.str1.8
                0xffffffff800e1460       0x7c /home/asergey/runtime-EclipseApplication/x86dev/lib/libkernel.a(deliver.o)
 .rodata.str1.1
                0xffffffff800e14dc        0xb /home/asergey/runtime-EclipseApplication/x86dev/lib/libkernel.a(environ.o)
 .rodata.str1.1
                0xffffffff800e14e7        0x7 /home/asergey/runtime-EclipseApplication/x86dev/lib/libkernel.a(exception.o)
 .rodata.str1.1
                0xffffffff800e14ee        0x5 /home/asergey/runtime-EclipseApplication/x86dev/lib/libkernel.a(file_open.o)
 *fill*         0xffffffff800e14ee        0x2 
 .rodata.str1.8
                0xffffffff800e14f0       0x5f /home/asergey/runtime-EclipseApplication/x86dev/lib/libkernel.a(getmem.o)
 *fill*         0xffffffff800e154f        0x1 
 .rodata.str1.8
                0xffffffff800e1550      0x3ca /home/asergey/runtime-EclipseApplication/x86dev/lib/libkernel.a(hwmarks.o)
 .rodata.str1.1
                0xffffffff800e191a      0x1ee /home/asergey/runtime-EclipseApplication/x86dev/lib/libkernel.a(hwmarks.o)
 .rodata.str1.8
                0xffffffff800e1b08       0x5f /home/asergey/runtime-EclipseApplication/x86dev/lib/libkernel.a(initdrivers.o)
 *fill*         0xffffffff800e1b67        0x1 
 .rodata.str1.8
                0xffffffff800e1b68       0x24 /home/asergey/runtime-EclipseApplication/x86dev/lib/libkernel.a(ioint.o)
 .rodata.str1.1
                0xffffffff800e1b8c       0x1a /home/asergey/runtime-EclipseApplication/x86dev/lib/libkernel.a(ioint.o)
 .rodata.str1.1
                0xffffffff800e1ba6       0x21 /home/asergey/runtime-EclipseApplication/x86dev/lib/libkernel.a(kern_syms.o)
 *fill*         0xffffffff800e1bc7        0x1 
 .rodata.str1.8
                0xffffffff800e1bc8       0x52 /home/asergey/runtime-EclipseApplication/x86dev/lib/libkernel.a(globswap.o)
 .rodata.str1.1
                0xffffffff800e1c1a       0x2f /home/asergey/runtime-EclipseApplication/x86dev/lib/libkernel.a(lynxfs.o)
                                         0x44 (size before relaxing)
 *fill*         0xffffffff800e1c49        0x7 
 .rodata.str1.8
                0xffffffff800e1c50       0x59 /home/asergey/runtime-EclipseApplication/x86dev/lib/libkernel.a(lynxfs.o)
 .rodata.str1.1
                0xffffffff800e1ca9        0xc /home/asergey/runtime-EclipseApplication/x86dev/lib/libkernel.a(main.o)
                                         0x18 (size before relaxing)
 *fill*         0xffffffff800e1cb5        0x3 
 .rodata.str1.8
                0xffffffff800e1cb8       0x28 /home/asergey/runtime-EclipseApplication/x86dev/lib/libkernel.a(main.o)
 .rodata.str1.8
                0xffffffff800e1ce0       0x58 /home/asergey/runtime-EclipseApplication/x86dev/lib/libkernel.a(mem_map.o)
 .rodata.str1.1
                0xffffffff800e1d38       0xa9 /home/asergey/runtime-EclipseApplication/x86dev/lib/libkernel.a(name_server.o)
                                         0xab (size before relaxing)
 .rodata.str1.1
                0xffffffff800e1de1       0x1a /home/asergey/runtime-EclipseApplication/x86dev/lib/libkernel.a(pagefault.o)
 *fill*         0xffffffff800e1dfb        0x5 
 .rodata.str1.8
                0xffffffff800e1e00       0x4c /home/asergey/runtime-EclipseApplication/x86dev/lib/libkernel.a(pagefault.o)
 .rodata.str1.1
                0xffffffff800e1e4c       0x18 /home/asergey/runtime-EclipseApplication/x86dev/lib/libkernel.a(procinit.o)
                                         0x46 (size before relaxing)
 *fill*         0xffffffff800e1e64        0x4 
 .rodata.str1.8
                0xffffffff800e1e68      0x19b /home/asergey/runtime-EclipseApplication/x86dev/lib/libkernel.a(procinit.o)
 *fill*         0xffffffff800e2003        0x5 
 .rodata.str1.8
                0xffffffff800e2008       0x22 /home/asergey/runtime-EclipseApplication/x86dev/lib/libkernel.a(resched.o)
 .rodata.str1.1
                0xffffffff800e202a       0x1d /home/asergey/runtime-EclipseApplication/x86dev/lib/libkernel.a(rtimeset.o)
 *fill*         0xffffffff800e2047        0x1 
 .rodata.str1.8
                0xffffffff800e2048       0x37 /home/asergey/runtime-EclipseApplication/x86dev/lib/libkernel.a(stask.o)
 *fill*         0xffffffff800e207f        0x1 
 .rodata.str1.8
                0xffffffff800e2080       0x1f /home/asergey/runtime-EclipseApplication/x86dev/lib/libkernel.a(tde.o)
 *fill*         0xffffffff800e209f        0x1 
 .rodata.str1.8
                0xffffffff800e20a0       0x31 /home/asergey/runtime-EclipseApplication/x86dev/lib/libkernel.a(threads.o)
 .rodata.str1.1
                0xffffffff800e20d1        0xd /home/asergey/runtime-EclipseApplication/x86dev/lib/libkernel.a(time.o)
 *fill*         0xffffffff800e20de        0x2 
 .rodata.str1.8
                0xffffffff800e20e0       0x24 /home/asergey/runtime-EclipseApplication/x86dev/lib/libkernel.a(time.o)
 *fill*         0xffffffff800e2104        0x4 
 .rodata.str1.8
                0xffffffff800e2108       0x3b /home/asergey/runtime-EclipseApplication/x86dev/lib/libkernel.a(timeout.o)
 .rodata.str1.1
                0xffffffff800e2143        0xe /home/asergey/runtime-EclipseApplication/x86dev/lib/libkernel.a(timeout.o)
 *fill*         0xffffffff800e2151        0x7 
 .rodata.str1.8
                0xffffffff800e2158       0x23 /home/asergey/runtime-EclipseApplication/x86dev/lib/libkernel.a(utils.o)
 *fill*         0xffffffff800e217b        0x5 
 .rodata.str1.8
                0xffffffff800e2180       0xcc /home/asergey/runtime-EclipseApplication/x86dev/lib/libkernel.a(vmos_rinsert.o)
 *fill*         0xffffffff800e224c        0x4 
 .rodata.str1.8
                0xffffffff800e2250       0x61 /home/asergey/runtime-EclipseApplication/x86dev/lib/libkernel.a(execve.o)
 .rodata.str1.1
                0xffffffff800e22b1       0x87 /home/asergey/runtime-EclipseApplication/x86dev/lib/libkernel.a(execve.o)
 .rodata.str1.1
                0xffffffff800e2338       0x1f /home/asergey/runtime-EclipseApplication/x86dev/lib/libkernel.a(fork.o)
 *fill*         0xffffffff800e2357        0x1 
 .rodata.str1.8
                0xffffffff800e2358      0x164 /home/asergey/runtime-EclipseApplication/x86dev/lib/libkernel.a(fork.o)
 *fill*         0xffffffff800e24bc        0x4 
 .rodata.str1.8
                0xffffffff800e24c0       0x9f /home/asergey/runtime-EclipseApplication/x86dev/lib/libkernel.a(install_elf.o)
 .rodata.str1.1
                0xffffffff800e255f       0xcb /home/asergey/runtime-EclipseApplication/x86dev/lib/libkernel.a(install_elf.o)
                                         0xd8 (size before relaxing)
 .rodata.str1.1
                0xffffffff800e262a       0x15 /home/asergey/runtime-EclipseApplication/x86dev/lib/libkernel.a(init_global_resources.o)
 *fill*         0xffffffff800e262a        0x6 
 .rodata.str1.8
                0xffffffff800e2630       0xbd /home/asergey/runtime-EclipseApplication/x86dev/lib/libkernel.a(mempartition.o)
 .rodata.str1.1
                0xffffffff800e26ed       0x1a /home/asergey/runtime-EclipseApplication/x86dev/lib/libkernel.a(mempartition.o)
 *fill*         0xffffffff800e2707        0x1 
 .rodata.str1.8
                0xffffffff800e2708       0x21 /home/asergey/runtime-EclipseApplication/x86dev/lib/libkernel.a(sc_router.o)
 .rodata.str1.1
                0xffffffff800e2729        0x3 /home/asergey/runtime-EclipseApplication/x86dev/lib/libkernel.a(sc_router.o)
 .rodata.str1.1
                0xffffffff800e2729      0x976 /home/asergey/runtime-EclipseApplication/x86dev/lib/libkernel.a(syscall_table.o)
                                        0x99f (size before relaxing)
 *fill*         0xffffffff800e309f        0x1 
 .rodata.str1.8
                0xffffffff800e30a0       0x26 /home/asergey/runtime-EclipseApplication/x86dev/lib/libkernel.a(wait.o)
 .rodata.str1.1
                0xffffffff800e30c6       0x1d /home/asergey/runtime-EclipseApplication/x86dev/lib/libkernel.a(cprintf.o)
 .rodata.str1.1
                0xffffffff800e30e3       0x48 /home/asergey/runtime-EclipseApplication/x86dev/lib/libkernel.a(kern_mib.o)
                                         0x62 (size before relaxing)
 .rodata.str1.1
                0xffffffff800e312b       0x59 /home/asergey/runtime-EclipseApplication/x86dev/lib/libkernel.a(kern_sysctl.o)
                                         0x73 (size before relaxing)
 .rodata.str1.1
                0xffffffff800e3184        0x6 /home/asergey/runtime-EclipseApplication/x86dev/lib/libkernel.a(ttymgr.o)
                                         0x14 (size before relaxing)
 *fill*         0xffffffff800e318a        0x6 
 .rodata.str1.8
                0xffffffff800e3190       0x2c /home/asergey/runtime-EclipseApplication/x86dev/lib/libkernel.a(clock_impl.o)
                                         0x54 (size before relaxing)
 *fill*         0xffffffff800e31bc        0x4 
 .rodata.str1.8
                0xffffffff800e31c0       0x4a /home/asergey/runtime-EclipseApplication/x86dev/lib/libkernel.a(reboot_impl.o)
 .rodata.str1.1
                0xffffffff800e320a       0x27 /home/asergey/runtime-EclipseApplication/x86dev/lib/libkernel.a(get_resource_entry.o)
 *fill*         0xffffffff800e3231        0x7 
 .rodata.str1.8
                0xffffffff800e3238       0x2a /home/asergey/runtime-EclipseApplication/x86dev/lib/libkernel.a(ptrace.o)
 .rodata.str1.1
                0xffffffff800e3262       0x64 /home/asergey/runtime-EclipseApplication/x86dev/lib/libkernel.a(mount_impl.o)
                                         0x79 (size before relaxing)
 *fill*         0xffffffff800e32c6        0x2 
 .rodata.str1.8
                0xffffffff800e32c8      0x1a0 /home/asergey/runtime-EclipseApplication/x86dev/lib/libkernel.a(mount_impl.o)
 .rodata.str1.1
                0xffffffff800e3468        0x3 /home/asergey/runtime-EclipseApplication/x86dev/lib/libkernel.a(mount.o)
 .rodata.str1.8
                0xffffffff800e3468       0x4b /home/asergey/runtime-EclipseApplication/x86dev/lib/libkernel.a(mount.o)
 .rodata.str1.1
                0xffffffff800e34b3        0x3 /home/asergey/runtime-EclipseApplication/x86dev/lib/libkernel.a(link_impl.o)
 *fill*         0xffffffff800e34b3        0x5 
 .rodata.str1.8
                0xffffffff800e34b8       0x20 /home/asergey/runtime-EclipseApplication/x86dev/lib/libkernel.a(kill_impl.o)
 .rodata.str1.8
                0xffffffff800e34d8       0x59 /home/asergey/runtime-EclipseApplication/x86dev/lib/libfamily_x86_64.a(csp_misc.o)
 *fill*         0xffffffff800e3531        0x7 
 .rodata.str1.8
                0xffffffff800e3538       0x2c /home/asergey/runtime-EclipseApplication/x86dev/lib/libcsp_x86_64.a(context.o)
 .rodata.str1.1
                0xffffffff800e3564       0x12 /home/asergey/runtime-EclipseApplication/x86dev/lib/libcsp_x86_64.a(context.o)
                                         0x75 (size before relaxing)
 *fill*         0xffffffff800e3576        0x2 
 .rodata.str1.8
                0xffffffff800e3578       0x27 /home/asergey/runtime-EclipseApplication/x86dev/lib/libcsp_x86_64.a(fpu.o)
 .rodata.str1.1
                0xffffffff800e359f       0x1f /home/asergey/runtime-EclipseApplication/x86dev/lib/libptrace.a(core.o)
 *(.gnu.linkonce.r*)

.eh_frame       0xffffffff800e35c0    0x217e4
 .eh_frame      0xffffffff800e35c0      0x8a0 bsp.x86_64.o
                                        0xa60 (size before relaxing)
 .eh_frame      0xffffffff800e3e60       0xa0 conf_am.o
                                         0xb8 (size before relaxing)
 .eh_frame      0xffffffff800e3f00       0xa0 conf.o
                                         0xb8 (size before relaxing)
 .eh_frame      0xffffffff800e3fa0       0x40 info.o
                                         0x58 (size before relaxing)
 .eh_frame      0xffffffff800e3fe0       0x48 /home/asergey/runtime-EclipseApplication/x86dev/lib/libcsp_x86_64.a(csp_init.o)
                                         0x60 (size before relaxing)
 .eh_frame      0xffffffff800e4028       0x18 /home/asergey/runtime-EclipseApplication/x86dev/lib/libcsp_x86_64.a(csp_mem_map_am.o)
                                         0x30 (size before relaxing)
 .eh_frame      0xffffffff800e4040       0x78 /home/asergey/runtime-EclipseApplication/x86dev/lib/libcsp_x86_64.a(launch_am.o)
                                         0x90 (size before relaxing)
 .eh_frame      0xffffffff800e40b8       0xc0 /home/asergey/runtime-EclipseApplication/x86dev/lib/libcsp_x86_64.a(lowInit.o)
                                         0xd8 (size before relaxing)
 .eh_frame      0xffffffff800e4178      0x148 /home/asergey/runtime-EclipseApplication/x86dev/lib/libcsp_x86_64.a(trap.o)
                                        0x160 (size before relaxing)
 .eh_frame      0xffffffff800e42c0       0x48 /home/asergey/runtime-EclipseApplication/x86dev/lib/libcsp_x86_64.a(csp_cache.o)
                                         0x60 (size before relaxing)
 .eh_frame      0xffffffff800e4308       0x58 /home/asergey/runtime-EclipseApplication/x86dev/lib/libcsp_x86_64.a(csp_init_am.o)
                                         0x70 (size before relaxing)
 .eh_frame      0xffffffff800e4360      0x3f0 /home/asergey/runtime-EclipseApplication/x86dev/lib/libdrivers.a(ahcidrvr.o)
                                        0x408 (size before relaxing)
 .eh_frame      0xffffffff800e4750      0xd60 /home/asergey/runtime-EclipseApplication/x86dev/lib/libdrivers.a(kdbdrvr.o)
                                        0xd78 (size before relaxing)
 .eh_frame      0xffffffff800e54b0      0x7a8 /home/asergey/runtime-EclipseApplication/x86dev/lib/libdrivers.a(lcs_emdrvr.o)
                                        0x7c0 (size before relaxing)
 .eh_frame      0xffffffff800e5c58       0x20 /home/asergey/runtime-EclipseApplication/x86dev/lib/libdrivers.a(ptracedrvr.o)
                                         0x38 (size before relaxing)
 .eh_frame      0xffffffff800e5c78      0x358 /home/asergey/runtime-EclipseApplication/x86dev/lib/libdrivers.a(tty_16550.o)
                                        0x370 (size before relaxing)
 .eh_frame      0xffffffff800e5fd0      0x2f0 /home/asergey/runtime-EclipseApplication/x86dev/lib/libdrivers.a(ttydrvr.o)
                                        0x308 (size before relaxing)
 .eh_frame      0xffffffff800e62c0       0x48 /home/asergey/runtime-EclipseApplication/x86dev/lib/libdrivers.a(ehci_pci.o)
                                         0x60 (size before relaxing)
 .eh_frame      0xffffffff800e6308       0x30 /home/asergey/runtime-EclipseApplication/x86dev/lib/libdrivers.a(xhci_pci.o)
                                         0x48 (size before relaxing)
 .eh_frame      0xffffffff800e6338      0x308 /home/asergey/runtime-EclipseApplication/x86dev/lib/libdrivers.a(simusb.o)
                                        0x320 (size before relaxing)
 .eh_frame      0xffffffff800e6640      0xaa0 /home/asergey/runtime-EclipseApplication/x86dev/lib/libdrivers.a(scsimgr.o)
                                        0xab8 (size before relaxing)
 .eh_frame      0xffffffff800e70e0      0x418 /home/asergey/runtime-EclipseApplication/x86dev/lib/libdrivers.a(usbdrvr.o)
                                        0x430 (size before relaxing)
 .eh_frame      0xffffffff800e74f8      0x158 /home/asergey/runtime-EclipseApplication/x86dev/lib/libdrivers.a(virtio_netdrvr.o)
                                        0x170 (size before relaxing)
 .eh_frame      0xffffffff800e7650       0x48 /home/asergey/runtime-EclipseApplication/x86dev/lib/libdrivers.a(lsk_helperdrvr.o)
                                         0x60 (size before relaxing)
 .eh_frame      0xffffffff800e7698      0x178 /home/asergey/runtime-EclipseApplication/x86dev/lib/libdrivers.a(lcs_igcdrvr.o)
                                        0x190 (size before relaxing)
 .eh_frame      0xffffffff800e7810       0x50 /home/asergey/runtime-EclipseApplication/x86dev/lib/libdrivers.a(memdrvr.o)
                                         0x68 (size before relaxing)
 .eh_frame      0xffffffff800e7860      0x108 /home/asergey/runtime-EclipseApplication/x86dev/lib/libdrivers.a(ptydrvr.o)
                                        0x120 (size before relaxing)
 .eh_frame      0xffffffff800e7968       0xb0 /home/asergey/runtime-EclipseApplication/x86dev/lib/libdrivers.a(rnddrvr.o)
                                         0xc8 (size before relaxing)
 .eh_frame      0xffffffff800e7a18       0xb8 /home/asergey/runtime-EclipseApplication/x86dev/lib/libdrivers.a(lfatfsdrvr.o)
                                         0xd0 (size before relaxing)
 .eh_frame      0xffffffff800e7ad0      0x2a8 /home/asergey/runtime-EclipseApplication/x86dev/lib/libdrivers.a(ixgbepfdrvr.o)
                                        0x2c0 (size before relaxing)
 .eh_frame      0xffffffff800e7d78      0x1a0 /home/asergey/runtime-EclipseApplication/x86dev/lib/libdrivers.a(lcsdrvr.o)
                                        0x1b8 (size before relaxing)
 .eh_frame      0xffffffff800e7f18       0x48 /home/asergey/runtime-EclipseApplication/x86dev/lib/libdrivers.a(lsk_fifo_pci.o)
                                         0x60 (size before relaxing)
 .eh_frame      0xffffffff800e7f60       0xf0 /home/asergey/runtime-EclipseApplication/x86dev/lib/libdrivers.a(lsk_fifodrvr.o)
                                        0x108 (size before relaxing)
 .eh_frame      0xffffffff800e8050      0x4f0 /home/asergey/runtime-EclipseApplication/x86dev/lib/libdrivers.a(hmdrvr.o)
                                        0x508 (size before relaxing)
 .eh_frame      0xffffffff800e8540       0x80 /home/asergey/runtime-EclipseApplication/x86dev/lib/libdrivers.a(mmapdrvr.o)
                                         0x98 (size before relaxing)
 .eh_frame      0xffffffff800e85c0      0x7d8 /home/asergey/runtime-EclipseApplication/x86dev/lib/libdrivers.a(ahci.o)
                                        0x7f0 (size before relaxing)
 .eh_frame      0xffffffff800e8d98      0x110 /home/asergey/runtime-EclipseApplication/x86dev/lib/libdrivers.a(ahci-port.o)
                                        0x128 (size before relaxing)
 .eh_frame      0xffffffff800e8ea8     0x10f8 /home/asergey/runtime-EclipseApplication/x86dev/lib/libdrivers.a(dis_x86_64.o)
                                       0x1110 (size before relaxing)
 .eh_frame      0xffffffff800e9fa0      0x2c0 /home/asergey/runtime-EclipseApplication/x86dev/lib/libdrivers.a(kdb_x86_64.o)
                                        0x2d8 (size before relaxing)
 .eh_frame      0xffffffff800ea260      0x680 /home/asergey/runtime-EclipseApplication/x86dev/lib/libdrivers.a(remote.o)
                                        0x698 (size before relaxing)
 .eh_frame      0xffffffff800ea8e0       0x78 /home/asergey/runtime-EclipseApplication/x86dev/lib/libdrivers.a(tty_io.o)
                                         0x90 (size before relaxing)
 .eh_frame      0xffffffff800ea958      0x608 /home/asergey/runtime-EclipseApplication/x86dev/lib/libdrivers.a(usbdi.o)
                                        0x620 (size before relaxing)
 .eh_frame      0xffffffff800eaf60      0x508 /home/asergey/runtime-EclipseApplication/x86dev/lib/libdrivers.a(usb_lynxos.o)
                                        0x520 (size before relaxing)
 .eh_frame      0xffffffff800eb468      0x5a0 /home/asergey/runtime-EclipseApplication/x86dev/lib/libdrivers.a(usb_subr.o)
                                        0x5b8 (size before relaxing)
 .eh_frame      0xffffffff800eba08       0xc8 /home/asergey/runtime-EclipseApplication/x86dev/lib/libdrivers.a(usb_callouts.o)
                                         0xe0 (size before relaxing)
 .eh_frame      0xffffffff800ebad0       0x90 /home/asergey/runtime-EclipseApplication/x86dev/lib/libdrivers.a(ohci_drvr.o)
                                         0xa8 (size before relaxing)
 .eh_frame      0xffffffff800ebb60      0x898 /home/asergey/runtime-EclipseApplication/x86dev/lib/libdrivers.a(ohci.o)
                                        0x8b0 (size before relaxing)
 .eh_frame      0xffffffff800ec3f8       0x98 /home/asergey/runtime-EclipseApplication/x86dev/lib/libdrivers.a(ohci_map.o)
                                         0xb0 (size before relaxing)
 .eh_frame      0xffffffff800ec490       0x80 /home/asergey/runtime-EclipseApplication/x86dev/lib/libdrivers.a(ehci_map.o)
                                         0x98 (size before relaxing)
 .eh_frame      0xffffffff800ec510      0x9c8 /home/asergey/runtime-EclipseApplication/x86dev/lib/libdrivers.a(ehci.o)
                                        0x9e0 (size before relaxing)
 .eh_frame      0xffffffff800eced8       0x78 /home/asergey/runtime-EclipseApplication/x86dev/lib/libdrivers.a(xhci_map.o)
                                         0x90 (size before relaxing)
 .eh_frame      0xffffffff800ecf50      0x870 /home/asergey/runtime-EclipseApplication/x86dev/lib/libdrivers.a(xhci.o)
                                        0x888 (size before relaxing)
 .eh_frame      0xffffffff800ed7c0      0x1d0 /home/asergey/runtime-EclipseApplication/x86dev/lib/libdrivers.a(uhub.o)
                                        0x1e8 (size before relaxing)
 .eh_frame      0xffffffff800ed990      0x210 /home/asergey/runtime-EclipseApplication/x86dev/lib/libdrivers.a(uhidev.o)
                                        0x228 (size before relaxing)
 .eh_frame      0xffffffff800edba0      0x238 /home/asergey/runtime-EclipseApplication/x86dev/lib/libdrivers.a(ukbd.o)
                                        0x250 (size before relaxing)
 .eh_frame      0xffffffff800eddd8      0x118 /home/asergey/runtime-EclipseApplication/x86dev/lib/libdrivers.a(ums.o)
                                        0x130 (size before relaxing)
 .eh_frame      0xffffffff800edef0      0x320 /home/asergey/runtime-EclipseApplication/x86dev/lib/libdrivers.a(umass.o)
                                        0x338 (size before relaxing)
 .eh_frame      0xffffffff800ee210       0x98 /home/asergey/runtime-EclipseApplication/x86dev/lib/libdrivers.a(umass_quirks.o)
                                         0xb0 (size before relaxing)
 .eh_frame      0xffffffff800ee2a8      0x1c0 /home/asergey/runtime-EclipseApplication/x86dev/lib/libdrivers.a(virtqueue.o)
                                        0x1d8 (size before relaxing)
 .eh_frame      0xffffffff800ee468      0x138 /home/asergey/runtime-EclipseApplication/x86dev/lib/libdrivers.a(virtio_pci.o)
                                        0x150 (size before relaxing)
 .eh_frame      0xffffffff800ee5a0      0x340 /home/asergey/runtime-EclipseApplication/x86dev/lib/libdrivers.a(if_igc.o)
                                        0x358 (size before relaxing)
 .eh_frame      0xffffffff800ee8e0      0x488 /home/asergey/runtime-EclipseApplication/x86dev/lib/libdrivers.a(igc_i225.o)
                                        0x4a0 (size before relaxing)
 .eh_frame      0xffffffff800eed68      0x418 /home/asergey/runtime-EclipseApplication/x86dev/lib/libdrivers.a(igc_mac.o)
                                        0x430 (size before relaxing)
 .eh_frame      0xffffffff800ef180      0x2f8 /home/asergey/runtime-EclipseApplication/x86dev/lib/libdrivers.a(igc_nvm.o)
                                        0x310 (size before relaxing)
 .eh_frame      0xffffffff800ef478      0x400 /home/asergey/runtime-EclipseApplication/x86dev/lib/libdrivers.a(igc_phy.o)
                                        0x418 (size before relaxing)
 .eh_frame      0xffffffff800ef878       0xd0 /home/asergey/runtime-EclipseApplication/x86dev/lib/libdrivers.a(lfatfs_blk.o)
                                         0xe8 (size before relaxing)
 .eh_frame      0xffffffff800ef948       0xf0 /home/asergey/runtime-EclipseApplication/x86dev/lib/libdrivers.a(lfatfs_dent.o)
                                        0x108 (size before relaxing)
 .eh_frame      0xffffffff800efa38       0xb8 /home/asergey/runtime-EclipseApplication/x86dev/lib/libdrivers.a(lfatfs_dir.o)
                                         0xd0 (size before relaxing)
 .eh_frame      0xffffffff800efaf0      0x150 /home/asergey/runtime-EclipseApplication/x86dev/lib/libdrivers.a(lfatfs_inode.o)
                                        0x168 (size before relaxing)
 .eh_frame      0xffffffff800efc40       0xd0 /home/asergey/runtime-EclipseApplication/x86dev/lib/libdrivers.a(lfatfs_mnt.o)
                                         0xe8 (size before relaxing)
 .eh_frame      0xffffffff800efd10      0x220 /home/asergey/runtime-EclipseApplication/x86dev/lib/libdrivers.a(lfat_sup.o)
                                        0x238 (size before relaxing)
 .eh_frame      0xffffffff800eff30      0x190 /home/asergey/runtime-EclipseApplication/x86dev/lib/libdrivers.a(msdosfs_conv.o)
                                        0x1a8 (size before relaxing)
 .eh_frame      0xffffffff800f00c0      0x1c8 /home/asergey/runtime-EclipseApplication/x86dev/lib/libdrivers.a(msdosfs_denode.o)
                                        0x1e0 (size before relaxing)
 .eh_frame      0xffffffff800f0288      0x338 /home/asergey/runtime-EclipseApplication/x86dev/lib/libdrivers.a(msdosfs_fat.o)
                                        0x350 (size before relaxing)
 .eh_frame      0xffffffff800f05c0      0x1a8 /home/asergey/runtime-EclipseApplication/x86dev/lib/libdrivers.a(msdosfs_lookup.o)
                                        0x1c0 (size before relaxing)
 .eh_frame      0xffffffff800f0768      0x220 /home/asergey/runtime-EclipseApplication/x86dev/lib/libdrivers.a(if_ix.o)
                                        0x238 (size before relaxing)
 .eh_frame      0xffffffff800f0988      0x2c0 /home/asergey/runtime-EclipseApplication/x86dev/lib/libdrivers.a(if_sriov.o)
                                        0x2d8 (size before relaxing)
 .eh_frame      0xffffffff800f0c48       0x48 /home/asergey/runtime-EclipseApplication/x86dev/lib/libdrivers.a(ixgbe_api.o)
                                         0x60 (size before relaxing)
 .eh_frame      0xffffffff800f0c90      0x518 /home/asergey/runtime-EclipseApplication/x86dev/lib/libdrivers.a(ixgbe_common.o)
                                        0x530 (size before relaxing)
 .eh_frame      0xffffffff800f11a8      0x1c8 /home/asergey/runtime-EclipseApplication/x86dev/lib/libdrivers.a(ixgbepf_mbx.o)
                                        0x1e0 (size before relaxing)
 .eh_frame      0xffffffff800f1370      0x168 /home/asergey/runtime-EclipseApplication/x86dev/lib/libdrivers.a(ixgbe_x540.o)
                                        0x180 (size before relaxing)
 .eh_frame      0xffffffff800f14d8      0x170 /home/asergey/runtime-EclipseApplication/x86dev/lib/libdrivers.a(ixgbe_x550.o)
                                        0x188 (size before relaxing)
 .eh_frame      0xffffffff800f1648      0x1b0 /home/asergey/runtime-EclipseApplication/x86dev/lib/libdrivers.a(ixgbepf_vf_common.o)
                                        0x1c8 (size before relaxing)
 .eh_frame      0xffffffff800f17f8       0x50 /home/asergey/runtime-EclipseApplication/x86dev/lib/libdrivers.a(lcsthreads.o)
                                         0x68 (size before relaxing)
 .eh_frame      0xffffffff800f1848      0x1e0 /home/asergey/runtime-EclipseApplication/x86dev/lib/libdrivers.a(kbddrvr.o)
                                        0x1f8 (size before relaxing)
 .eh_frame      0xffffffff800f1a28      0x228 /home/asergey/runtime-EclipseApplication/x86dev/lib/libdrivers.a(mousedrvr.o)
                                        0x240 (size before relaxing)
 .eh_frame      0xffffffff800f1c50      0x548 /home/asergey/runtime-EclipseApplication/x86dev/lib/libdrivers.a(usbdi_util.o)
                                        0x560 (size before relaxing)
 .eh_frame      0xffffffff800f2198       0xf0 /home/asergey/runtime-EclipseApplication/x86dev/lib/libdrivers.a(usb_mem.o)
                                        0x108 (size before relaxing)
 .eh_frame      0xffffffff800f2288       0x18 /home/asergey/runtime-EclipseApplication/x86dev/lib/libdrivers.a(usb_quirks.o)
                                         0x30 (size before relaxing)
 .eh_frame      0xffffffff800f22a0      0x110 /home/asergey/runtime-EclipseApplication/x86dev/lib/libdrivers.a(usbroothub.o)
                                        0x128 (size before relaxing)
 .eh_frame      0xffffffff800f23b0      0x180 /home/asergey/runtime-EclipseApplication/x86dev/lib/libdrivers.a(hid.o)
                                        0x198 (size before relaxing)
 .eh_frame      0xffffffff800f2530      0x338 /home/asergey/runtime-EclipseApplication/x86dev/lib/libdrivers.a(igc_api.o)
                                        0x350 (size before relaxing)
 .eh_frame      0xffffffff800f2868       0xd0 /home/asergey/runtime-EclipseApplication/x86dev/lib/libdrivers.a(igc_base.o)
                                         0xe8 (size before relaxing)
 .eh_frame      0xffffffff800f2938      0x200 /home/asergey/runtime-EclipseApplication/x86dev/lib/libdrivers.a(ixgbe_phy.o)
                                        0x218 (size before relaxing)
 .eh_frame      0xffffffff800f2b38       0x18 /home/asergey/runtime-EclipseApplication/x86dev/lib/libdrivers_rsc.a(nulldrvr.o)
                                         0x30 (size before relaxing)
 .eh_frame      0xffffffff800f2b50      0x310 /home/asergey/runtime-EclipseApplication/x86dev/lib/libdrivers_rsc.a(rddrvr.o)
                                        0x328 (size before relaxing)
 .eh_frame      0xffffffff800f2e60       0x38 /home/asergey/runtime-EclipseApplication/x86dev/lib/libdrivers_rsc.a(vmosdrvr.o)
                                         0x50 (size before relaxing)
 .eh_frame      0xffffffff800f2e98      0x238 /home/asergey/runtime-EclipseApplication/x86dev/lib/libdrivers_rsc.a(arinc653drvr.o)
                                        0x250 (size before relaxing)
 .eh_frame      0xffffffff800f30d0      0x5b0 /home/asergey/runtime-EclipseApplication/x86dev/lib/libdrivers_rsc.a(arinc653drvr_inter.o)
                                        0x5c8 (size before relaxing)
 .eh_frame      0xffffffff800f3680      0x150 /home/asergey/runtime-EclipseApplication/x86dev/lib/liblcs.a(lldinit.o)
                                        0x168 (size before relaxing)
 .eh_frame      0xffffffff800f37d0      0x218 /home/asergey/runtime-EclipseApplication/x86dev/lib/liblcs.a(llinput.o)
                                        0x230 (size before relaxing)
 .eh_frame      0xffffffff800f39e8      0x148 /home/asergey/runtime-EclipseApplication/x86dev/lib/liblcs.a(lld_pfifo_ts.o)
                                        0x160 (size before relaxing)
 .eh_frame      0xffffffff800f3b30       0x28 /home/asergey/runtime-EclipseApplication/x86dev/lib/liblcs.a(arminit.o)
                                         0x40 (size before relaxing)
 .eh_frame      0xffffffff800f3b58      0x118 /home/asergey/runtime-EclipseApplication/x86dev/lib/liblcs.a(arp.o)
                                        0x130 (size before relaxing)
 .eh_frame      0xffffffff800f3c70       0x18 /home/asergey/runtime-EclipseApplication/x86dev/lib/liblcs.a(udp_init.o)
                                         0x30 (size before relaxing)
 .eh_frame      0xffffffff800f3c88       0x28 /home/asergey/runtime-EclipseApplication/x86dev/lib/liblcs.a(icmp6_ini.o)
                                         0x40 (size before relaxing)
 .eh_frame      0xffffffff800f3cb0       0x98 /home/asergey/runtime-EclipseApplication/x86dev/lib/liblcs.a(in6_ifattach.o)
                                         0xb0 (size before relaxing)
 .eh_frame      0xffffffff800f3d48       0xc0 /home/asergey/runtime-EclipseApplication/x86dev/lib/liblcs.a(in6_pcb.o)
                                         0xd8 (size before relaxing)
 .eh_frame      0xffffffff800f3e08      0x160 /home/asergey/runtime-EclipseApplication/x86dev/lib/liblcs.a(in6_route.o)
                                        0x178 (size before relaxing)
 .eh_frame      0xffffffff800f3f68      0x130 /home/asergey/runtime-EclipseApplication/x86dev/lib/liblcs.a(ip6_ctlo.o)
                                        0x148 (size before relaxing)
 .eh_frame      0xffffffff800f4098       0xa0 /home/asergey/runtime-EclipseApplication/x86dev/lib/liblcs.a(ip6_init.o)
                                         0xb8 (size before relaxing)
 .eh_frame      0xffffffff800f4138       0xb8 /home/asergey/runtime-EclipseApplication/x86dev/lib/liblcs.a(ip6_input.o)
                                         0xd0 (size before relaxing)
 .eh_frame      0xffffffff800f41f0      0x110 /home/asergey/runtime-EclipseApplication/x86dev/lib/liblcs.a(ip6_reassem.o)
                                        0x128 (size before relaxing)
 .eh_frame      0xffffffff800f4300       0x88 /home/asergey/runtime-EclipseApplication/x86dev/lib/liblcs.a(ip_input.o)
                                         0xa0 (size before relaxing)
 .eh_frame      0xffffffff800f4388       0xe0 /home/asergey/runtime-EclipseApplication/x86dev/lib/liblcs.a(in_util.o)
                                         0xf8 (size before relaxing)
 .eh_frame      0xffffffff800f4468       0xe8 /home/asergey/runtime-EclipseApplication/x86dev/lib/liblcs.a(ip_reassem.o)
                                        0x100 (size before relaxing)
 .eh_frame      0xffffffff800f4550       0x68 /home/asergey/runtime-EclipseApplication/x86dev/lib/liblcs.a(ip_init.o)
                                         0x80 (size before relaxing)
 .eh_frame      0xffffffff800f45b8       0x70 /home/asergey/runtime-EclipseApplication/x86dev/lib/liblcs.a(icmp_in.o)
                                         0x88 (size before relaxing)
 .eh_frame      0xffffffff800f4628       0x28 /home/asergey/runtime-EclipseApplication/x86dev/lib/liblcs.a(icmp_ini.o)
                                         0x40 (size before relaxing)
 .eh_frame      0xffffffff800f4650      0x108 /home/asergey/runtime-EclipseApplication/x86dev/lib/liblcs.a(tcp_inpt.o)
                                        0x120 (size before relaxing)
 .eh_frame      0xffffffff800f4758       0xc8 /home/asergey/runtime-EclipseApplication/x86dev/lib/liblcs.a(tcp_out.o)
                                         0xe0 (size before relaxing)
 .eh_frame      0xffffffff800f4820       0xe8 /home/asergey/runtime-EclipseApplication/x86dev/lib/liblcs.a(tcp_time.o)
                                        0x100 (size before relaxing)
 .eh_frame      0xffffffff800f4908       0x28 /home/asergey/runtime-EclipseApplication/x86dev/lib/liblcs.a(tcp_init.o)
                                         0x40 (size before relaxing)
 .eh_frame      0xffffffff800f4930       0x90 /home/asergey/runtime-EclipseApplication/x86dev/lib/liblcs.a(tcp_pcb.o)
                                         0xa8 (size before relaxing)
 .eh_frame      0xffffffff800f49c0      0x268 /home/asergey/runtime-EclipseApplication/x86dev/lib/liblcs.a(tcp_util.o)
                                        0x280 (size before relaxing)
 .eh_frame      0xffffffff800f4c28      0x108 /home/asergey/runtime-EclipseApplication/x86dev/lib/liblcs.a(igmp.o)
                                        0x120 (size before relaxing)
 .eh_frame      0xffffffff800f4d30      0x538 /home/asergey/runtime-EclipseApplication/x86dev/lib/liblcs.a(lcs_nux.o)
                                        0x550 (size before relaxing)
 .eh_frame      0xffffffff800f5268       0x60 /home/asergey/runtime-EclipseApplication/x86dev/lib/liblcs.a(ioctl.o)
                                         0x78 (size before relaxing)
 .eh_frame      0xffffffff800f52c8       0x58 /home/asergey/runtime-EclipseApplication/x86dev/lib/liblcs.a(select.o)
                                         0x70 (size before relaxing)
 .eh_frame      0xffffffff800f5320       0xb8 /home/asergey/runtime-EclipseApplication/x86dev/lib/liblcs.a(sock.o)
                                         0xd0 (size before relaxing)
 .eh_frame      0xffffffff800f53d8      0x228 /home/asergey/runtime-EclipseApplication/x86dev/lib/liblcs.a(sock_raw.o)
                                        0x240 (size before relaxing)
 .eh_frame      0xffffffff800f5600      0x230 /home/asergey/runtime-EclipseApplication/x86dev/lib/liblcs.a(sock_udp.o)
                                        0x248 (size before relaxing)
 .eh_frame      0xffffffff800f5830      0x4f8 /home/asergey/runtime-EclipseApplication/x86dev/lib/liblcs.a(sock_tcp.o)
                                        0x510 (size before relaxing)
 .eh_frame      0xffffffff800f5d28       0xd8 /home/asergey/runtime-EclipseApplication/x86dev/lib/liblcs.a(tmrchk.o)
                                         0xf0 (size before relaxing)
 .eh_frame      0xffffffff800f5e00       0x28 /home/asergey/runtime-EclipseApplication/x86dev/lib/liblcs.a(tmrinit.o)
                                         0x40 (size before relaxing)
 .eh_frame      0xffffffff800f5e28       0x40 /home/asergey/runtime-EclipseApplication/x86dev/lib/liblcs.a(tmrscall.o)
                                         0x58 (size before relaxing)
 .eh_frame      0xffffffff800f5e68       0x50 /home/asergey/runtime-EclipseApplication/x86dev/lib/liblcs.a(tmrset.o)
                                         0x68 (size before relaxing)
 .eh_frame      0xffffffff800f5eb8       0x40 /home/asergey/runtime-EclipseApplication/x86dev/lib/liblcs.a(tmrsrec.o)
                                         0x58 (size before relaxing)
 .eh_frame      0xffffffff800f5ef8       0x38 /home/asergey/runtime-EclipseApplication/x86dev/lib/liblcs.a(tmrstop.o)
                                         0x50 (size before relaxing)
 .eh_frame      0xffffffff800f5f30       0xc8 /home/asergey/runtime-EclipseApplication/x86dev/lib/liblcs.a(iorbcopy.o)
                                         0xe0 (size before relaxing)
 .eh_frame      0xffffffff800f5ff8       0x58 /home/asergey/runtime-EclipseApplication/x86dev/lib/liblcs.a(iorbfree.o)
                                         0x70 (size before relaxing)
 .eh_frame      0xffffffff800f6050       0x80 /home/asergey/runtime-EclipseApplication/x86dev/lib/liblcs.a(bm_init.o)
                                         0x98 (size before relaxing)
 .eh_frame      0xffffffff800f60d0       0x58 /home/asergey/runtime-EclipseApplication/x86dev/lib/liblcs.a(iorbdup.o)
                                         0x70 (size before relaxing)
 .eh_frame      0xffffffff800f6128       0x38 /home/asergey/runtime-EclipseApplication/x86dev/lib/liblcs.a(iorbget.o)
                                         0x50 (size before relaxing)
 .eh_frame      0xffffffff800f6160       0x30 /home/asergey/runtime-EclipseApplication/x86dev/lib/liblcs.a(iorbunlk.o)
                                         0x48 (size before relaxing)
 .eh_frame      0xffffffff800f6190       0x48 /home/asergey/runtime-EclipseApplication/x86dev/lib/liblcs.a(iorbcs.o)
                                         0x60 (size before relaxing)
 .eh_frame      0xffffffff800f61d8       0xc0 /home/asergey/runtime-EclipseApplication/x86dev/lib/liblcs.a(qsort.o)
                                         0xd8 (size before relaxing)
 .eh_frame      0xffffffff800f6298       0x70 /home/asergey/runtime-EclipseApplication/x86dev/lib/liblcs.a(cksum.o)
                                         0x88 (size before relaxing)
 .eh_frame      0xffffffff800f6308       0x28 /home/asergey/runtime-EclipseApplication/x86dev/lib/liblcs.a(clntport.o)
                                         0x40 (size before relaxing)
 .eh_frame      0xffffffff800f6330       0x20 /home/asergey/runtime-EclipseApplication/x86dev/lib/liblcs.a(hm.o)
                                         0x38 (size before relaxing)
 .eh_frame      0xffffffff800f6350       0xa8 /home/asergey/runtime-EclipseApplication/x86dev/lib/liblcs.a(lcsprio.o)
                                         0xc0 (size before relaxing)
 .eh_frame      0xffffffff800f63f8       0xa0 /home/asergey/runtime-EclipseApplication/x86dev/lib/liblcs.a(uio_move.o)
                                         0xb8 (size before relaxing)
 .eh_frame      0xffffffff800f6498       0x18 /home/asergey/runtime-EclipseApplication/x86dev/lib/liblcs.a(psbdrop.o)
                                         0x30 (size before relaxing)
 .eh_frame      0xffffffff800f64b0       0x38 /home/asergey/runtime-EclipseApplication/x86dev/lib/liblcs.a(psbget.o)
                                         0x50 (size before relaxing)
 .eh_frame      0xffffffff800f64e8       0x30 /home/asergey/runtime-EclipseApplication/x86dev/lib/liblcs.a(psbscap.o)
                                         0x48 (size before relaxing)
 .eh_frame      0xffffffff800f6518       0x80 /home/asergey/runtime-EclipseApplication/x86dev/lib/liblcs.a(psbadd.o)
                                         0x98 (size before relaxing)
 .eh_frame      0xffffffff800f6598       0x28 /home/asergey/runtime-EclipseApplication/x86dev/lib/liblcs.a(psbspace.o)
                                         0x40 (size before relaxing)
 .eh_frame      0xffffffff800f65c0       0x18 /home/asergey/runtime-EclipseApplication/x86dev/lib/liblcs.a(psbcount.o)
                                         0x30 (size before relaxing)
 .eh_frame      0xffffffff800f65d8       0x18 /home/asergey/runtime-EclipseApplication/x86dev/lib/liblcs.a(psbgcap.o)
                                         0x30 (size before relaxing)
 .eh_frame      0xffffffff800f65f0       0x50 /home/asergey/runtime-EclipseApplication/x86dev/lib/liblcs.a(psbpeek.o)
                                         0x68 (size before relaxing)
 .eh_frame      0xffffffff800f6640       0x60 /home/asergey/runtime-EclipseApplication/x86dev/lib/liblcs.a(llmcast.o)
                                         0x78 (size before relaxing)
 .eh_frame      0xffffffff800f66a0       0xc8 /home/asergey/runtime-EclipseApplication/x86dev/lib/liblcs.a(lloutput.o)
                                         0xe0 (size before relaxing)
 .eh_frame      0xffffffff800f6768       0x70 /home/asergey/runtime-EclipseApplication/x86dev/lib/liblcs.a(arpreq.o)
                                         0x88 (size before relaxing)
 .eh_frame      0xffffffff800f67d8       0x40 /home/asergey/runtime-EclipseApplication/x86dev/lib/liblcs.a(arpsrch.o)
                                         0x58 (size before relaxing)
 .eh_frame      0xffffffff800f6818       0x30 /home/asergey/runtime-EclipseApplication/x86dev/lib/liblcs.a(udp_atch.o)
                                         0x48 (size before relaxing)
 .eh_frame      0xffffffff800f6848       0x30 /home/asergey/runtime-EclipseApplication/x86dev/lib/liblcs.a(udp_bind.o)
                                         0x48 (size before relaxing)
 .eh_frame      0xffffffff800f6878       0x38 /home/asergey/runtime-EclipseApplication/x86dev/lib/liblcs.a(udp_conn.o)
                                         0x50 (size before relaxing)
 .eh_frame      0xffffffff800f68b0       0x28 /home/asergey/runtime-EclipseApplication/x86dev/lib/liblcs.a(udp_dtch.o)
                                         0x40 (size before relaxing)
 .eh_frame      0xffffffff800f68d8       0x78 /home/asergey/runtime-EclipseApplication/x86dev/lib/liblcs.a(udp_inpt.o)
                                         0x90 (size before relaxing)
 .eh_frame      0xffffffff800f6950       0x60 /home/asergey/runtime-EclipseApplication/x86dev/lib/liblcs.a(udp_pcb.o)
                                         0x78 (size before relaxing)
 .eh_frame      0xffffffff800f69b0       0x38 /home/asergey/runtime-EclipseApplication/x86dev/lib/liblcs.a(udp_peer.o)
                                         0x50 (size before relaxing)
 .eh_frame      0xffffffff800f69e8       0x38 /home/asergey/runtime-EclipseApplication/x86dev/lib/liblcs.a(udp_sock.o)
                                         0x50 (size before relaxing)
 .eh_frame      0xffffffff800f6a20       0x60 /home/asergey/runtime-EclipseApplication/x86dev/lib/liblcs.a(udp6_input.o)
                                         0x78 (size before relaxing)
 .eh_frame      0xffffffff800f6a80       0x40 /home/asergey/runtime-EclipseApplication/x86dev/lib/liblcs.a(udp6_out.o)
                                         0x58 (size before relaxing)
 .eh_frame      0xffffffff800f6ac0       0x30 /home/asergey/runtime-EclipseApplication/x86dev/lib/liblcs.a(udp_disc.o)
                                         0x48 (size before relaxing)
 .eh_frame      0xffffffff800f6af0       0x40 /home/asergey/runtime-EclipseApplication/x86dev/lib/liblcs.a(udp_out.o)
                                         0x58 (size before relaxing)
 .eh_frame      0xffffffff800f6b30       0x78 /home/asergey/runtime-EclipseApplication/x86dev/lib/liblcs.a(udp_util.o)
                                         0x90 (size before relaxing)
 .eh_frame      0xffffffff800f6ba8       0x38 /home/asergey/runtime-EclipseApplication/x86dev/lib/liblcs.a(icmp6_in.o)
                                         0x50 (size before relaxing)
 .eh_frame      0xffffffff800f6be0       0x70 /home/asergey/runtime-EclipseApplication/x86dev/lib/liblcs.a(icmp6_error.o)
                                         0x88 (size before relaxing)
 .eh_frame      0xffffffff800f6c50       0x48 /home/asergey/runtime-EclipseApplication/x86dev/lib/liblcs.a(in6_pbind.o)
                                         0x60 (size before relaxing)
 .eh_frame      0xffffffff800f6c98       0x40 /home/asergey/runtime-EclipseApplication/x86dev/lib/liblcs.a(in6_pcon.o)
                                         0x58 (size before relaxing)
 .eh_frame      0xffffffff800f6cd8       0x38 /home/asergey/runtime-EclipseApplication/x86dev/lib/liblcs.a(in6_plook.o)
                                         0x50 (size before relaxing)
 .eh_frame      0xffffffff800f6d10      0x130 /home/asergey/runtime-EclipseApplication/x86dev/lib/liblcs.a(in6_util.o)
                                        0x148 (size before relaxing)
 .eh_frame      0xffffffff800f6e40       0xb8 /home/asergey/runtime-EclipseApplication/x86dev/lib/liblcs.a(ip6_outpt.o)
                                         0xd0 (size before relaxing)
 .eh_frame      0xffffffff800f6ef8       0x48 /home/asergey/runtime-EclipseApplication/x86dev/lib/liblcs.a(in_pcon.o)
                                         0x60 (size before relaxing)
 .eh_frame      0xffffffff800f6f40      0x238 /home/asergey/runtime-EclipseApplication/x86dev/lib/liblcs.a(in_route.o)
                                        0x250 (size before relaxing)
 .eh_frame      0xffffffff800f7178       0x40 /home/asergey/runtime-EclipseApplication/x86dev/lib/liblcs.a(ip_ctlo.o)
                                         0x58 (size before relaxing)
 .eh_frame      0xffffffff800f71b8       0xb0 /home/asergey/runtime-EclipseApplication/x86dev/lib/liblcs.a(ip_outpt.o)
                                         0xc8 (size before relaxing)
 .eh_frame      0xffffffff800f7268       0x68 /home/asergey/runtime-EclipseApplication/x86dev/lib/liblcs.a(tcp_atch.o)
                                         0x80 (size before relaxing)
 .eh_frame      0xffffffff800f72d0       0x70 /home/asergey/runtime-EclipseApplication/x86dev/lib/liblcs.a(tcp_clse.o)
                                         0x88 (size before relaxing)
 .eh_frame      0xffffffff800f7340       0xa8 /home/asergey/runtime-EclipseApplication/x86dev/lib/liblcs.a(tcp_disc.o)
                                         0xc0 (size before relaxing)
 .eh_frame      0xffffffff800f73e8       0x40 /home/asergey/runtime-EclipseApplication/x86dev/lib/liblcs.a(tcp_bind.o)
                                         0x58 (size before relaxing)
 .eh_frame      0xffffffff800f7428       0x90 /home/asergey/runtime-EclipseApplication/x86dev/lib/liblcs.a(tcp_conn.o)
                                         0xa8 (size before relaxing)
 .eh_frame      0xffffffff800f74b8       0x38 /home/asergey/runtime-EclipseApplication/x86dev/lib/liblcs.a(tcp_lstn.o)
                                         0x50 (size before relaxing)
 .eh_frame      0xffffffff800f74f0      0x7e0 /home/asergey/runtime-EclipseApplication/x86dev/lib/libnfs_client.a(nfs_file_open.o)
                                        0x7f8 (size before relaxing)
 .eh_frame      0xffffffff800f7cd0      0x1a8 /home/asergey/runtime-EclipseApplication/x86dev/lib/libnfs_client.a(nfs_inode.o)
                                        0x1c0 (size before relaxing)
 .eh_frame      0xffffffff800f7e78      0x4f0 /home/asergey/runtime-EclipseApplication/x86dev/lib/libnfs_client.a(unfs_driver.o)
                                        0x508 (size before relaxing)
 .eh_frame      0xffffffff800f8368       0xd8 /home/asergey/runtime-EclipseApplication/x86dev/lib/libnfs_client.a(nfs_mount.o)
                                         0xf0 (size before relaxing)
 .eh_frame      0xffffffff800f8440       0x28 /home/asergey/runtime-EclipseApplication/x86dev/lib/libptrace_x86_64.a(ptrace_ctx.o)
                                         0x40 (size before relaxing)
 .eh_frame      0xffffffff800f8468       0x50 /home/asergey/runtime-EclipseApplication/x86dev/lib/libptrace_x86_64.a(ptrace_dbg_ctx.o)
                                         0x68 (size before relaxing)
 .eh_frame      0xffffffff800f84b8      0x840 /home/asergey/runtime-EclipseApplication/x86dev/lib/libptrace.a(ptrace.o)
                                        0x858 (size before relaxing)
 .eh_frame      0xffffffff800f8cf8       0x78 /home/asergey/runtime-EclipseApplication/x86dev/lib/libptrace.a(ptrace_child.o)
                                         0x90 (size before relaxing)
 .eh_frame      0xffffffff800f8d70       0x30 /home/asergey/runtime-EclipseApplication/x86dev/lib/libptrace.a(ptrace_fctx.o)
                                         0x48 (size before relaxing)
 .eh_frame      0xffffffff800f8da0       0x38 /home/asergey/runtime-EclipseApplication/x86dev/lib/libptrace.a(ptrace_kill.o)
                                         0x50 (size before relaxing)
 .eh_frame      0xffffffff800f8dd8       0xb0 /home/asergey/runtime-EclipseApplication/x86dev/lib/libptrace.a(ptrace_tde.o)
                                         0xc8 (size before relaxing)
 .eh_frame      0xffffffff800f8e88      0x388 /home/asergey/runtime-EclipseApplication/x86dev/lib/libdrm.a(drm.o)
                                        0x3a0 (size before relaxing)
 .eh_frame      0xffffffff800f9210      0x458 /home/asergey/runtime-EclipseApplication/x86dev/lib/libdrm.a(pcibus.o)
                                        0x470 (size before relaxing)
 .eh_frame      0xffffffff800f9668       0xf0 /home/asergey/runtime-EclipseApplication/x86dev/lib/libdrm.a(sysbus.o)
                                        0x108 (size before relaxing)
 .eh_frame      0xffffffff800f9758       0x60 /home/asergey/runtime-EclipseApplication/x86dev/lib/libdrm.a(drm_sysctl.o)
                                         0x78 (size before relaxing)
 .eh_frame      0xffffffff800f97b8       0xb0 /home/asergey/runtime-EclipseApplication/x86dev/lib/libdrm.a(pci_sysctl.o)
                                         0xc8 (size before relaxing)
 .eh_frame      0xffffffff800f9868       0xf0 /home/asergey/runtime-EclipseApplication/x86dev/lib/libdrm.a(bios_pcialloc.o)
                                        0x108 (size before relaxing)
 .eh_frame      0xffffffff800f9958      0x350 /home/asergey/runtime-EclipseApplication/x86dev/lib/libkernel.a(bread.o)
                                        0x368 (size before relaxing)
 .eh_frame      0xffffffff800f9ca8      0x120 /home/asergey/runtime-EclipseApplication/x86dev/lib/libkernel.a(chread.o)
                                        0x138 (size before relaxing)
 .eh_frame      0xffffffff800f9dc8      0x1b0 /home/asergey/runtime-EclipseApplication/x86dev/lib/libkernel.a(ddread.o)
                                        0x1c8 (size before relaxing)
 .eh_frame      0xffffffff800f9f78      0x100 /home/asergey/runtime-EclipseApplication/x86dev/lib/libkernel.a(deliver.o)
                                        0x118 (size before relaxing)
 .eh_frame      0xffffffff800fa078      0x170 /home/asergey/runtime-EclipseApplication/x86dev/lib/libkernel.a(dfread.o)
                                        0x188 (size before relaxing)
 .eh_frame      0xffffffff800fa1e8      0x1c0 /home/asergey/runtime-EclipseApplication/x86dev/lib/libkernel.a(environ.o)
                                        0x1d8 (size before relaxing)
 .eh_frame      0xffffffff800fa3a8       0x90 /home/asergey/runtime-EclipseApplication/x86dev/lib/libkernel.a(exception.o)
                                         0xa8 (size before relaxing)
 .eh_frame      0xffffffff800fa438       0x88 /home/asergey/runtime-EclipseApplication/x86dev/lib/libkernel.a(exit.o)
                                         0xa0 (size before relaxing)
 .eh_frame      0xffffffff800fa4c0      0x350 /home/asergey/runtime-EclipseApplication/x86dev/lib/libkernel.a(fast_ada.o)
                                        0x368 (size before relaxing)
 .eh_frame      0xffffffff800fa810      0x298 /home/asergey/runtime-EclipseApplication/x86dev/lib/libkernel.a(file_open.o)
                                        0x2b0 (size before relaxing)
 .eh_frame      0xffffffff800faaa8      0x110 /home/asergey/runtime-EclipseApplication/x86dev/lib/libkernel.a(fpcontext.o)
                                        0x128 (size before relaxing)
 .eh_frame      0xffffffff800fabb8       0xa0 /home/asergey/runtime-EclipseApplication/x86dev/lib/libkernel.a(get_freefile.o)
                                         0xb8 (size before relaxing)
 .eh_frame      0xffffffff800fac58      0x2f0 /home/asergey/runtime-EclipseApplication/x86dev/lib/libkernel.a(getmem.o)
                                        0x308 (size before relaxing)
 .eh_frame      0xffffffff800faf48      0x160 /home/asergey/runtime-EclipseApplication/x86dev/lib/libkernel.a(getrusage.o)
                                        0x178 (size before relaxing)
 .eh_frame      0xffffffff800fb0a8       0x30 /home/asergey/runtime-EclipseApplication/x86dev/lib/libkernel.a(hm_except.o)
                                         0x48 (size before relaxing)
 .eh_frame      0xffffffff800fb0d8       0xb8 /home/asergey/runtime-EclipseApplication/x86dev/lib/libkernel.a(hwmarks.o)
                                         0xd0 (size before relaxing)
 .eh_frame      0xffffffff800fb190       0x38 /home/asergey/runtime-EclipseApplication/x86dev/lib/libkernel.a(initdrivers.o)
                                         0x50 (size before relaxing)
 .eh_frame      0xffffffff800fb1c8      0x1c8 /home/asergey/runtime-EclipseApplication/x86dev/lib/libkernel.a(inode.o)
                                        0x1e0 (size before relaxing)
 .eh_frame      0xffffffff800fb390      0x140 /home/asergey/runtime-EclipseApplication/x86dev/lib/libkernel.a(ioint.o)
                                        0x158 (size before relaxing)
 .eh_frame      0xffffffff800fb4d0       0x88 /home/asergey/runtime-EclipseApplication/x86dev/lib/libkernel.a(kern_syms.o)
                                         0xa0 (size before relaxing)
 .eh_frame      0xffffffff800fb558      0x1c0 /home/asergey/runtime-EclipseApplication/x86dev/lib/libkernel.a(kprintf.o)
                                        0x1d8 (size before relaxing)
 .eh_frame      0xffffffff800fb718       0x70 /home/asergey/runtime-EclipseApplication/x86dev/lib/libkernel.a(globswap.o)
                                         0x88 (size before relaxing)
 .eh_frame      0xffffffff800fb788      0x198 /home/asergey/runtime-EclipseApplication/x86dev/lib/libkernel.a(lockf.o)
                                        0x1b0 (size before relaxing)
 .eh_frame      0xffffffff800fb920      0x8b0 /home/asergey/runtime-EclipseApplication/x86dev/lib/libkernel.a(lynxfs.o)
                                        0x8c8 (size before relaxing)
 .eh_frame      0xffffffff800fc1d0      0x120 /home/asergey/runtime-EclipseApplication/x86dev/lib/libkernel.a(main.o)
                                        0x138 (size before relaxing)
 .eh_frame      0xffffffff800fc2f0       0x38 /home/asergey/runtime-EclipseApplication/x86dev/lib/libkernel.a(map_kernel_am.o)
                                         0x50 (size before relaxing)
 .eh_frame      0xffffffff800fc328      0x1b0 /home/asergey/runtime-EclipseApplication/x86dev/lib/libkernel.a(mem_map.o)
                                        0x1c8 (size before relaxing)
 .eh_frame      0xffffffff800fc4d8      0x448 /home/asergey/runtime-EclipseApplication/x86dev/lib/libkernel.a(name_server.o)
                                        0x460 (size before relaxing)
 .eh_frame      0xffffffff800fc920       0x20 /home/asergey/runtime-EclipseApplication/x86dev/lib/libkernel.a(nux.o)
                                         0x38 (size before relaxing)
 .eh_frame      0xffffffff800fc940       0xe0 /home/asergey/runtime-EclipseApplication/x86dev/lib/libkernel.a(osm.o)
                                         0xf8 (size before relaxing)
 .eh_frame      0xffffffff800fca20       0xb8 /home/asergey/runtime-EclipseApplication/x86dev/lib/libkernel.a(pagefault.o)
                                         0xd0 (size before relaxing)
 .eh_frame      0xffffffff800fcad8       0x20 /home/asergey/runtime-EclipseApplication/x86dev/lib/libkernel.a(panic.o)
                                         0x38 (size before relaxing)
 .eh_frame      0xffffffff800fcaf8       0xe8 /home/asergey/runtime-EclipseApplication/x86dev/lib/libkernel.a(perm.o)
                                        0x100 (size before relaxing)
 .eh_frame      0xffffffff800fcbe0      0x2f8 /home/asergey/runtime-EclipseApplication/x86dev/lib/libkernel.a(pipe.o)
                                        0x310 (size before relaxing)
 .eh_frame      0xffffffff800fced8       0x68 /home/asergey/runtime-EclipseApplication/x86dev/lib/libkernel.a(priot.o)
                                         0x80 (size before relaxing)
 .eh_frame      0xffffffff800fcf40       0x70 /home/asergey/runtime-EclipseApplication/x86dev/lib/libkernel.a(procinit.o)
                                         0x88 (size before relaxing)
 .eh_frame      0xffffffff800fcfb0       0x40 /home/asergey/runtime-EclipseApplication/x86dev/lib/libkernel.a(reco.o)
                                         0x58 (size before relaxing)
 .eh_frame      0xffffffff800fcff0       0x70 /home/asergey/runtime-EclipseApplication/x86dev/lib/libkernel.a(resched.o)
                                         0x88 (size before relaxing)
 .eh_frame      0xffffffff800fd060      0x198 /home/asergey/runtime-EclipseApplication/x86dev/lib/libkernel.a(rtimeset.o)
                                        0x1b0 (size before relaxing)
 .eh_frame      0xffffffff800fd1f8       0xb0 /home/asergey/runtime-EclipseApplication/x86dev/lib/libkernel.a(sbrk.o)
                                         0xc8 (size before relaxing)
 .eh_frame      0xffffffff800fd2a8      0x3c0 /home/asergey/runtime-EclipseApplication/x86dev/lib/libkernel.a(setpriority.o)
                                        0x3d8 (size before relaxing)
 .eh_frame      0xffffffff800fd668       0x50 /home/asergey/runtime-EclipseApplication/x86dev/lib/libkernel.a(setscheduler.o)
                                         0x68 (size before relaxing)
 .eh_frame      0xffffffff800fd6b8      0x1b0 /home/asergey/runtime-EclipseApplication/x86dev/lib/libkernel.a(stack.o)
                                        0x1c8 (size before relaxing)
 .eh_frame      0xffffffff800fd868      0x200 /home/asergey/runtime-EclipseApplication/x86dev/lib/libkernel.a(stask.o)
                                        0x218 (size before relaxing)
 .eh_frame      0xffffffff800fda68       0x18 /home/asergey/runtime-EclipseApplication/x86dev/lib/libkernel.a(stopcpu.o)
                                         0x30 (size before relaxing)
 .eh_frame      0xffffffff800fda80      0x2c0 /home/asergey/runtime-EclipseApplication/x86dev/lib/libkernel.a(swait.o)
                                        0x2d8 (size before relaxing)
 .eh_frame      0xffffffff800fdd40       0xd0 /home/asergey/runtime-EclipseApplication/x86dev/lib/libkernel.a(sysbrk.o)
                                         0xe8 (size before relaxing)
 .eh_frame      0xffffffff800fde10      0x140 /home/asergey/runtime-EclipseApplication/x86dev/lib/libkernel.a(tde.o)
                                        0x158 (size before relaxing)
 .eh_frame      0xffffffff800fdf50      0x320 /home/asergey/runtime-EclipseApplication/x86dev/lib/libkernel.a(threads.o)
                                        0x338 (size before relaxing)
 .eh_frame      0xffffffff800fe270      0x1e8 /home/asergey/runtime-EclipseApplication/x86dev/lib/libkernel.a(time.o)
                                        0x200 (size before relaxing)
 .eh_frame      0xffffffff800fe458      0x170 /home/asergey/runtime-EclipseApplication/x86dev/lib/libkernel.a(timeout.o)
                                        0x188 (size before relaxing)
 .eh_frame      0xffffffff800fe5c8       0x38 /home/asergey/runtime-EclipseApplication/x86dev/lib/libkernel.a(usleep.o)
                                         0x50 (size before relaxing)
 .eh_frame      0xffffffff800fe600       0xd8 /home/asergey/runtime-EclipseApplication/x86dev/lib/libkernel.a(utils.o)
                                         0xf0 (size before relaxing)
 .eh_frame      0xffffffff800fe6d8      0x228 /home/asergey/runtime-EclipseApplication/x86dev/lib/libkernel.a(vfs.o)
                                        0x240 (size before relaxing)
 .eh_frame      0xffffffff800fe900      0x118 /home/asergey/runtime-EclipseApplication/x86dev/lib/libkernel.a(vmos_rinsert.o)
                                        0x130 (size before relaxing)
 .eh_frame      0xffffffff800fea18       0x98 /home/asergey/runtime-EclipseApplication/x86dev/lib/libkernel.a(vmosschedu.o)
                                         0xb0 (size before relaxing)
 .eh_frame      0xffffffff800feab0      0x190 /home/asergey/runtime-EclipseApplication/x86dev/lib/libkernel.a(execve.o)
                                        0x1a8 (size before relaxing)
 .eh_frame      0xffffffff800fec40      0x1f0 /home/asergey/runtime-EclipseApplication/x86dev/lib/libkernel.a(fast_sem_open.o)
                                        0x208 (size before relaxing)
 .eh_frame      0xffffffff800fee30      0x1c0 /home/asergey/runtime-EclipseApplication/x86dev/lib/libkernel.a(fork.o)
                                        0x1d8 (size before relaxing)
 .eh_frame      0xffffffff800feff0      0x170 /home/asergey/runtime-EclipseApplication/x86dev/lib/libkernel.a(install.o)
                                        0x188 (size before relaxing)
 .eh_frame      0xffffffff800ff160       0xa0 /home/asergey/runtime-EclipseApplication/x86dev/lib/libkernel.a(install_elf.o)
                                         0xb8 (size before relaxing)
 .eh_frame      0xffffffff800ff200       0x30 /home/asergey/runtime-EclipseApplication/x86dev/lib/libkernel.a(init_global_resources.o)
                                         0x48 (size before relaxing)
 .eh_frame      0xffffffff800ff230      0x250 /home/asergey/runtime-EclipseApplication/x86dev/lib/libkernel.a(load.o)
                                        0x268 (size before relaxing)
 .eh_frame      0xffffffff800ff480       0x38 /home/asergey/runtime-EclipseApplication/x86dev/lib/libkernel.a(load_elf.o)
                                         0x50 (size before relaxing)
 .eh_frame      0xffffffff800ff4b8       0x38 /home/asergey/runtime-EclipseApplication/x86dev/lib/libkernel.a(load_elf64.o)
                                         0x50 (size before relaxing)
 .eh_frame      0xffffffff800ff4f0      0x110 /home/asergey/runtime-EclipseApplication/x86dev/lib/libkernel.a(mempartition.o)
                                        0x128 (size before relaxing)
 .eh_frame      0xffffffff800ff600      0x180 /home/asergey/runtime-EclipseApplication/x86dev/lib/libkernel.a(mmap.o)
                                        0x198 (size before relaxing)
 .eh_frame      0xffffffff800ff780      0x208 /home/asergey/runtime-EclipseApplication/x86dev/lib/libkernel.a(pshmem.o)
                                        0x220 (size before relaxing)
 .eh_frame      0xffffffff800ff988      0x220 /home/asergey/runtime-EclipseApplication/x86dev/lib/libkernel.a(sm.o)
                                        0x238 (size before relaxing)
 .eh_frame      0xffffffff800ffba8       0x70 /home/asergey/runtime-EclipseApplication/x86dev/lib/libkernel.a(sc_router.o)
                                         0x88 (size before relaxing)
 .eh_frame      0xffffffff800ffc18      0x1a8 /home/asergey/runtime-EclipseApplication/x86dev/lib/libkernel.a(wait.o)
                                        0x1c0 (size before relaxing)
 .eh_frame      0xffffffff800ffdc0       0xe0 /home/asergey/runtime-EclipseApplication/x86dev/lib/libkernel.a(cfread.o)
                                         0xf8 (size before relaxing)
 .eh_frame      0xffffffff800ffea0       0xb8 /home/asergey/runtime-EclipseApplication/x86dev/lib/libkernel.a(cprintf.o)
                                         0xd0 (size before relaxing)
 .eh_frame      0xffffffff800fff58       0x60 /home/asergey/runtime-EclipseApplication/x86dev/lib/libkernel.a(hwt_bench.o)
                                         0x78 (size before relaxing)
 .eh_frame      0xffffffff800fffb8      0x170 /home/asergey/runtime-EclipseApplication/x86dev/lib/libkernel.a(kern_mib.o)
                                        0x188 (size before relaxing)
 .eh_frame      0xffffffff80100128      0x4d8 /home/asergey/runtime-EclipseApplication/x86dev/lib/libkernel.a(kern_sysctl.o)
                                        0x4f0 (size before relaxing)
 .eh_frame      0xffffffff80100600       0x18 /home/asergey/runtime-EclipseApplication/x86dev/lib/libkernel.a(loadavg.o)
                                         0x30 (size before relaxing)
 .eh_frame      0xffffffff80100618       0x28 /home/asergey/runtime-EclipseApplication/x86dev/lib/libkernel.a(sysctl_init.o)
                                         0x40 (size before relaxing)
 .eh_frame      0xffffffff80100640       0x78 /home/asergey/runtime-EclipseApplication/x86dev/lib/libkernel.a(sysinfo.o)
                                         0x90 (size before relaxing)
 .eh_frame      0xffffffff801006b8      0xfe0 /home/asergey/runtime-EclipseApplication/x86dev/lib/libkernel.a(ttymgr.o)
                                        0xff8 (size before relaxing)
 .eh_frame      0xffffffff80101698       0xc0 /home/asergey/runtime-EclipseApplication/x86dev/lib/libkernel.a(uninstall.o)
                                         0xd8 (size before relaxing)
 .eh_frame      0xffffffff80101758       0x30 /home/asergey/runtime-EclipseApplication/x86dev/lib/libkernel.a(utimes.o)
                                         0x48 (size before relaxing)
 .eh_frame      0xffffffff80101788       0xc8 /home/asergey/runtime-EclipseApplication/x86dev/lib/libkernel.a(clock_impl.o)
                                         0xe0 (size before relaxing)
 .eh_frame      0xffffffff80101850       0x48 /home/asergey/runtime-EclipseApplication/x86dev/lib/libkernel.a(clock_getcpuclockid.o)
                                         0x60 (size before relaxing)
 .eh_frame      0xffffffff80101898       0x30 /home/asergey/runtime-EclipseApplication/x86dev/lib/libkernel.a(clock_getres.o)
                                         0x48 (size before relaxing)
 .eh_frame      0xffffffff801018c8       0x40 /home/asergey/runtime-EclipseApplication/x86dev/lib/libkernel.a(clock_gettime.o)
                                         0x58 (size before relaxing)
 .eh_frame      0xffffffff80101908       0x60 /home/asergey/runtime-EclipseApplication/x86dev/lib/libkernel.a(clock_nanosleep.o)
                                         0x78 (size before relaxing)
 .eh_frame      0xffffffff80101968       0x40 /home/asergey/runtime-EclipseApplication/x86dev/lib/libkernel.a(clock_settime.o)
                                         0x58 (size before relaxing)
 .eh_frame      0xffffffff801019a8       0x68 /home/asergey/runtime-EclipseApplication/x86dev/lib/libkernel.a(timer_impl.o)
                                         0x80 (size before relaxing)
 .eh_frame      0xffffffff80101a10       0x38 /home/asergey/runtime-EclipseApplication/x86dev/lib/libkernel.a(gettime_op.o)
                                         0x50 (size before relaxing)
 .eh_frame      0xffffffff80101a48       0xb8 /home/asergey/runtime-EclipseApplication/x86dev/lib/libkernel.a(getitimer.o)
                                         0xd0 (size before relaxing)
 .eh_frame      0xffffffff80101b00       0x40 /home/asergey/runtime-EclipseApplication/x86dev/lib/libkernel.a(timer_create.o)
                                         0x58 (size before relaxing)
 .eh_frame      0xffffffff80101b40       0x38 /home/asergey/runtime-EclipseApplication/x86dev/lib/libkernel.a(timer_delete.o)
                                         0x50 (size before relaxing)
 .eh_frame      0xffffffff80101b78       0x30 /home/asergey/runtime-EclipseApplication/x86dev/lib/libkernel.a(timer_getoverrun.o)
                                         0x48 (size before relaxing)
 .eh_frame      0xffffffff80101ba8       0x40 /home/asergey/runtime-EclipseApplication/x86dev/lib/libkernel.a(timer_gettime.o)
                                         0x58 (size before relaxing)
 .eh_frame      0xffffffff80101be8       0x40 /home/asergey/runtime-EclipseApplication/x86dev/lib/libkernel.a(timer_settime.o)
                                         0x58 (size before relaxing)
 .eh_frame      0xffffffff80101c28       0x40 /home/asergey/runtime-EclipseApplication/x86dev/lib/libkernel.a(clock_adjtimex.o)
                                         0x58 (size before relaxing)
 .eh_frame      0xffffffff80101c68       0x38 /home/asergey/runtime-EclipseApplication/x86dev/lib/libkernel.a(reboot_impl.o)
                                         0x50 (size before relaxing)
 .eh_frame      0xffffffff80101ca0       0x98 /home/asergey/runtime-EclipseApplication/x86dev/lib/libkernel.a(get_resource_entry.o)
                                         0xb0 (size before relaxing)
 .eh_frame      0xffffffff80101d38       0x38 /home/asergey/runtime-EclipseApplication/x86dev/lib/libkernel.a(ptrace.o)
                                         0x50 (size before relaxing)
 .eh_frame      0xffffffff80101d70       0x20 /home/asergey/runtime-EclipseApplication/x86dev/lib/libkernel.a(reboot.o)
                                         0x38 (size before relaxing)
 .eh_frame      0xffffffff80101d90       0x18 /home/asergey/runtime-EclipseApplication/x86dev/lib/libkernel.a(ulimit.o)
                                         0x30 (size before relaxing)
 .eh_frame      0xffffffff80101da8       0x28 /home/asergey/runtime-EclipseApplication/x86dev/lib/libkernel.a(uname.o)
                                         0x40 (size before relaxing)
 .eh_frame      0xffffffff80101dd0       0x60 /home/asergey/runtime-EclipseApplication/x86dev/lib/libkernel.a(mount_impl.o)
                                         0x78 (size before relaxing)
 .eh_frame      0xffffffff80101e30       0x30 /home/asergey/runtime-EclipseApplication/x86dev/lib/libkernel.a(getdents.o)
                                         0x48 (size before relaxing)
 .eh_frame      0xffffffff80101e60       0x38 /home/asergey/runtime-EclipseApplication/x86dev/lib/libkernel.a(mount.o)
                                         0x50 (size before relaxing)
 .eh_frame      0xffffffff80101e98       0x60 /home/asergey/runtime-EclipseApplication/x86dev/lib/libkernel.a(umount.o)
                                         0x78 (size before relaxing)
 .eh_frame      0xffffffff80101ef8       0xb8 /home/asergey/runtime-EclipseApplication/x86dev/lib/libkernel.a(rwbounds.o)
                                         0xd0 (size before relaxing)
 .eh_frame      0xffffffff80101fb0      0x258 /home/asergey/runtime-EclipseApplication/x86dev/lib/libkernel.a(socket_impl.o)
                                        0x270 (size before relaxing)
 .eh_frame      0xffffffff80102208       0x78 /home/asergey/runtime-EclipseApplication/x86dev/lib/libkernel.a(accept.o)
                                         0x90 (size before relaxing)
 .eh_frame      0xffffffff80102280       0x70 /home/asergey/runtime-EclipseApplication/x86dev/lib/libkernel.a(bind.o)
                                         0x88 (size before relaxing)
 .eh_frame      0xffffffff801022f0       0x70 /home/asergey/runtime-EclipseApplication/x86dev/lib/libkernel.a(connect.o)
                                         0x88 (size before relaxing)
 .eh_frame      0xffffffff80102360       0x70 /home/asergey/runtime-EclipseApplication/x86dev/lib/libkernel.a(gethostname.o)
                                         0x88 (size before relaxing)
 .eh_frame      0xffffffff801023d0       0x30 /home/asergey/runtime-EclipseApplication/x86dev/lib/libkernel.a(getpeername.o)
                                         0x48 (size before relaxing)
 .eh_frame      0xffffffff80102400       0x30 /home/asergey/runtime-EclipseApplication/x86dev/lib/libkernel.a(getsockname.o)
                                         0x48 (size before relaxing)
 .eh_frame      0xffffffff80102430       0x40 /home/asergey/runtime-EclipseApplication/x86dev/lib/libkernel.a(getsockopt.o)
                                         0x58 (size before relaxing)
 .eh_frame      0xffffffff80102470       0x48 /home/asergey/runtime-EclipseApplication/x86dev/lib/libkernel.a(listen.o)
                                         0x60 (size before relaxing)
 .eh_frame      0xffffffff801024b8       0x38 /home/asergey/runtime-EclipseApplication/x86dev/lib/libkernel.a(recv.o)
                                         0x50 (size before relaxing)
 .eh_frame      0xffffffff801024f0       0x40 /home/asergey/runtime-EclipseApplication/x86dev/lib/libkernel.a(recvfrom.o)
                                         0x58 (size before relaxing)
 .eh_frame      0xffffffff80102530       0x30 /home/asergey/runtime-EclipseApplication/x86dev/lib/libkernel.a(recvmsg.o)
                                         0x48 (size before relaxing)
 .eh_frame      0xffffffff80102560       0x40 /home/asergey/runtime-EclipseApplication/x86dev/lib/libkernel.a(send.o)
                                         0x58 (size before relaxing)
 .eh_frame      0xffffffff801025a0       0x30 /home/asergey/runtime-EclipseApplication/x86dev/lib/libkernel.a(sendmsg.o)
                                         0x48 (size before relaxing)
 .eh_frame      0xffffffff801025d0       0x40 /home/asergey/runtime-EclipseApplication/x86dev/lib/libkernel.a(sendto.o)
                                         0x58 (size before relaxing)
 .eh_frame      0xffffffff80102610       0x40 /home/asergey/runtime-EclipseApplication/x86dev/lib/libkernel.a(setsockopt.o)
                                         0x58 (size before relaxing)
 .eh_frame      0xffffffff80102650       0x70 /home/asergey/runtime-EclipseApplication/x86dev/lib/libkernel.a(shutdown.o)
                                         0x88 (size before relaxing)
 .eh_frame      0xffffffff801026c0       0x40 /home/asergey/runtime-EclipseApplication/x86dev/lib/libkernel.a(socket.o)
                                         0x58 (size before relaxing)
 .eh_frame      0xffffffff80102700       0x78 /home/asergey/runtime-EclipseApplication/x86dev/lib/libkernel.a(socketpair.o)
                                         0x90 (size before relaxing)
 .eh_frame      0xffffffff80102778       0xa0 /home/asergey/runtime-EclipseApplication/x86dev/lib/libkernel.a(chdir_impl.o)
                                         0xb8 (size before relaxing)
 .eh_frame      0xffffffff80102818       0x30 /home/asergey/runtime-EclipseApplication/x86dev/lib/libkernel.a(chmod_impl.o)
                                         0x48 (size before relaxing)
 .eh_frame      0xffffffff80102848       0x48 /home/asergey/runtime-EclipseApplication/x86dev/lib/libkernel.a(chown_impl.o)
                                         0x60 (size before relaxing)
 .eh_frame      0xffffffff80102890       0x48 /home/asergey/runtime-EclipseApplication/x86dev/lib/libkernel.a(fcntl_impl.o)
                                         0x60 (size before relaxing)
 .eh_frame      0xffffffff801028d8      0x118 /home/asergey/runtime-EclipseApplication/x86dev/lib/libkernel.a(link_impl.o)
                                        0x130 (size before relaxing)
 .eh_frame      0xffffffff801029f0      0x208 /home/asergey/runtime-EclipseApplication/x86dev/lib/libkernel.a(read_impl.o)
                                        0x220 (size before relaxing)
 .eh_frame      0xffffffff80102bf8       0x18 /home/asergey/runtime-EclipseApplication/x86dev/lib/libkernel.a(readlink_impl.o)
                                         0x30 (size before relaxing)
 .eh_frame      0xffffffff80102c10       0xc0 /home/asergey/runtime-EclipseApplication/x86dev/lib/libkernel.a(stat_impl.o)
                                         0xd8 (size before relaxing)
 .eh_frame      0xffffffff80102cd0       0x38 /home/asergey/runtime-EclipseApplication/x86dev/lib/libkernel.a(access.o)
                                         0x50 (size before relaxing)
 .eh_frame      0xffffffff80102d08       0x30 /home/asergey/runtime-EclipseApplication/x86dev/lib/libkernel.a(chcdev.o)
                                         0x48 (size before relaxing)
 .eh_frame      0xffffffff80102d38       0x30 /home/asergey/runtime-EclipseApplication/x86dev/lib/libkernel.a(chdir.o)
                                         0x48 (size before relaxing)
 .eh_frame      0xffffffff80102d68       0x30 /home/asergey/runtime-EclipseApplication/x86dev/lib/libkernel.a(chmod.o)
                                         0x48 (size before relaxing)
 .eh_frame      0xffffffff80102d98       0x30 /home/asergey/runtime-EclipseApplication/x86dev/lib/libkernel.a(chown.o)
                                         0x48 (size before relaxing)
 .eh_frame      0xffffffff80102dc8       0xb0 /home/asergey/runtime-EclipseApplication/x86dev/lib/libkernel.a(close.o)
                                         0xc8 (size before relaxing)
 .eh_frame      0xffffffff80102e78       0x28 /home/asergey/runtime-EclipseApplication/x86dev/lib/libkernel.a(dup2.o)
                                         0x40 (size before relaxing)
 .eh_frame      0xffffffff80102ea0       0x28 /home/asergey/runtime-EclipseApplication/x86dev/lib/libkernel.a(dup.o)
                                         0x40 (size before relaxing)
 .eh_frame      0xffffffff80102ec8       0x38 /home/asergey/runtime-EclipseApplication/x86dev/lib/libkernel.a(fchdir.o)
                                         0x50 (size before relaxing)
 .eh_frame      0xffffffff80102f00       0x30 /home/asergey/runtime-EclipseApplication/x86dev/lib/libkernel.a(fchmod.o)
                                         0x48 (size before relaxing)
 .eh_frame      0xffffffff80102f30       0x38 /home/asergey/runtime-EclipseApplication/x86dev/lib/libkernel.a(fchown.o)
                                         0x50 (size before relaxing)
 .eh_frame      0xffffffff80102f68       0x68 /home/asergey/runtime-EclipseApplication/x86dev/lib/libkernel.a(fcntl.o)
                                         0x80 (size before relaxing)
 .eh_frame      0xffffffff80102fd0       0x28 /home/asergey/runtime-EclipseApplication/x86dev/lib/libkernel.a(fdatasync.o)
                                         0x40 (size before relaxing)
 .eh_frame      0xffffffff80102ff8       0x38 /home/asergey/runtime-EclipseApplication/x86dev/lib/libkernel.a(flock.o)
                                         0x50 (size before relaxing)
 .eh_frame      0xffffffff80103030       0x30 /home/asergey/runtime-EclipseApplication/x86dev/lib/libkernel.a(fstat.o)
                                         0x48 (size before relaxing)
 .eh_frame      0xffffffff80103060       0x38 /home/asergey/runtime-EclipseApplication/x86dev/lib/libkernel.a(fstatfs.o)
                                         0x50 (size before relaxing)
 .eh_frame      0xffffffff80103098       0x28 /home/asergey/runtime-EclipseApplication/x86dev/lib/libkernel.a(fsync.o)
                                         0x40 (size before relaxing)
 .eh_frame      0xffffffff801030c0       0x48 /home/asergey/runtime-EclipseApplication/x86dev/lib/libkernel.a(ftruncate.o)
                                         0x60 (size before relaxing)
 .eh_frame      0xffffffff80103108       0x18 /home/asergey/runtime-EclipseApplication/x86dev/lib/libkernel.a(getdtablesize.o)
                                         0x30 (size before relaxing)
 .eh_frame      0xffffffff80103120       0x30 /home/asergey/runtime-EclipseApplication/x86dev/lib/libkernel.a(ioctl.o)
                                         0x48 (size before relaxing)
 .eh_frame      0xffffffff80103150       0x30 /home/asergey/runtime-EclipseApplication/x86dev/lib/libkernel.a(link.o)
                                         0x48 (size before relaxing)
 .eh_frame      0xffffffff80103180       0x30 /home/asergey/runtime-EclipseApplication/x86dev/lib/libkernel.a(lseek64.o)
                                         0x48 (size before relaxing)
 .eh_frame      0xffffffff801031b0       0x30 /home/asergey/runtime-EclipseApplication/x86dev/lib/libkernel.a(lseek.o)
                                         0x48 (size before relaxing)
 .eh_frame      0xffffffff801031e0       0x30 /home/asergey/runtime-EclipseApplication/x86dev/lib/libkernel.a(lstat.o)
                                         0x48 (size before relaxing)
 .eh_frame      0xffffffff80103210       0x40 /home/asergey/runtime-EclipseApplication/x86dev/lib/libkernel.a(mkdir.o)
                                         0x58 (size before relaxing)
 .eh_frame      0xffffffff80103250       0x40 /home/asergey/runtime-EclipseApplication/x86dev/lib/libkernel.a(mknod.o)
                                         0x58 (size before relaxing)
 .eh_frame      0xffffffff80103290       0x38 /home/asergey/runtime-EclipseApplication/x86dev/lib/libkernel.a(open.o)
                                         0x50 (size before relaxing)
 .eh_frame      0xffffffff801032c8       0x30 /home/asergey/runtime-EclipseApplication/x86dev/lib/libkernel.a(read.o)
                                         0x48 (size before relaxing)
 .eh_frame      0xffffffff801032f8       0x40 /home/asergey/runtime-EclipseApplication/x86dev/lib/libkernel.a(readlink.o)
                                         0x58 (size before relaxing)
 .eh_frame      0xffffffff80103338       0x38 /home/asergey/runtime-EclipseApplication/x86dev/lib/libkernel.a(readv.o)
                                         0x50 (size before relaxing)
 .eh_frame      0xffffffff80103370       0x50 /home/asergey/runtime-EclipseApplication/x86dev/lib/libkernel.a(rename.o)
                                         0x68 (size before relaxing)
 .eh_frame      0xffffffff801033c0       0x58 /home/asergey/runtime-EclipseApplication/x86dev/lib/libkernel.a(rmdir.o)
                                         0x70 (size before relaxing)
 .eh_frame      0xffffffff80103418       0x98 /home/asergey/runtime-EclipseApplication/x86dev/lib/libkernel.a(select.o)
                                         0xb0 (size before relaxing)
 .eh_frame      0xffffffff801034b0       0x30 /home/asergey/runtime-EclipseApplication/x86dev/lib/libkernel.a(stat.o)
                                         0x48 (size before relaxing)
 .eh_frame      0xffffffff801034e0       0x38 /home/asergey/runtime-EclipseApplication/x86dev/lib/libkernel.a(statfs.o)
                                         0x50 (size before relaxing)
 .eh_frame      0xffffffff80103518       0x40 /home/asergey/runtime-EclipseApplication/x86dev/lib/libkernel.a(symlink.o)
                                         0x58 (size before relaxing)
 .eh_frame      0xffffffff80103558       0x20 /home/asergey/runtime-EclipseApplication/x86dev/lib/libkernel.a(sync.o)
                                         0x38 (size before relaxing)
 .eh_frame      0xffffffff80103578       0x18 /home/asergey/runtime-EclipseApplication/x86dev/lib/libkernel.a(umask.o)
                                         0x30 (size before relaxing)
 .eh_frame      0xffffffff80103590       0x48 /home/asergey/runtime-EclipseApplication/x86dev/lib/libkernel.a(unlink.o)
                                         0x60 (size before relaxing)
 .eh_frame      0xffffffff801035d8       0x30 /home/asergey/runtime-EclipseApplication/x86dev/lib/libkernel.a(write.o)
                                         0x48 (size before relaxing)
 .eh_frame      0xffffffff80103608       0x38 /home/asergey/runtime-EclipseApplication/x86dev/lib/libkernel.a(writev.o)
                                         0x50 (size before relaxing)
 .eh_frame      0xffffffff80103640      0x130 /home/asergey/runtime-EclipseApplication/x86dev/lib/libkernel.a(blkwak_impl.o)
                                        0x148 (size before relaxing)
 .eh_frame      0xffffffff80103770       0x68 /home/asergey/runtime-EclipseApplication/x86dev/lib/libkernel.a(block.o)
                                         0x80 (size before relaxing)
 .eh_frame      0xffffffff801037d8       0x50 /home/asergey/runtime-EclipseApplication/x86dev/lib/libkernel.a(rewait.o)
                                         0x68 (size before relaxing)
 .eh_frame      0xffffffff80103828       0x40 /home/asergey/runtime-EclipseApplication/x86dev/lib/libkernel.a(wakeup.o)
                                         0x58 (size before relaxing)
 .eh_frame      0xffffffff80103868      0x5d8 /home/asergey/runtime-EclipseApplication/x86dev/lib/libkernel.a(kill_impl.o)
                                        0x5f0 (size before relaxing)
 .eh_frame      0xffffffff80103e40      0x2a0 /home/asergey/runtime-EclipseApplication/x86dev/lib/libkernel.a(signal_impl.o)
                                        0x2b8 (size before relaxing)
 .eh_frame      0xffffffff801040e0       0x18 /home/asergey/runtime-EclipseApplication/x86dev/lib/libkernel.a(kill.o)
                                         0x30 (size before relaxing)
 .eh_frame      0xffffffff801040f8       0x40 /home/asergey/runtime-EclipseApplication/x86dev/lib/libkernel.a(sigaction.o)
                                         0x58 (size before relaxing)
 .eh_frame      0xffffffff80104138       0x20 /home/asergey/runtime-EclipseApplication/x86dev/lib/libkernel.a(sigblock.o)
                                         0x38 (size before relaxing)
 .eh_frame      0xffffffff80104158       0x68 /home/asergey/runtime-EclipseApplication/x86dev/lib/libkernel.a(signotify.o)
                                         0x80 (size before relaxing)
 .eh_frame      0xffffffff801041c0       0x18 /home/asergey/runtime-EclipseApplication/x86dev/lib/libkernel.a(sigpause.o)
                                         0x30 (size before relaxing)
 .eh_frame      0xffffffff801041d8       0x28 /home/asergey/runtime-EclipseApplication/x86dev/lib/libkernel.a(sigpending.o)
                                         0x40 (size before relaxing)
 .eh_frame      0xffffffff80104200       0x38 /home/asergey/runtime-EclipseApplication/x86dev/lib/libkernel.a(sigprocmask.o)
                                         0x50 (size before relaxing)
 .eh_frame      0xffffffff80104238       0x18 /home/asergey/runtime-EclipseApplication/x86dev/lib/libkernel.a(sigqueue.o)
                                         0x30 (size before relaxing)
 .eh_frame      0xffffffff80104250       0x20 /home/asergey/runtime-EclipseApplication/x86dev/lib/libkernel.a(sigsetmask.o)
                                         0x38 (size before relaxing)
 .eh_frame      0xffffffff80104270       0x30 /home/asergey/runtime-EclipseApplication/x86dev/lib/libkernel.a(sigsuspend.o)
                                         0x48 (size before relaxing)
 .eh_frame      0xffffffff801042a0       0x40 /home/asergey/runtime-EclipseApplication/x86dev/lib/libkernel.a(sigtimedwait.o)
                                         0x58 (size before relaxing)
 .eh_frame      0xffffffff801042e0       0x40 /home/asergey/runtime-EclipseApplication/x86dev/lib/libkernel.a(sigvec.o)
                                         0x58 (size before relaxing)
 .eh_frame      0xffffffff80104320       0x30 /home/asergey/runtime-EclipseApplication/x86dev/lib/libkernel.a(sigwait.o)
                                         0x48 (size before relaxing)
 .eh_frame      0xffffffff80104350       0x40 /home/asergey/runtime-EclipseApplication/x86dev/lib/libkernel.a(get_set_thread_priority.o)
                                         0x58 (size before relaxing)
 .eh_frame      0xffffffff80104390       0x38 /home/asergey/runtime-EclipseApplication/x86dev/lib/libkernel.a(adjtime.o)
                                         0x50 (size before relaxing)
 .eh_frame      0xffffffff801043c8       0x30 /home/asergey/runtime-EclipseApplication/x86dev/lib/libkernel.a(gettimeofday.o)
                                         0x48 (size before relaxing)
 .eh_frame      0xffffffff801043f8       0x28 /home/asergey/runtime-EclipseApplication/x86dev/lib/libkernel.a(times.o)
                                         0x40 (size before relaxing)
 .eh_frame      0xffffffff80104420       0x38 /home/asergey/runtime-EclipseApplication/x86dev/lib/libkernel.a(settimeofday.o)
                                         0x50 (size before relaxing)
 .eh_frame      0xffffffff80104458       0x50 /home/asergey/runtime-EclipseApplication/x86dev/lib/libmisc.a(nhn.o)
                                         0x68 (size before relaxing)
 .eh_frame      0xffffffff801044a8       0x28 /home/asergey/runtime-EclipseApplication/x86dev/lib/libmisc.a(reg_access.o)
                                         0x40 (size before relaxing)
 .eh_frame      0xffffffff801044d0       0x40 /home/asergey/runtime-EclipseApplication/x86dev/lib/libmisc.a(abs.o)
                                         0x58 (size before relaxing)
 .eh_frame      0xffffffff80104510       0x38 /home/asergey/runtime-EclipseApplication/x86dev/lib/libmisc.a(calloc.o)
                                         0x50 (size before relaxing)
 .eh_frame      0xffffffff80104548       0x18 /home/asergey/runtime-EclipseApplication/x86dev/lib/libmisc.a(s_rindex.o)
                                         0x30 (size before relaxing)
 .eh_frame      0xffffffff80104560       0x18 /home/asergey/runtime-EclipseApplication/x86dev/lib/libmisc.a(strcat.o)
                                         0x30 (size before relaxing)
 .eh_frame      0xffffffff80104578       0x18 /home/asergey/runtime-EclipseApplication/x86dev/lib/libmisc.a(strcmp.o)
                                         0x30 (size before relaxing)
 .eh_frame      0xffffffff80104590       0x18 /home/asergey/runtime-EclipseApplication/x86dev/lib/libmisc.a(strchr.o)
                                         0x30 (size before relaxing)
 .eh_frame      0xffffffff801045a8       0x18 /home/asergey/runtime-EclipseApplication/x86dev/lib/libmisc.a(strcpy.o)
                                         0x30 (size before relaxing)
 .eh_frame      0xffffffff801045c0       0x18 /home/asergey/runtime-EclipseApplication/x86dev/lib/libmisc.a(strlen.o)
                                         0x30 (size before relaxing)
 .eh_frame      0xffffffff801045d8       0x18 /home/asergey/runtime-EclipseApplication/x86dev/lib/libmisc.a(strncat.o)
                                         0x30 (size before relaxing)
 .eh_frame      0xffffffff801045f0       0x18 /home/asergey/runtime-EclipseApplication/x86dev/lib/libmisc.a(strncmp.o)
                                         0x30 (size before relaxing)
 .eh_frame      0xffffffff80104608       0x18 /home/asergey/runtime-EclipseApplication/x86dev/lib/libmisc.a(strncpy.o)
                                         0x30 (size before relaxing)
 .eh_frame      0xffffffff80104620       0x18 /home/asergey/runtime-EclipseApplication/x86dev/lib/libmisc.a(strnlen.o)
                                         0x30 (size before relaxing)
 .eh_frame      0xffffffff80104638       0x70 /home/asergey/runtime-EclipseApplication/x86dev/lib/libmisc.a(malloc.o)
                                         0x88 (size before relaxing)
 .eh_frame      0xffffffff801046a8       0x18 /home/asergey/runtime-EclipseApplication/x86dev/lib/libmisc.a(memcmp.o)
                                         0x30 (size before relaxing)
 .eh_frame      0xffffffff801046c0       0x28 /home/asergey/runtime-EclipseApplication/x86dev/lib/libmisc.a(atomic_ops.o)
                                         0x40 (size before relaxing)
 .eh_frame      0xffffffff801046e8       0x28 /home/asergey/runtime-EclipseApplication/x86dev/lib/libmisc.a(memcpy_x86.o)
                                         0x40 (size before relaxing)
 .eh_frame      0xffffffff80104710       0x18 /home/asergey/runtime-EclipseApplication/x86dev/lib/libmisc.a(memset_x86.o)
                                         0x30 (size before relaxing)
 .eh_frame      0xffffffff80104728       0x48 /home/asergey/runtime-EclipseApplication/x86dev/lib/libfamily_x86_64.a(csp_misc.o)
                                         0x60 (size before relaxing)
 .eh_frame      0xffffffff80104770       0x58 /home/asergey/runtime-EclipseApplication/x86dev/lib/libfamily_x86_64.a(xcontext.o)
                                         0x70 (size before relaxing)
 .eh_frame      0xffffffff801047c8       0x60 /home/asergey/runtime-EclipseApplication/x86dev/lib/libfamily_x86_64.a(reloc_elf.o)
                                         0x78 (size before relaxing)
 .eh_frame      0xffffffff80104828       0x78 /home/asergey/runtime-EclipseApplication/x86dev/lib/libfamily_x86_64.a(signal.o)
                                         0x90 (size before relaxing)
 .eh_frame      0xffffffff801048a0       0x60 /home/asergey/runtime-EclipseApplication/x86dev/lib/libfamily_x86_64.a(syscall.o)
                                         0x78 (size before relaxing)
 .eh_frame      0xffffffff80104900       0xe8 /home/asergey/runtime-EclipseApplication/x86dev/lib/libcsp_x86_64.a(context.o)
                                        0x100 (size before relaxing)
 .eh_frame      0xffffffff801049e8      0x280 /home/asergey/runtime-EclipseApplication/x86dev/lib/libcsp_x86_64.a(csp_mem_map.o)
                                        0x298 (size before relaxing)
 .eh_frame      0xffffffff80104c68       0x60 /home/asergey/runtime-EclipseApplication/x86dev/lib/libcsp_x86_64.a(fpu.o)
                                         0x78 (size before relaxing)
 .eh_frame      0xffffffff80104cc8       0x18 /home/asergey/runtime-EclipseApplication/x86dev/lib/libcsp_x86_64.a(tlb.o)
                                         0x30 (size before relaxing)
 .eh_frame      0xffffffff80104ce0       0x78 /home/asergey/runtime-EclipseApplication/x86dev/lib/libptrace_x86_64.a(ptrace_trap.o)
                                         0x90 (size before relaxing)
 .eh_frame      0xffffffff80104d58       0x4c /home/asergey/runtime-EclipseApplication/x86dev/lib/libptrace.a(core.o)
                                         0x68 (size before relaxing)

.rela.dyn       0xffffffff80104da8        0x0
 .rela.got      0xffffffff80104da8        0x0 bsp.x86_64.o
 .rela.iplt     0xffffffff80104da8        0x0 bsp.x86_64.o
 .rela.text     0xffffffff80104da8        0x0 bsp.x86_64.o
 .rela.data     0xffffffff80104da8        0x0 bsp.x86_64.o

.rodata1
 *(.rodata1)
                0xffffffff80105000                . = ALIGN (0x1000)
                0xffffffff80105000                _etext = .
                [!provide]                        PROVIDE (etext = .)

.data           0xffffffff80105000   0x18ff60
 *(.data)
 .data          0xffffffff80105000     0x6998 bsp.x86_64.o
                0xffffffff80105000                ROMkp
                0xffffffff80105020                bsp_devices
                0xffffffff8010b820                drm_pci_bus0
                0xffffffff8010b8a0                drm_root
                0xffffffff8010b920                drm_bushandles
                0xffffffff8010b960                _sysctl_init_list
 .data          0xffffffff8010b998        0x0 conf_am.o
 *fill*         0xffffffff8010b998        0x8 
 .data          0xffffffff8010b9a0     0x1418 conf.o
                0xffffffff8010b9a0                kas
                0xffffffff8010ba20                kstacksize
                0xffffffff8010ba28                kguardsize
                0xffffffff8010ba30                console_device
                0xffffffff8010ba34                pcialloc_bios_mode
                0xffffffff8010ba35                pci_msi_enabled
                0xffffffff8010ba40                udrivers
                0xffffffff8010c438                nudrivers
                0xffffffff8010c440                ucdevsw
                0xffffffff8010c9c0                nucdevsw
                0xffffffff8010c9e0                ubdevsw
                0xffffffff8010ca60                nubdevsw
                0xffffffff8010ca70                fmod_sw
                0xffffffff8010caa0                devc_table
                0xffffffff8010cd40                NFDS
                0xffffffff8010cd44                maxsymlinks
                0xffffffff8010cd48                system_nproc
                0xffffffff8010cd4c                system_nstasks
                0xffffffff8010cd50                nbdevs
                0xffffffff8010cd54                ncdevs
                0xffffffff8010cd58                ndrivs
                0xffffffff8010cd60                vm0_permap_size
                0xffffffff8010cd68                Sys_nclock
                0xffffffff8010cd6c                sigqueue_max
                0xffffffff8010cd70                cblksize
                0xffffffff8010cd74                numioints
                0xffffffff8010cd78                numiovecs
                0xffffffff8010cd7c                numktimers
                0xffffffff8010cd80                default_quantum
                0xffffffff8010cd84                tickspersec
                0xffffffff8010cd88                nsecspertick
                0xffffffff8010cd90                ngroups
                0xffffffff8010cd94                hm_console
                0xffffffff8010cd98                put_klog
                0xffffffff8010cda0                skdb_key_serial
                0xffffffff8010cda1                skdb_brk_char
                0xffffffff8010cda8                kkpf_port_addr
                0xffffffff8010cdb0                kputc
 *fill*         0xffffffff8010cdb8        0x8 
 .data          0xffffffff8010cdc0      0x2a0 info.o
 .data          0xffffffff8010d060        0x0 timestamp.o
 .data          0xffffffff8010d060        0x7 /home/asergey/runtime-EclipseApplication/x86dev/lib/libcsp_x86_64.a(csp_init.o)
                0xffffffff8010d060                lynx_machine
 .data          0xffffffff8010d067        0x0 /home/asergey/runtime-EclipseApplication/x86dev/lib/libcsp_x86_64.a(csp_mem_map_am.o)
 .data          0xffffffff8010d067        0x0 /home/asergey/runtime-EclipseApplication/x86dev/lib/libcsp_x86_64.a(launch_am.o)
 .data          0xffffffff8010d067        0x0 /home/asergey/runtime-EclipseApplication/x86dev/lib/libcsp_x86_64.a(lowInit.o)
 .data          0xffffffff8010d067        0x0 /home/asergey/runtime-EclipseApplication/x86dev/lib/libcsp_x86_64.a(trap.o)
 .data          0xffffffff8010d067      0x800 /home/asergey/runtime-EclipseApplication/x86dev/lib/libcsp_x86_64.a(csp_flih_asm.o)
                0xffffffff8010d067                exceptions_vector_table
 .data          0xffffffff8010d867        0x0 /home/asergey/runtime-EclipseApplication/x86dev/lib/libcsp_x86_64.a(launch_asm.o)
 .data          0xffffffff8010d867        0x0 /home/asergey/runtime-EclipseApplication/x86dev/lib/libcsp_x86_64.a(csp_cache.o)
 .data          0xffffffff8010d867        0x0 /home/asergey/runtime-EclipseApplication/x86dev/lib/libcsp_x86_64.a(csp_init_am.o)
 *fill*         0xffffffff8010d867       0x19 
 .data          0xffffffff8010d880     0x1098 /home/asergey/runtime-EclipseApplication/x86dev/lib/libdrivers.a(ahcidrvr.o)
                0xffffffff8010d880                ahci_ids
 .data          0xffffffff8010e918        0x0 /home/asergey/runtime-EclipseApplication/x86dev/lib/libdrivers.a(ahciinfo.o)
 *fill*         0xffffffff8010e918        0x8 
 .data          0xffffffff8010e920      0x51c /home/asergey/runtime-EclipseApplication/x86dev/lib/libdrivers.a(kdbdrvr.o)
                0xffffffff8010ee38                skdb_dr_install_id
 *fill*         0xffffffff8010ee3c        0x4 
 .data          0xffffffff8010ee40       0x40 /home/asergey/runtime-EclipseApplication/x86dev/lib/libdrivers.a(lcs_emdrvr.o)
 .data          0xffffffff8010ee80       0x20 /home/asergey/runtime-EclipseApplication/x86dev/lib/libdrivers.a(lcs_eminfo.o)
                0xffffffff8010ee80                lcsem_info0
 .data          0xffffffff8010eea0        0x0 /home/asergey/runtime-EclipseApplication/x86dev/lib/libdrivers.a(ptracedrvr.o)
 .data          0xffffffff8010eea0      0x130 /home/asergey/runtime-EclipseApplication/x86dev/lib/libdrivers.a(tty_16550.o)
                0xffffffff8010eea0                uart_16550_ops
 *fill*         0xffffffff8010efd0       0x10 
 .data          0xffffffff8010efe0       0x38 /home/asergey/runtime-EclipseApplication/x86dev/lib/libdrivers.a(ttydrvr.o)
 *fill*         0xffffffff8010f018        0x8 
 .data          0xffffffff8010f020       0x68 /home/asergey/runtime-EclipseApplication/x86dev/lib/libdrivers.a(ttyinfo.o)
                0xffffffff8010f020                gencom_without_skdb
                0xffffffff8010f060                gencom_with_skdb
 *fill*         0xffffffff8010f088       0x18 
 .data          0xffffffff8010f0a0       0x28 /home/asergey/runtime-EclipseApplication/x86dev/lib/libdrivers.a(ehci_pci.o)
                0xffffffff8010f0a0                ehci_pci_ca
 .data          0xffffffff8010f0c8        0x0 /home/asergey/runtime-EclipseApplication/x86dev/lib/libdrivers.a(xhci_pci.o)
 *fill*         0xffffffff8010f0c8        0x8 
 .data          0xffffffff8010f0d0       0x10 /home/asergey/runtime-EclipseApplication/x86dev/lib/libdrivers.a(simusb.o)
 .data          0xffffffff8010f0e0       0xd2 /home/asergey/runtime-EclipseApplication/x86dev/lib/libdrivers.a(scsimgr.o)
                0xffffffff8010f100                sense_key_tbl
                0xffffffff8010f180                override_table
 *fill*         0xffffffff8010f1b2        0xe 
 .data          0xffffffff8010f1c0     0x1400 /home/asergey/runtime-EclipseApplication/x86dev/lib/libdrivers.a(scsi_timeout.o)
                0xffffffff8010f1c0                scsi_device_command_table
 .data          0xffffffff801105c0       0x48 /home/asergey/runtime-EclipseApplication/x86dev/lib/libdrivers.a(usbdrvr.o)
                0xffffffff801105c0                usb_ca
                0xffffffff80110600                usb_prio
                0xffffffff80110604                cold
 .data          0xffffffff80110608        0x0 /home/asergey/runtime-EclipseApplication/x86dev/lib/libdrivers.a(usbinfo.o)
 *fill*         0xffffffff80110608       0x18 
 .data          0xffffffff80110620       0x40 /home/asergey/runtime-EclipseApplication/x86dev/lib/libdrivers.a(virtio_netdrvr.o)
 .data          0xffffffff80110660        0x0 /home/asergey/runtime-EclipseApplication/x86dev/lib/libdrivers.a(lsk_helperdrvr.o)
 .data          0xffffffff80110660       0x80 /home/asergey/runtime-EclipseApplication/x86dev/lib/libdrivers.a(lcs_igcdrvr.o)
 .data          0xffffffff801106e0        0x0 /home/asergey/runtime-EclipseApplication/x86dev/lib/libdrivers.a(memdrvr.o)
 .data          0xffffffff801106e0        0x0 /home/asergey/runtime-EclipseApplication/x86dev/lib/libdrivers.a(ptydrvr.o)
 .data          0xffffffff801106e0       0x20 /home/asergey/runtime-EclipseApplication/x86dev/lib/libdrivers.a(ptyinfo.o)
                0xffffffff801106e0                ptyinfo
 .data          0xffffffff80110700        0x0 /home/asergey/runtime-EclipseApplication/x86dev/lib/libdrivers.a(rnddrvr.o)
 .data          0xffffffff80110700       0xe0 /home/asergey/runtime-EclipseApplication/x86dev/lib/libdrivers.a(lfatfsdrvr.o)
 .data          0xffffffff801107e0       0x80 /home/asergey/runtime-EclipseApplication/x86dev/lib/libdrivers.a(ixgbepfdrvr.o)
 .data          0xffffffff80110860        0x0 /home/asergey/runtime-EclipseApplication/x86dev/lib/libdrivers.a(ixgbepfinfo.o)
 .data          0xffffffff80110860        0x0 /home/asergey/runtime-EclipseApplication/x86dev/lib/libdrivers.a(lcsdrvr.o)
 .data          0xffffffff80110860   0x17bc00 /home/asergey/runtime-EclipseApplication/x86dev/lib/libdrivers.a(lcsinfo.o)
                0xffffffff80110860                lcs_config
 .data          0xffffffff8028c460        0x0 /home/asergey/runtime-EclipseApplication/x86dev/lib/libdrivers.a(lsk_fifo_pci.o)
 .data          0xffffffff8028c460        0x0 /home/asergey/runtime-EclipseApplication/x86dev/lib/libdrivers.a(lsk_fifodrvr.o)
 .data          0xffffffff8028c460        0x0 /home/asergey/runtime-EclipseApplication/x86dev/lib/libdrivers.a(lsk_fifoinfo.o)
 .data          0xffffffff8028c460        0x0 /home/asergey/runtime-EclipseApplication/x86dev/lib/libdrivers.a(hmdrvr.o)
 .data          0xffffffff8028c460        0x0 /home/asergey/runtime-EclipseApplication/x86dev/lib/libdrivers.a(hminfo.o)
 .data          0xffffffff8028c460        0x0 /home/asergey/runtime-EclipseApplication/x86dev/lib/libdrivers.a(mmapdrvr.o)
 .data          0xffffffff8028c460        0x0 /home/asergey/runtime-EclipseApplication/x86dev/lib/libdrivers.a(ahci.o)
 .data          0xffffffff8028c460        0x0 /home/asergey/runtime-EclipseApplication/x86dev/lib/libdrivers.a(ahci-port.o)
 .data          0xffffffff8028c460     0x4400 /home/asergey/runtime-EclipseApplication/x86dev/lib/libdrivers.a(dis_x86_64.o)
                0xffffffff8028c460                gfuncs
                0xffffffff8028c660                gnames
                0xffffffff8028c860                bc2
 .data          0xffffffff80290860        0x1 /home/asergey/runtime-EclipseApplication/x86dev/lib/libdrivers.a(kdb_x86_64.o)
 *fill*         0xffffffff80290861        0x3 
 .data          0xffffffff80290864        0x8 /home/asergey/runtime-EclipseApplication/x86dev/lib/libdrivers.a(remote.o)
                0xffffffff80290868                skdb_pktbuf_size
 .data          0xffffffff8029086c        0x0 /home/asergey/runtime-EclipseApplication/x86dev/lib/libdrivers.a(tty_io.o)
 *fill*         0xffffffff8029086c        0x4 
 .data          0xffffffff80290870        0xc /home/asergey/runtime-EclipseApplication/x86dev/lib/libdrivers.a(usbdi.o)
 *fill*         0xffffffff8029087c        0x4 
 .data          0xffffffff80290880      0x6d0 /home/asergey/runtime-EclipseApplication/x86dev/lib/libdrivers.a(usb_lynxos.o)
                0xffffffff80290880                cfdata
                0xffffffff80290cf0                uhidbuscf_locnames
                0xffffffff80290d00                pcicf_locnames
                0xffffffff80290d20                uhubcf_locnames
                0xffffffff80290d60                dummy_cd
                0xffffffff80290d80                ums_cd
                0xffffffff80290da0                umass_cd
                0xffffffff80290dc0                ukbd_cd
                0xffffffff80290de0                uhidev_cd
                0xffffffff80290e00                uhub_cd
                0xffffffff80290e20                usb_cd
                0xffffffff80290e40                uhci_cd
                0xffffffff80290e60                xhci_map_cd
                0xffffffff80290e80                ehci_map_cd
                0xffffffff80290ea0                ohci_map_cd
                0xffffffff80290ec0                ohci_cd
                0xffffffff80290ee0                lynxos_dma_tag
 .data          0xffffffff80290f50        0x0 /home/asergey/runtime-EclipseApplication/x86dev/lib/libdrivers.a(usb_subr.o)
 .data          0xffffffff80290f50        0x0 /home/asergey/runtime-EclipseApplication/x86dev/lib/libdrivers.a(usb_callouts.o)
 *fill*         0xffffffff80290f50       0x10 
 .data          0xffffffff80290f60       0x28 /home/asergey/runtime-EclipseApplication/x86dev/lib/libdrivers.a(ohci_drvr.o)
                0xffffffff80290f60                ohci_pci_ca
 *fill*         0xffffffff80290f88       0x18 
 .data          0xffffffff80290fa0      0x230 /home/asergey/runtime-EclipseApplication/x86dev/lib/libdrivers.a(ohci.o)
 *fill*         0xffffffff802911d0       0x10 
 .data          0xffffffff802911e0       0x28 /home/asergey/runtime-EclipseApplication/x86dev/lib/libdrivers.a(ohci_map.o)
                0xffffffff802911e0                ohci_map_ca
 *fill*         0xffffffff80291208       0x18 
 .data          0xffffffff80291220       0x28 /home/asergey/runtime-EclipseApplication/x86dev/lib/libdrivers.a(ehci_map.o)
                0xffffffff80291220                ehci_map_ca
 *fill*         0xffffffff80291248       0x18 
 .data          0xffffffff80291260      0x1f0 /home/asergey/runtime-EclipseApplication/x86dev/lib/libdrivers.a(ehci.o)
 *fill*         0xffffffff80291450       0x10 
 .data          0xffffffff80291460       0x28 /home/asergey/runtime-EclipseApplication/x86dev/lib/libdrivers.a(xhci_map.o)
                0xffffffff80291460                xhci_map_ca
 *fill*         0xffffffff80291488       0x18 
 .data          0xffffffff802914a0      0x190 /home/asergey/runtime-EclipseApplication/x86dev/lib/libdrivers.a(xhci.o)
 *fill*         0xffffffff80291630       0x10 
 .data          0xffffffff80291640       0x68 /home/asergey/runtime-EclipseApplication/x86dev/lib/libdrivers.a(uhub.o)
                0xffffffff80291640                uhub_uhub_ca
                0xffffffff80291680                uhub_ca
 *fill*         0xffffffff802916a8       0x18 
 .data          0xffffffff802916c0       0xbd /home/asergey/runtime-EclipseApplication/x86dev/lib/libdrivers.a(uhidev.o)
                0xffffffff802916c0                uhidev_ca
 *fill*         0xffffffff8029177d        0x3 
 .data          0xffffffff80291780       0x28 /home/asergey/runtime-EclipseApplication/x86dev/lib/libdrivers.a(ukbd.o)
                0xffffffff80291780                ukbd_ca
 .data          0xffffffff802917a8        0x0 /home/asergey/runtime-EclipseApplication/x86dev/lib/libdrivers.a(ukbdmap.o)
 *fill*         0xffffffff802917a8       0x18 
 .data          0xffffffff802917c0       0x48 /home/asergey/runtime-EclipseApplication/x86dev/lib/libdrivers.a(ums.o)
                0xffffffff802917c0                ums_ca
                0xffffffff802917f0                ums_ops
 *fill*         0xffffffff80291808       0x18 
 .data          0xffffffff80291820       0x48 /home/asergey/runtime-EclipseApplication/x86dev/lib/libdrivers.a(umass.o)
                0xffffffff80291840                umass_ca
 .data          0xffffffff80291868        0x0 /home/asergey/runtime-EclipseApplication/x86dev/lib/libdrivers.a(umass_quirks.o)
 .data          0xffffffff80291868        0x0 /home/asergey/runtime-EclipseApplication/x86dev/lib/libdrivers.a(virtqueue.o)
 .data          0xffffffff80291868        0x4 /home/asergey/runtime-EclipseApplication/x86dev/lib/libdrivers.a(virtio_pci.o)
                0xffffffff80291868                vtpci_vendor_info_array
 *fill*         0xffffffff8029186c       0x14 
 .data          0xffffffff80291880       0xf0 /home/asergey/runtime-EclipseApplication/x86dev/lib/libdrivers.a(if_igc.o)
                0xffffffff80291880                igc_vendor_info_array
 .data          0xffffffff80291970        0x0 /home/asergey/runtime-EclipseApplication/x86dev/lib/libdrivers.a(igc_i225.o)
 .data          0xffffffff80291970        0x0 /home/asergey/runtime-EclipseApplication/x86dev/lib/libdrivers.a(igc_mac.o)
 .data          0xffffffff80291970        0x0 /home/asergey/runtime-EclipseApplication/x86dev/lib/libdrivers.a(igc_nvm.o)
 .data          0xffffffff80291970        0x0 /home/asergey/runtime-EclipseApplication/x86dev/lib/libdrivers.a(igc_phy.o)
 .data          0xffffffff80291970        0x0 /home/asergey/runtime-EclipseApplication/x86dev/lib/libdrivers.a(lfatfs_blk.o)
 .data          0xffffffff80291970        0x0 /home/asergey/runtime-EclipseApplication/x86dev/lib/libdrivers.a(lfatfs_dent.o)
 *fill*         0xffffffff80291970       0x10 
 .data          0xffffffff80291980       0x40 /home/asergey/runtime-EclipseApplication/x86dev/lib/libdrivers.a(lfatfs_dir.o)
 .data          0xffffffff802919c0        0x0 /home/asergey/runtime-EclipseApplication/x86dev/lib/libdrivers.a(lfatfs_inode.o)
 .data          0xffffffff802919c0        0x0 /home/asergey/runtime-EclipseApplication/x86dev/lib/libdrivers.a(lfatfs_mnt.o)
 .data          0xffffffff802919c0        0x0 /home/asergey/runtime-EclipseApplication/x86dev/lib/libdrivers.a(lfat_sup.o)
 .data          0xffffffff802919c0        0x0 /home/asergey/runtime-EclipseApplication/x86dev/lib/libdrivers.a(msdosfs_conv.o)
 .data          0xffffffff802919c0        0x0 /home/asergey/runtime-EclipseApplication/x86dev/lib/libdrivers.a(msdosfs_denode.o)
 .data          0xffffffff802919c0        0x0 /home/asergey/runtime-EclipseApplication/x86dev/lib/libdrivers.a(msdosfs_fat.o)
 .data          0xffffffff802919c0        0x0 /home/asergey/runtime-EclipseApplication/x86dev/lib/libdrivers.a(msdosfs_lookup.o)
 .data          0xffffffff802919c0        0x0 /home/asergey/runtime-EclipseApplication/x86dev/lib/libdrivers.a(if_ix.o)
 .data          0xffffffff802919c0        0x0 /home/asergey/runtime-EclipseApplication/x86dev/lib/libdrivers.a(if_sriov.o)
 .data          0xffffffff802919c0        0x0 /home/asergey/runtime-EclipseApplication/x86dev/lib/libdrivers.a(ixgbe_api.o)
 .data          0xffffffff802919c0        0x0 /home/asergey/runtime-EclipseApplication/x86dev/lib/libdrivers.a(ixgbe_common.o)
 .data          0xffffffff802919c0       0x38 /home/asergey/runtime-EclipseApplication/x86dev/lib/libdrivers.a(ixgbepf_mbx.o)
                0xffffffff802919c0                ixgbepf_mbx_ops
 .data          0xffffffff802919f8        0x0 /home/asergey/runtime-EclipseApplication/x86dev/lib/libdrivers.a(ixgbe_x540.o)
 .data          0xffffffff802919f8        0x0 /home/asergey/runtime-EclipseApplication/x86dev/lib/libdrivers.a(ixgbe_x550.o)
 .data          0xffffffff802919f8        0x0 /home/asergey/runtime-EclipseApplication/x86dev/lib/libdrivers.a(ixgbepf_vf_common.o)
 .data          0xffffffff802919f8        0x0 /home/asergey/runtime-EclipseApplication/x86dev/lib/libdrivers.a(lcsthreads.o)
 *fill*         0xffffffff802919f8        0x8 
 .data          0xffffffff80291a00       0x50 /home/asergey/runtime-EclipseApplication/x86dev/lib/libdrivers.a(kbddrvr.o)
                0xffffffff80291a00                ukbd_handle
 *fill*         0xffffffff80291a50       0x10 
 .data          0xffffffff80291a60       0x20 /home/asergey/runtime-EclipseApplication/x86dev/lib/libdrivers.a(mousedrvr.o)
                0xffffffff80291a60                mousemgr_handle
 .data          0xffffffff80291a80        0x0 /home/asergey/runtime-EclipseApplication/x86dev/lib/libdrivers.a(usbdi_util.o)
 .data          0xffffffff80291a80        0x0 /home/asergey/runtime-EclipseApplication/x86dev/lib/libdrivers.a(usb_mem.o)
 .data          0xffffffff80291a80        0x0 /home/asergey/runtime-EclipseApplication/x86dev/lib/libdrivers.a(usb_quirks.o)
 .data          0xffffffff80291a80        0x0 /home/asergey/runtime-EclipseApplication/x86dev/lib/libdrivers.a(usbroothub.o)
 .data          0xffffffff80291a80        0x0 /home/asergey/runtime-EclipseApplication/x86dev/lib/libdrivers.a(hid.o)
 .data          0xffffffff80291a80        0x0 /home/asergey/runtime-EclipseApplication/x86dev/lib/libdrivers.a(igc_api.o)
 .data          0xffffffff80291a80        0x0 /home/asergey/runtime-EclipseApplication/x86dev/lib/libdrivers.a(igc_base.o)
 .data          0xffffffff80291a80        0x0 /home/asergey/runtime-EclipseApplication/x86dev/lib/libdrivers.a(ixgbe_phy.o)
 .data          0xffffffff80291a80        0x0 /home/asergey/runtime-EclipseApplication/x86dev/lib/libdrivers_rsc.a(nulldrvr.o)
 .data          0xffffffff80291a80        0x0 /home/asergey/runtime-EclipseApplication/x86dev/lib/libdrivers_rsc.a(rddrvr.o)
 .data          0xffffffff80291a80      0x180 /home/asergey/runtime-EclipseApplication/x86dev/lib/libdrivers_rsc.a(rdinfo.o)
                0xffffffff80291a80                rdinfo0
 .data          0xffffffff80291c00        0x0 /home/asergey/runtime-EclipseApplication/x86dev/lib/libdrivers_rsc.a(vmosdrvr.o)
 .data          0xffffffff80291c00        0x0 /home/asergey/runtime-EclipseApplication/x86dev/lib/libdrivers_rsc.a(arinc653drvr.o)
 .data          0xffffffff80291c00        0x0 /home/asergey/runtime-EclipseApplication/x86dev/lib/libdrivers_rsc.a(arinc653info.o)
 .data          0xffffffff80291c00       0xb8 /home/asergey/runtime-EclipseApplication/x86dev/lib/libdrivers_rsc.a(arinc653drvr_inter.o)
 .data          0xffffffff80291cb8        0x0 /home/asergey/runtime-EclipseApplication/x86dev/lib/liblcs.a(lldinit.o)
 .data          0xffffffff80291cb8        0x0 /home/asergey/runtime-EclipseApplication/x86dev/lib/liblcs.a(llinput.o)
 *fill*         0xffffffff80291cb8        0x8 
 .data          0xffffffff80291cc0       0x28 /home/asergey/runtime-EclipseApplication/x86dev/lib/liblcs.a(lld_pfifo_ts.o)
                0xffffffff80291cc0                pfifo_shaper
 .data          0xffffffff80291ce8        0x0 /home/asergey/runtime-EclipseApplication/x86dev/lib/liblcs.a(arminit.o)
 .data          0xffffffff80291ce8        0x0 /home/asergey/runtime-EclipseApplication/x86dev/lib/liblcs.a(arp.o)
 .data          0xffffffff80291ce8        0x0 /home/asergey/runtime-EclipseApplication/x86dev/lib/liblcs.a(udp_init.o)
 .data          0xffffffff80291ce8        0x0 /home/asergey/runtime-EclipseApplication/x86dev/lib/liblcs.a(icmp6_ini.o)
 .data          0xffffffff80291ce8        0x0 /home/asergey/runtime-EclipseApplication/x86dev/lib/liblcs.a(in6_ifattach.o)
 .data          0xffffffff80291ce8        0x0 /home/asergey/runtime-EclipseApplication/x86dev/lib/liblcs.a(in6_pcb.o)
 .data          0xffffffff80291ce8        0x0 /home/asergey/runtime-EclipseApplication/x86dev/lib/liblcs.a(in6_route.o)
 .data          0xffffffff80291ce8        0x0 /home/asergey/runtime-EclipseApplication/x86dev/lib/liblcs.a(ip6_ctlo.o)
 .data          0xffffffff80291ce8        0x0 /home/asergey/runtime-EclipseApplication/x86dev/lib/liblcs.a(ip6_init.o)
 .data          0xffffffff80291ce8        0x0 /home/asergey/runtime-EclipseApplication/x86dev/lib/liblcs.a(ip6_input.o)
 .data          0xffffffff80291ce8        0x0 /home/asergey/runtime-EclipseApplication/x86dev/lib/liblcs.a(ip6_reassem.o)
 .data          0xffffffff80291ce8        0x0 /home/asergey/runtime-EclipseApplication/x86dev/lib/liblcs.a(ip_input.o)
 .data          0xffffffff80291ce8        0x0 /home/asergey/runtime-EclipseApplication/x86dev/lib/liblcs.a(in_util.o)
 .data          0xffffffff80291ce8        0x0 /home/asergey/runtime-EclipseApplication/x86dev/lib/liblcs.a(ip_reassem.o)
 .data          0xffffffff80291ce8        0x0 /home/asergey/runtime-EclipseApplication/x86dev/lib/liblcs.a(ip_init.o)
 .data          0xffffffff80291ce8        0x0 /home/asergey/runtime-EclipseApplication/x86dev/lib/liblcs.a(icmp_in.o)
 .data          0xffffffff80291ce8        0x0 /home/asergey/runtime-EclipseApplication/x86dev/lib/liblcs.a(icmp_ini.o)
 .data          0xffffffff80291ce8        0x0 /home/asergey/runtime-EclipseApplication/x86dev/lib/liblcs.a(tcp_inpt.o)
 .data          0xffffffff80291ce8        0x0 /home/asergey/runtime-EclipseApplication/x86dev/lib/liblcs.a(tcp_out.o)
 *fill*         0xffffffff80291ce8       0x18 
 .data          0xffffffff80291d00       0x34 /home/asergey/runtime-EclipseApplication/x86dev/lib/liblcs.a(tcp_time.o)
                0xffffffff80291d00                tcp_backoff
 *fill*         0xffffffff80291d34        0x4 
 .data          0xffffffff80291d38        0xb /home/asergey/runtime-EclipseApplication/x86dev/lib/liblcs.a(tcp_init.o)
                0xffffffff80291d38                tcp_outflags
 .data          0xffffffff80291d43        0x0 /home/asergey/runtime-EclipseApplication/x86dev/lib/liblcs.a(tcp_pcb.o)
 .data          0xffffffff80291d43        0x0 /home/asergey/runtime-EclipseApplication/x86dev/lib/liblcs.a(tcp_util.o)
 .data          0xffffffff80291d43        0x0 /home/asergey/runtime-EclipseApplication/x86dev/lib/liblcs.a(igmp.o)
 *fill*         0xffffffff80291d43       0x1d 
 .data          0xffffffff80291d60       0xc0 /home/asergey/runtime-EclipseApplication/x86dev/lib/liblcs.a(lcs_nux.o)
                0xffffffff80291d60                lcsnux_sockops
 .data          0xffffffff80291e20        0x0 /home/asergey/runtime-EclipseApplication/x86dev/lib/liblcs.a(ioctl.o)
 .data          0xffffffff80291e20        0x0 /home/asergey/runtime-EclipseApplication/x86dev/lib/liblcs.a(select.o)
 .data          0xffffffff80291e20        0x0 /home/asergey/runtime-EclipseApplication/x86dev/lib/liblcs.a(sock.o)
 .data          0xffffffff80291e20       0xa0 /home/asergey/runtime-EclipseApplication/x86dev/lib/liblcs.a(sock_raw.o)
                0xffffffff80291e20                raw_ops
 .data          0xffffffff80291ec0       0xa0 /home/asergey/runtime-EclipseApplication/x86dev/lib/liblcs.a(sock_udp.o)
                0xffffffff80291ec0                udp_ops
 .data          0xffffffff80291f60       0xa0 /home/asergey/runtime-EclipseApplication/x86dev/lib/liblcs.a(sock_tcp.o)
                0xffffffff80291f60                tcp_ops
 .data          0xffffffff80292000        0x0 /home/asergey/runtime-EclipseApplication/x86dev/lib/liblcs.a(tmrchk.o)
 .data          0xffffffff80292000        0x0 /home/asergey/runtime-EclipseApplication/x86dev/lib/liblcs.a(tmrinit.o)
 .data          0xffffffff80292000        0x0 /home/asergey/runtime-EclipseApplication/x86dev/lib/liblcs.a(tmrscall.o)
 .data          0xffffffff80292000        0x0 /home/asergey/runtime-EclipseApplication/x86dev/lib/liblcs.a(tmrset.o)
 .data          0xffffffff80292000        0x0 /home/asergey/runtime-EclipseApplication/x86dev/lib/liblcs.a(tmrsrec.o)
 .data          0xffffffff80292000        0x0 /home/asergey/runtime-EclipseApplication/x86dev/lib/liblcs.a(tmrstop.o)
 .data          0xffffffff80292000        0x0 /home/asergey/runtime-EclipseApplication/x86dev/lib/liblcs.a(iorbcopy.o)
 .data          0xffffffff80292000        0x0 /home/asergey/runtime-EclipseApplication/x86dev/lib/liblcs.a(iorbfree.o)
 .data          0xffffffff80292000        0x0 /home/asergey/runtime-EclipseApplication/x86dev/lib/liblcs.a(bm_init.o)
 .data          0xffffffff80292000        0x0 /home/asergey/runtime-EclipseApplication/x86dev/lib/liblcs.a(iorbdup.o)
 .data          0xffffffff80292000        0x0 /home/asergey/runtime-EclipseApplication/x86dev/lib/liblcs.a(iorbget.o)
 .data          0xffffffff80292000        0x0 /home/asergey/runtime-EclipseApplication/x86dev/lib/liblcs.a(iorbunlk.o)
 .data          0xffffffff80292000        0x0 /home/asergey/runtime-EclipseApplication/x86dev/lib/liblcs.a(iorbcs.o)
 .data          0xffffffff80292000        0x0 /home/asergey/runtime-EclipseApplication/x86dev/lib/liblcs.a(qsort.o)
 .data          0xffffffff80292000        0x0 /home/asergey/runtime-EclipseApplication/x86dev/lib/liblcs.a(cksum.o)
 .data          0xffffffff80292000        0x0 /home/asergey/runtime-EclipseApplication/x86dev/lib/liblcs.a(clntport.o)
 .data          0xffffffff80292000        0x0 /home/asergey/runtime-EclipseApplication/x86dev/lib/liblcs.a(hm.o)
 .data          0xffffffff80292000        0x0 /home/asergey/runtime-EclipseApplication/x86dev/lib/liblcs.a(lcsprio.o)
 .data          0xffffffff80292000        0x0 /home/asergey/runtime-EclipseApplication/x86dev/lib/liblcs.a(uio_move.o)
 .data          0xffffffff80292000        0x0 /home/asergey/runtime-EclipseApplication/x86dev/lib/liblcs.a(psbdrop.o)
 .data          0xffffffff80292000        0x0 /home/asergey/runtime-EclipseApplication/x86dev/lib/liblcs.a(psbget.o)
 .data          0xffffffff80292000        0x0 /home/asergey/runtime-EclipseApplication/x86dev/lib/liblcs.a(psbscap.o)
 .data          0xffffffff80292000        0x0 /home/asergey/runtime-EclipseApplication/x86dev/lib/liblcs.a(psbadd.o)
 .data          0xffffffff80292000        0x0 /home/asergey/runtime-EclipseApplication/x86dev/lib/liblcs.a(psbspace.o)
 .data          0xffffffff80292000        0x0 /home/asergey/runtime-EclipseApplication/x86dev/lib/liblcs.a(psbcount.o)
 .data          0xffffffff80292000        0x0 /home/asergey/runtime-EclipseApplication/x86dev/lib/liblcs.a(psbgcap.o)
 .data          0xffffffff80292000        0x0 /home/asergey/runtime-EclipseApplication/x86dev/lib/liblcs.a(psbpeek.o)
 .data          0xffffffff80292000        0x0 /home/asergey/runtime-EclipseApplication/x86dev/lib/liblcs.a(llmcast.o)
 .data          0xffffffff80292000        0x0 /home/asergey/runtime-EclipseApplication/x86dev/lib/liblcs.a(lloutput.o)
 .data          0xffffffff80292000        0x0 /home/asergey/runtime-EclipseApplication/x86dev/lib/liblcs.a(arpreq.o)
 .data          0xffffffff80292000        0x0 /home/asergey/runtime-EclipseApplication/x86dev/lib/liblcs.a(arpsrch.o)
 .data          0xffffffff80292000        0x0 /home/asergey/runtime-EclipseApplication/x86dev/lib/liblcs.a(udp_atch.o)
 .data          0xffffffff80292000        0x0 /home/asergey/runtime-EclipseApplication/x86dev/lib/liblcs.a(udp_bind.o)
 .data          0xffffffff80292000        0x0 /home/asergey/runtime-EclipseApplication/x86dev/lib/liblcs.a(udp_conn.o)
 .data          0xffffffff80292000        0x0 /home/asergey/runtime-EclipseApplication/x86dev/lib/liblcs.a(udp_dtch.o)
 .data          0xffffffff80292000        0x0 /home/asergey/runtime-EclipseApplication/x86dev/lib/liblcs.a(udp_inpt.o)
 .data          0xffffffff80292000        0x0 /home/asergey/runtime-EclipseApplication/x86dev/lib/liblcs.a(udp_pcb.o)
 .data          0xffffffff80292000        0x0 /home/asergey/runtime-EclipseApplication/x86dev/lib/liblcs.a(udp_peer.o)
 .data          0xffffffff80292000        0x0 /home/asergey/runtime-EclipseApplication/x86dev/lib/liblcs.a(udp_sock.o)
 .data          0xffffffff80292000        0x0 /home/asergey/runtime-EclipseApplication/x86dev/lib/liblcs.a(udp6_input.o)
 .data          0xffffffff80292000        0x0 /home/asergey/runtime-EclipseApplication/x86dev/lib/liblcs.a(udp6_out.o)
 .data          0xffffffff80292000        0x0 /home/asergey/runtime-EclipseApplication/x86dev/lib/liblcs.a(udp_disc.o)
 .data          0xffffffff80292000        0x0 /home/asergey/runtime-EclipseApplication/x86dev/lib/liblcs.a(udp_out.o)
 .data          0xffffffff80292000        0x0 /home/asergey/runtime-EclipseApplication/x86dev/lib/liblcs.a(udp_util.o)
 .data          0xffffffff80292000        0x0 /home/asergey/runtime-EclipseApplication/x86dev/lib/liblcs.a(icmp6_in.o)
 .data          0xffffffff80292000        0x0 /home/asergey/runtime-EclipseApplication/x86dev/lib/liblcs.a(icmp6_error.o)
 .data          0xffffffff80292000        0x0 /home/asergey/runtime-EclipseApplication/x86dev/lib/liblcs.a(in6_pbind.o)
 .data          0xffffffff80292000        0x0 /home/asergey/runtime-EclipseApplication/x86dev/lib/liblcs.a(in6_pcon.o)
 .data          0xffffffff80292000        0x0 /home/asergey/runtime-EclipseApplication/x86dev/lib/liblcs.a(in6_plook.o)
 .data          0xffffffff80292000        0x0 /home/asergey/runtime-EclipseApplication/x86dev/lib/liblcs.a(in6_util.o)
 .data          0xffffffff80292000        0x0 /home/asergey/runtime-EclipseApplication/x86dev/lib/liblcs.a(ip6_outpt.o)
 .data          0xffffffff80292000        0x0 /home/asergey/runtime-EclipseApplication/x86dev/lib/liblcs.a(in_pcon.o)
 .data          0xffffffff80292000       0x80 /home/asergey/runtime-EclipseApplication/x86dev/lib/liblcs.a(in_route.o)
                0xffffffff80292000                rt_ops
 .data          0xffffffff80292080        0x0 /home/asergey/runtime-EclipseApplication/x86dev/lib/liblcs.a(ip_ctlo.o)
 .data          0xffffffff80292080        0x0 /home/asergey/runtime-EclipseApplication/x86dev/lib/liblcs.a(ip_outpt.o)
 .data          0xffffffff80292080        0x0 /home/asergey/runtime-EclipseApplication/x86dev/lib/liblcs.a(tcp_atch.o)
 .data          0xffffffff80292080        0x0 /home/asergey/runtime-EclipseApplication/x86dev/lib/liblcs.a(tcp_clse.o)
 .data          0xffffffff80292080        0x0 /home/asergey/runtime-EclipseApplication/x86dev/lib/liblcs.a(tcp_disc.o)
 .data          0xffffffff80292080        0x0 /home/asergey/runtime-EclipseApplication/x86dev/lib/liblcs.a(tcp_bind.o)
 .data          0xffffffff80292080        0x0 /home/asergey/runtime-EclipseApplication/x86dev/lib/liblcs.a(tcp_conn.o)
 .data          0xffffffff80292080        0x0 /home/asergey/runtime-EclipseApplication/x86dev/lib/liblcs.a(tcp_lstn.o)
 .data          0xffffffff80292080        0x0 /home/asergey/runtime-EclipseApplication/x86dev/lib/libnfs_client.a(nfs_file_open.o)
 .data          0xffffffff80292080       0x18 /home/asergey/runtime-EclipseApplication/x86dev/lib/libnfs_client.a(nfsinfo.o)
                0xffffffff80292080                unfs_info
 .data          0xffffffff80292098        0x4 /home/asergey/runtime-EclipseApplication/x86dev/lib/libnfs_client.a(nfs_inode.o)
                0xffffffff80292098                nfshead_sem
 .data          0xffffffff8029209c        0x4 /home/asergey/runtime-EclipseApplication/x86dev/lib/libnfs_client.a(unfs_driver.o)
                0xffffffff8029209c                nfs_splfs_sem
 .data          0xffffffff802920a0       0x60 /home/asergey/runtime-EclipseApplication/x86dev/lib/libnfs_client.a(nfs_mount.o)
                0xffffffff802920a0                nfs_ac_cache_out_ptr
                0xffffffff802920a8                nfs_ac_mp_attributes_ptr
                0xffffffff802920b0                nfs_sync_stask_start_ptr
                0xffffffff802920c0                nfs_default_opt
 .data          0xffffffff80292100        0x0 /home/asergey/runtime-EclipseApplication/x86dev/lib/libptrace_x86_64.a(ptrace_ctx.o)
 .data          0xffffffff80292100        0x0 /home/asergey/runtime-EclipseApplication/x86dev/lib/libptrace_x86_64.a(ptrace_dbg_ctx.o)
 .data          0xffffffff80292100      0x188 /home/asergey/runtime-EclipseApplication/x86dev/lib/libptrace.a(ptrace.o)
                0xffffffff80292100                ptrace_ops
 .data          0xffffffff80292288        0x0 /home/asergey/runtime-EclipseApplication/x86dev/lib/libptrace.a(ptrace_child.o)
 .data          0xffffffff80292288        0x0 /home/asergey/runtime-EclipseApplication/x86dev/lib/libptrace.a(ptrace_fctx.o)
 .data          0xffffffff80292288        0x0 /home/asergey/runtime-EclipseApplication/x86dev/lib/libptrace.a(ptrace_kill.o)
 .data          0xffffffff80292288        0x0 /home/asergey/runtime-EclipseApplication/x86dev/lib/libptrace.a(ptrace_tde.o)
 .data          0xffffffff80292288        0x0 /home/asergey/runtime-EclipseApplication/x86dev/lib/libdrm.a(drm.o)
 *fill*         0xffffffff80292288       0x18 
 .data          0xffffffff802922a0       0x60 /home/asergey/runtime-EclipseApplication/x86dev/lib/libdrm.a(pcibus.o)
                0xffffffff802922a0                pcibus_handle
 .data          0xffffffff80292300       0x60 /home/asergey/runtime-EclipseApplication/x86dev/lib/libdrm.a(sysbus.o)
                0xffffffff80292300                sysbus_handle
 .data          0xffffffff80292360      0x2e8 /home/asergey/runtime-EclipseApplication/x86dev/lib/libdrm.a(drm_sysctl.o)
                0xffffffff80292360                sysctl___hw_drm_cmd
                0xffffffff802923c0                sysctl___hw_drm_setnode
                0xffffffff80292420                sysctl___hw_drm_getnode
                0xffffffff80292480                sysctl___hw_drm_getparent
                0xffffffff802924e0                sysctl___hw_drm_getsibling
                0xffffffff80292540                sysctl___hw_drm_getchild
                0xffffffff802925a0                sysctl___hw_drm_getroot
                0xffffffff80292600                sysctl___hw_drm
 *fill*         0xffffffff80292648       0x18 
 .data          0xffffffff80292660       0x48 /home/asergey/runtime-EclipseApplication/x86dev/lib/libdrm.a(pci_sysctl.o)
                0xffffffff80292660                sysctl___hw_drm_pci
 *fill*         0xffffffff802926a8       0x18 
 .data          0xffffffff802926c0       0x20 /home/asergey/runtime-EclipseApplication/x86dev/lib/libdrm.a(bios_pcialloc.o)
                0xffffffff802926c0                pcibus_alloc_handle
 .data          0xffffffff802926e0        0x0 /home/asergey/runtime-EclipseApplication/x86dev/lib/libkernel.a(bread.o)
 .data          0xffffffff802926e0        0x0 /home/asergey/runtime-EclipseApplication/x86dev/lib/libkernel.a(chread.o)
 .data          0xffffffff802926e0        0x0 /home/asergey/runtime-EclipseApplication/x86dev/lib/libkernel.a(ddread.o)
 .data          0xffffffff802926e0        0x0 /home/asergey/runtime-EclipseApplication/x86dev/lib/libkernel.a(deliver.o)
 .data          0xffffffff802926e0        0x0 /home/asergey/runtime-EclipseApplication/x86dev/lib/libkernel.a(dfread.o)
 .data          0xffffffff802926e0        0x0 /home/asergey/runtime-EclipseApplication/x86dev/lib/libkernel.a(environ.o)
 .data          0xffffffff802926e0        0x0 /home/asergey/runtime-EclipseApplication/x86dev/lib/libkernel.a(exception.o)
 .data          0xffffffff802926e0        0x4 /home/asergey/runtime-EclipseApplication/x86dev/lib/libkernel.a(exit.o)
                0xffffffff802926e0                cinit_id
 *fill*         0xffffffff802926e4       0x1c 
 .data          0xffffffff80292700       0x40 /home/asergey/runtime-EclipseApplication/x86dev/lib/libkernel.a(fast_ada.o)
                0xffffffff80292700                usr_obj
                0xffffffff80292720                fa_obj
 .data          0xffffffff80292740        0x0 /home/asergey/runtime-EclipseApplication/x86dev/lib/libkernel.a(file_open.o)
 .data          0xffffffff80292740        0x0 /home/asergey/runtime-EclipseApplication/x86dev/lib/libkernel.a(fpcontext.o)
 .data          0xffffffff80292740        0x0 /home/asergey/runtime-EclipseApplication/x86dev/lib/libkernel.a(get_freefile.o)
 .data          0xffffffff80292740        0x0 /home/asergey/runtime-EclipseApplication/x86dev/lib/libkernel.a(getmem.o)
 .data          0xffffffff80292740        0x0 /home/asergey/runtime-EclipseApplication/x86dev/lib/libkernel.a(getrusage.o)
 .data          0xffffffff80292740        0x0 /home/asergey/runtime-EclipseApplication/x86dev/lib/libkernel.a(hm_except.o)
 .data          0xffffffff80292740        0x0 /home/asergey/runtime-EclipseApplication/x86dev/lib/libkernel.a(hwmarks.o)
 .data          0xffffffff80292740        0x0 /home/asergey/runtime-EclipseApplication/x86dev/lib/libkernel.a(initdrivers.o)
 .data          0xffffffff80292740        0x0 /home/asergey/runtime-EclipseApplication/x86dev/lib/libkernel.a(inode.o)
 .data          0xffffffff80292740        0x0 /home/asergey/runtime-EclipseApplication/x86dev/lib/libkernel.a(ioint.o)
 .data          0xffffffff80292740        0x0 /home/asergey/runtime-EclipseApplication/x86dev/lib/libkernel.a(kern_syms.o)
 .data          0xffffffff80292740       0x50 /home/asergey/runtime-EclipseApplication/x86dev/lib/libkernel.a(kprintf.o)
                0xffffffff80292778                skdb_port
                0xffffffff80292780                skdb_dev
 .data          0xffffffff80292790        0x4 /home/asergey/runtime-EclipseApplication/x86dev/lib/libkernel.a(globswap.o)
 .data          0xffffffff80292794        0x0 /home/asergey/runtime-EclipseApplication/x86dev/lib/libkernel.a(lockf.o)
 *fill*         0xffffffff80292794        0xc 
 .data          0xffffffff802927a0      0x100 /home/asergey/runtime-EclipseApplication/x86dev/lib/libkernel.a(lynxfs.o)
 .data          0xffffffff802928a0      0x1a8 /home/asergey/runtime-EclipseApplication/x86dev/lib/libkernel.a(main.o)
                0xffffffff802928a0                dbg_ops
 .data          0xffffffff80292a48        0x0 /home/asergey/runtime-EclipseApplication/x86dev/lib/libkernel.a(map_kernel_am.o)
 .data          0xffffffff80292a48        0x0 /home/asergey/runtime-EclipseApplication/x86dev/lib/libkernel.a(mem_map.o)
 .data          0xffffffff80292a48        0x0 /home/asergey/runtime-EclipseApplication/x86dev/lib/libkernel.a(name_server.o)
 *fill*         0xffffffff80292a48       0x18 
 .data          0xffffffff80292a60       0xe0 /home/asergey/runtime-EclipseApplication/x86dev/lib/libkernel.a(nux.o)
                0xffffffff80292a60                nux
 .data          0xffffffff80292b40        0x0 /home/asergey/runtime-EclipseApplication/x86dev/lib/libkernel.a(osm.o)
 .data          0xffffffff80292b40        0x0 /home/asergey/runtime-EclipseApplication/x86dev/lib/libkernel.a(pagefault.o)
 .data          0xffffffff80292b40        0x4 /home/asergey/runtime-EclipseApplication/x86dev/lib/libkernel.a(panic.o)
 .data          0xffffffff80292b44        0x0 /home/asergey/runtime-EclipseApplication/x86dev/lib/libkernel.a(perm.o)
 .data          0xffffffff80292b44        0x0 /home/asergey/runtime-EclipseApplication/x86dev/lib/libkernel.a(pipe.o)
 .data          0xffffffff80292b44        0x0 /home/asergey/runtime-EclipseApplication/x86dev/lib/libkernel.a(priot.o)
 *fill*         0xffffffff80292b44        0xc 
 .data          0xffffffff80292b50       0x18 /home/asergey/runtime-EclipseApplication/x86dev/lib/libkernel.a(procinit.o)
 .data          0xffffffff80292b68        0x0 /home/asergey/runtime-EclipseApplication/x86dev/lib/libkernel.a(reco.o)
 .data          0xffffffff80292b68        0x4 /home/asergey/runtime-EclipseApplication/x86dev/lib/libkernel.a(resched.o)
                0xffffffff80292b68                __osm_mode
 .data          0xffffffff80292b6c        0x0 /home/asergey/runtime-EclipseApplication/x86dev/lib/libkernel.a(rtimeset.o)
 .data          0xffffffff80292b6c        0x0 /home/asergey/runtime-EclipseApplication/x86dev/lib/libkernel.a(sbrk.o)
 *fill*         0xffffffff80292b6c       0x14 
 .data          0xffffffff80292b80       0x24 /home/asergey/runtime-EclipseApplication/x86dev/lib/libkernel.a(setpriority.o)
                0xffffffff80292b80                priorange
 .data          0xffffffff80292ba4        0x0 /home/asergey/runtime-EclipseApplication/x86dev/lib/libkernel.a(setscheduler.o)
 *fill*         0xffffffff80292ba4       0x1c 
 .data          0xffffffff80292bc0       0x20 /home/asergey/runtime-EclipseApplication/x86dev/lib/libkernel.a(stack.o)
                0xffffffff80292bc0                user_stack_obj
 .data          0xffffffff80292be0        0x0 /home/asergey/runtime-EclipseApplication/x86dev/lib/libkernel.a(stask.o)
 .data          0xffffffff80292be0        0x0 /home/asergey/runtime-EclipseApplication/x86dev/lib/libkernel.a(stopcpu.o)
 .data          0xffffffff80292be0        0x0 /home/asergey/runtime-EclipseApplication/x86dev/lib/libkernel.a(swait.o)
 .data          0xffffffff80292be0        0x0 /home/asergey/runtime-EclipseApplication/x86dev/lib/libkernel.a(sysbrk.o)
 .data          0xffffffff80292be0        0x0 /home/asergey/runtime-EclipseApplication/x86dev/lib/libkernel.a(tde.o)
 .data          0xffffffff80292be0        0x8 /home/asergey/runtime-EclipseApplication/x86dev/lib/libkernel.a(threads.o)
                0xffffffff80292be0                cancelcookie
 .data          0xffffffff80292be8        0x8 /home/asergey/runtime-EclipseApplication/x86dev/lib/libkernel.a(time.o)
                0xffffffff80292be8                ticks_since_last_clkint
 .data          0xffffffff80292bf0        0x0 /home/asergey/runtime-EclipseApplication/x86dev/lib/libkernel.a(timeout.o)
 .data          0xffffffff80292bf0        0x0 /home/asergey/runtime-EclipseApplication/x86dev/lib/libkernel.a(usleep.o)
 .data          0xffffffff80292bf0        0x8 /home/asergey/runtime-EclipseApplication/x86dev/lib/libkernel.a(utils.o)
                0xffffffff80292bf0                SSI_ind_fun
 .data          0xffffffff80292bf8        0x4 /home/asergey/runtime-EclipseApplication/x86dev/lib/libkernel.a(vfs.o)
 .data          0xffffffff80292bfc        0x0 /home/asergey/runtime-EclipseApplication/x86dev/lib/libkernel.a(vmos_rinsert.o)
 .data          0xffffffff80292bfc       0x10 /home/asergey/runtime-EclipseApplication/x86dev/lib/libkernel.a(vmosschedu.o)
                0xffffffff80292c00                num_scheds
                0xffffffff80292c04                num_vms
                0xffffffff80292c08                max_num_vms
 .data          0xffffffff80292c0c        0x0 /home/asergey/runtime-EclipseApplication/x86dev/lib/libkernel.a(execve.o)
 .data          0xffffffff80292c0c        0x0 /home/asergey/runtime-EclipseApplication/x86dev/lib/libkernel.a(fast_sem_open.o)
 .data          0xffffffff80292c0c        0x0 /home/asergey/runtime-EclipseApplication/x86dev/lib/libkernel.a(fork.o)
 .data          0xffffffff80292c0c        0x0 /home/asergey/runtime-EclipseApplication/x86dev/lib/libkernel.a(install.o)
 *fill*         0xffffffff80292c0c       0x14 
 .data          0xffffffff80292c20       0x60 /home/asergey/runtime-EclipseApplication/x86dev/lib/libkernel.a(install_elf.o)
 .data          0xffffffff80292c80        0x0 /home/asergey/runtime-EclipseApplication/x86dev/lib/libkernel.a(init_global_resources.o)
 .data          0xffffffff80292c80        0x0 /home/asergey/runtime-EclipseApplication/x86dev/lib/libkernel.a(load.o)
 .data          0xffffffff80292c80        0x0 /home/asergey/runtime-EclipseApplication/x86dev/lib/libkernel.a(load_elf.o)
 .data          0xffffffff80292c80        0x0 /home/asergey/runtime-EclipseApplication/x86dev/lib/libkernel.a(load_elf64.o)
 .data          0xffffffff80292c80        0x0 /home/asergey/runtime-EclipseApplication/x86dev/lib/libkernel.a(mempartition.o)
 .data          0xffffffff80292c80        0x0 /home/asergey/runtime-EclipseApplication/x86dev/lib/libkernel.a(mmap.o)
 .data          0xffffffff80292c80        0x0 /home/asergey/runtime-EclipseApplication/x86dev/lib/libkernel.a(pshmem.o)
 .data          0xffffffff80292c80        0x0 /home/asergey/runtime-EclipseApplication/x86dev/lib/libkernel.a(sm.o)
 .data          0xffffffff80292c80        0x0 /home/asergey/runtime-EclipseApplication/x86dev/lib/libkernel.a(sc_router.o)
 .data          0xffffffff80292c80     0x17a0 /home/asergey/runtime-EclipseApplication/x86dev/lib/libkernel.a(syscall_table.o)
                0xffffffff80292c80                syscall_table
 .data          0xffffffff80294420        0x0 /home/asergey/runtime-EclipseApplication/x86dev/lib/libkernel.a(wait.o)
 .data          0xffffffff80294420        0x0 /home/asergey/runtime-EclipseApplication/x86dev/lib/libkernel.a(cfread.o)
 .data          0xffffffff80294420        0x0 /home/asergey/runtime-EclipseApplication/x86dev/lib/libkernel.a(cprintf.o)
 .data          0xffffffff80294420        0x0 /home/asergey/runtime-EclipseApplication/x86dev/lib/libkernel.a(hwt_bench.o)
 .data          0xffffffff80294420      0x4c8 /home/asergey/runtime-EclipseApplication/x86dev/lib/libkernel.a(kern_mib.o)
                0xffffffff80294420                sysctl___vm
                0xffffffff80294480                sysctl___kern_posixipc
                0xffffffff802944e0                sysctl___kern_thread_tid
                0xffffffff80294540                sysctl___kern_thread
                0xffffffff802945a0                sysctl___kern_maxthreads
                0xffffffff80294600                sysctl___kern_maxproc
                0xffffffff80294660                sysctl___kern_osversion
                0xffffffff802946c0                sysctl___kern_osrev
                0xffffffff80294720                sysctl___kern_osrelease
                0xffffffff80294780                sysctl___kern_ostype
                0xffffffff802947e0                sysctl___hw
                0xffffffff80294840                sysctl___kern
                0xffffffff802948a0                sysctl___sysctl
 *fill*         0xffffffff802948e8       0x18 
 .data          0xffffffff80294900      0x1cc /home/asergey/runtime-EclipseApplication/x86dev/lib/libkernel.a(kern_sysctl.o)
                0xffffffff80294900                sysctl___sysctl_oidfmt
                0xffffffff80294960                sysctl___sysctl_name2oid
                0xffffffff802949c0                sysctl___sysctl_next
                0xffffffff80294a20                sysctl___sysctl_name
                0xffffffff80294a80                sysctl___sysctl_debug
                0xffffffff80294ac8                securelevel
 *fill*         0xffffffff80294acc        0x4 
 .data          0xffffffff80294ad0       0x18 /home/asergey/runtime-EclipseApplication/x86dev/lib/libkernel.a(loadavg.o)
                0xffffffff80294ad0                load_average
 .data          0xffffffff80294ae8        0x0 /home/asergey/runtime-EclipseApplication/x86dev/lib/libkernel.a(sysctl_init.o)
 .data          0xffffffff80294ae8        0x0 /home/asergey/runtime-EclipseApplication/x86dev/lib/libkernel.a(sysinfo.o)
 .data          0xffffffff80294ae8        0x0 /home/asergey/runtime-EclipseApplication/x86dev/lib/libkernel.a(ttymgr.o)
 .data          0xffffffff80294ae8        0x0 /home/asergey/runtime-EclipseApplication/x86dev/lib/libkernel.a(uninstall.o)
 .data          0xffffffff80294ae8        0x0 /home/asergey/runtime-EclipseApplication/x86dev/lib/libkernel.a(utimes.o)
 .data          0xffffffff80294ae8        0x0 /home/asergey/runtime-EclipseApplication/x86dev/lib/libkernel.a(globmem.o)
 .data          0xffffffff80294ae8        0x0 /home/asergey/runtime-EclipseApplication/x86dev/lib/libkernel.a(clock_impl.o)
 .data          0xffffffff80294ae8        0x0 /home/asergey/runtime-EclipseApplication/x86dev/lib/libkernel.a(clock_getcpuclockid.o)
 .data          0xffffffff80294ae8        0x0 /home/asergey/runtime-EclipseApplication/x86dev/lib/libkernel.a(clock_getres.o)
 .data          0xffffffff80294ae8        0x0 /home/asergey/runtime-EclipseApplication/x86dev/lib/libkernel.a(clock_gettime.o)
 .data          0xffffffff80294ae8        0x0 /home/asergey/runtime-EclipseApplication/x86dev/lib/libkernel.a(clock_nanosleep.o)
 .data          0xffffffff80294ae8        0x0 /home/asergey/runtime-EclipseApplication/x86dev/lib/libkernel.a(clock_settime.o)
 .data          0xffffffff80294ae8        0x0 /home/asergey/runtime-EclipseApplication/x86dev/lib/libkernel.a(timer_impl.o)
 .data          0xffffffff80294ae8        0x0 /home/asergey/runtime-EclipseApplication/x86dev/lib/libkernel.a(gettime_op.o)
 .data          0xffffffff80294ae8        0x0 /home/asergey/runtime-EclipseApplication/x86dev/lib/libkernel.a(getitimer.o)
 .data          0xffffffff80294ae8        0x0 /home/asergey/runtime-EclipseApplication/x86dev/lib/libkernel.a(timer_create.o)
 .data          0xffffffff80294ae8        0x0 /home/asergey/runtime-EclipseApplication/x86dev/lib/libkernel.a(timer_delete.o)
 .data          0xffffffff80294ae8        0x0 /home/asergey/runtime-EclipseApplication/x86dev/lib/libkernel.a(timer_getoverrun.o)
 .data          0xffffffff80294ae8        0x0 /home/asergey/runtime-EclipseApplication/x86dev/lib/libkernel.a(timer_gettime.o)
 .data          0xffffffff80294ae8        0x0 /home/asergey/runtime-EclipseApplication/x86dev/lib/libkernel.a(timer_settime.o)
 .data          0xffffffff80294ae8        0x0 /home/asergey/runtime-EclipseApplication/x86dev/lib/libkernel.a(clock_adjtimex.o)
 .data          0xffffffff80294ae8        0x8 /home/asergey/runtime-EclipseApplication/x86dev/lib/libkernel.a(reboot_impl.o)
 .data          0xffffffff80294af0        0x0 /home/asergey/runtime-EclipseApplication/x86dev/lib/libkernel.a(get_resource_entry.o)
 .data          0xffffffff80294af0        0x8 /home/asergey/runtime-EclipseApplication/x86dev/lib/libkernel.a(ptrace.o)
                0xffffffff80294af0                ptrace_fptr
 .data          0xffffffff80294af8        0x0 /home/asergey/runtime-EclipseApplication/x86dev/lib/libkernel.a(reboot.o)
 .data          0xffffffff80294af8        0x0 /home/asergey/runtime-EclipseApplication/x86dev/lib/libkernel.a(ulimit.o)
 .data          0xffffffff80294af8        0x0 /home/asergey/runtime-EclipseApplication/x86dev/lib/libkernel.a(uname.o)
 .data          0xffffffff80294af8        0x0 /home/asergey/runtime-EclipseApplication/x86dev/lib/libkernel.a(mount_impl.o)
 .data          0xffffffff80294af8        0x0 /home/asergey/runtime-EclipseApplication/x86dev/lib/libkernel.a(getdents.o)
 .data          0xffffffff80294af8        0x0 /home/asergey/runtime-EclipseApplication/x86dev/lib/libkernel.a(mount.o)
 .data          0xffffffff80294af8        0x0 /home/asergey/runtime-EclipseApplication/x86dev/lib/libkernel.a(umount.o)
 .data          0xffffffff80294af8        0x0 /home/asergey/runtime-EclipseApplication/x86dev/lib/libkernel.a(rwbounds.o)
 .data          0xffffffff80294af8        0x0 /home/asergey/runtime-EclipseApplication/x86dev/lib/libkernel.a(socket_impl.o)
 .data          0xffffffff80294af8        0x0 /home/asergey/runtime-EclipseApplication/x86dev/lib/libkernel.a(accept.o)
 .data          0xffffffff80294af8        0x0 /home/asergey/runtime-EclipseApplication/x86dev/lib/libkernel.a(bind.o)
 .data          0xffffffff80294af8        0x0 /home/asergey/runtime-EclipseApplication/x86dev/lib/libkernel.a(connect.o)
 .data          0xffffffff80294af8        0x0 /home/asergey/runtime-EclipseApplication/x86dev/lib/libkernel.a(gethostname.o)
 .data          0xffffffff80294af8        0x0 /home/asergey/runtime-EclipseApplication/x86dev/lib/libkernel.a(getpeername.o)
 .data          0xffffffff80294af8        0x0 /home/asergey/runtime-EclipseApplication/x86dev/lib/libkernel.a(getsockname.o)
 .data          0xffffffff80294af8        0x0 /home/asergey/runtime-EclipseApplication/x86dev/lib/libkernel.a(getsockopt.o)
 .data          0xffffffff80294af8        0x0 /home/asergey/runtime-EclipseApplication/x86dev/lib/libkernel.a(listen.o)
 .data          0xffffffff80294af8        0x0 /home/asergey/runtime-EclipseApplication/x86dev/lib/libkernel.a(recv.o)
 .data          0xffffffff80294af8        0x0 /home/asergey/runtime-EclipseApplication/x86dev/lib/libkernel.a(recvfrom.o)
 .data          0xffffffff80294af8        0x0 /home/asergey/runtime-EclipseApplication/x86dev/lib/libkernel.a(recvmsg.o)
 .data          0xffffffff80294af8        0x0 /home/asergey/runtime-EclipseApplication/x86dev/lib/libkernel.a(send.o)
 .data          0xffffffff80294af8        0x0 /home/asergey/runtime-EclipseApplication/x86dev/lib/libkernel.a(sendmsg.o)
 .data          0xffffffff80294af8        0x0 /home/asergey/runtime-EclipseApplication/x86dev/lib/libkernel.a(sendto.o)
 .data          0xffffffff80294af8        0x0 /home/asergey/runtime-EclipseApplication/x86dev/lib/libkernel.a(setsockopt.o)
 .data          0xffffffff80294af8        0x0 /home/asergey/runtime-EclipseApplication/x86dev/lib/libkernel.a(shutdown.o)
 .data          0xffffffff80294af8        0x0 /home/asergey/runtime-EclipseApplication/x86dev/lib/libkernel.a(socket.o)
 .data          0xffffffff80294af8        0x0 /home/asergey/runtime-EclipseApplication/x86dev/lib/libkernel.a(socketpair.o)
 .data          0xffffffff80294af8        0x0 /home/asergey/runtime-EclipseApplication/x86dev/lib/libkernel.a(chdir_impl.o)
 .data          0xffffffff80294af8        0x0 /home/asergey/runtime-EclipseApplication/x86dev/lib/libkernel.a(chmod_impl.o)
 .data          0xffffffff80294af8        0x0 /home/asergey/runtime-EclipseApplication/x86dev/lib/libkernel.a(chown_impl.o)
 .data          0xffffffff80294af8        0x0 /home/asergey/runtime-EclipseApplication/x86dev/lib/libkernel.a(fcntl_impl.o)
 .data          0xffffffff80294af8        0x0 /home/asergey/runtime-EclipseApplication/x86dev/lib/libkernel.a(link_impl.o)
 .data          0xffffffff80294af8        0x0 /home/asergey/runtime-EclipseApplication/x86dev/lib/libkernel.a(read_impl.o)
 .data          0xffffffff80294af8        0x0 /home/asergey/runtime-EclipseApplication/x86dev/lib/libkernel.a(readlink_impl.o)
 .data          0xffffffff80294af8        0x0 /home/asergey/runtime-EclipseApplication/x86dev/lib/libkernel.a(stat_impl.o)
 .data          0xffffffff80294af8        0x0 /home/asergey/runtime-EclipseApplication/x86dev/lib/libkernel.a(access.o)
 .data          0xffffffff80294af8        0x0 /home/asergey/runtime-EclipseApplication/x86dev/lib/libkernel.a(chcdev.o)
 .data          0xffffffff80294af8        0x0 /home/asergey/runtime-EclipseApplication/x86dev/lib/libkernel.a(chdir.o)
 .data          0xffffffff80294af8        0x0 /home/asergey/runtime-EclipseApplication/x86dev/lib/libkernel.a(chmod.o)
 .data          0xffffffff80294af8        0x0 /home/asergey/runtime-EclipseApplication/x86dev/lib/libkernel.a(chown.o)
 .data          0xffffffff80294af8        0x0 /home/asergey/runtime-EclipseApplication/x86dev/lib/libkernel.a(close.o)
 .data          0xffffffff80294af8        0x0 /home/asergey/runtime-EclipseApplication/x86dev/lib/libkernel.a(dup2.o)
 .data          0xffffffff80294af8        0x0 /home/asergey/runtime-EclipseApplication/x86dev/lib/libkernel.a(dup.o)
 .data          0xffffffff80294af8        0x0 /home/asergey/runtime-EclipseApplication/x86dev/lib/libkernel.a(fchdir.o)
 .data          0xffffffff80294af8        0x0 /home/asergey/runtime-EclipseApplication/x86dev/lib/libkernel.a(fchmod.o)
 .data          0xffffffff80294af8        0x0 /home/asergey/runtime-EclipseApplication/x86dev/lib/libkernel.a(fchown.o)
 .data          0xffffffff80294af8        0x0 /home/asergey/runtime-EclipseApplication/x86dev/lib/libkernel.a(fcntl.o)
 .data          0xffffffff80294af8        0x0 /home/asergey/runtime-EclipseApplication/x86dev/lib/libkernel.a(fdatasync.o)
 .data          0xffffffff80294af8        0x0 /home/asergey/runtime-EclipseApplication/x86dev/lib/libkernel.a(flock.o)
 .data          0xffffffff80294af8        0x0 /home/asergey/runtime-EclipseApplication/x86dev/lib/libkernel.a(fstat.o)
 .data          0xffffffff80294af8        0x0 /home/asergey/runtime-EclipseApplication/x86dev/lib/libkernel.a(fstatfs.o)
 .data          0xffffffff80294af8        0x0 /home/asergey/runtime-EclipseApplication/x86dev/lib/libkernel.a(fsync.o)
 .data          0xffffffff80294af8        0x0 /home/asergey/runtime-EclipseApplication/x86dev/lib/libkernel.a(ftruncate.o)
 .data          0xffffffff80294af8        0x0 /home/asergey/runtime-EclipseApplication/x86dev/lib/libkernel.a(getdtablesize.o)
 .data          0xffffffff80294af8        0x0 /home/asergey/runtime-EclipseApplication/x86dev/lib/libkernel.a(ioctl.o)
 .data          0xffffffff80294af8        0x0 /home/asergey/runtime-EclipseApplication/x86dev/lib/libkernel.a(link.o)
 .data          0xffffffff80294af8        0x0 /home/asergey/runtime-EclipseApplication/x86dev/lib/libkernel.a(lseek64.o)
 .data          0xffffffff80294af8        0x0 /home/asergey/runtime-EclipseApplication/x86dev/lib/libkernel.a(lseek.o)
 .data          0xffffffff80294af8        0x0 /home/asergey/runtime-EclipseApplication/x86dev/lib/libkernel.a(lstat.o)
 .data          0xffffffff80294af8        0x0 /home/asergey/runtime-EclipseApplication/x86dev/lib/libkernel.a(mkdir.o)
 .data          0xffffffff80294af8        0x0 /home/asergey/runtime-EclipseApplication/x86dev/lib/libkernel.a(mknod.o)
 .data          0xffffffff80294af8        0x0 /home/asergey/runtime-EclipseApplication/x86dev/lib/libkernel.a(open.o)
 .data          0xffffffff80294af8        0x0 /home/asergey/runtime-EclipseApplication/x86dev/lib/libkernel.a(read.o)
 .data          0xffffffff80294af8        0x0 /home/asergey/runtime-EclipseApplication/x86dev/lib/libkernel.a(readlink.o)
 .data          0xffffffff80294af8        0x0 /home/asergey/runtime-EclipseApplication/x86dev/lib/libkernel.a(readv.o)
 .data          0xffffffff80294af8        0x0 /home/asergey/runtime-EclipseApplication/x86dev/lib/libkernel.a(rename.o)
 .data          0xffffffff80294af8        0x0 /home/asergey/runtime-EclipseApplication/x86dev/lib/libkernel.a(rmdir.o)
 .data          0xffffffff80294af8        0x0 /home/asergey/runtime-EclipseApplication/x86dev/lib/libkernel.a(select.o)
 .data          0xffffffff80294af8        0x0 /home/asergey/runtime-EclipseApplication/x86dev/lib/libkernel.a(stat.o)
 .data          0xffffffff80294af8        0x0 /home/asergey/runtime-EclipseApplication/x86dev/lib/libkernel.a(statfs.o)
 .data          0xffffffff80294af8        0x0 /home/asergey/runtime-EclipseApplication/x86dev/lib/libkernel.a(symlink.o)
 .data          0xffffffff80294af8        0x0 /home/asergey/runtime-EclipseApplication/x86dev/lib/libkernel.a(sync.o)
 .data          0xffffffff80294af8        0x0 /home/asergey/runtime-EclipseApplication/x86dev/lib/libkernel.a(umask.o)
 .data          0xffffffff80294af8        0x0 /home/asergey/runtime-EclipseApplication/x86dev/lib/libkernel.a(unlink.o)
 .data          0xffffffff80294af8        0x0 /home/asergey/runtime-EclipseApplication/x86dev/lib/libkernel.a(write.o)
 .data          0xffffffff80294af8        0x0 /home/asergey/runtime-EclipseApplication/x86dev/lib/libkernel.a(writev.o)
 .data          0xffffffff80294af8        0x0 /home/asergey/runtime-EclipseApplication/x86dev/lib/libkernel.a(blkwak_impl.o)
 .data          0xffffffff80294af8        0x0 /home/asergey/runtime-EclipseApplication/x86dev/lib/libkernel.a(block.o)
 .data          0xffffffff80294af8        0x0 /home/asergey/runtime-EclipseApplication/x86dev/lib/libkernel.a(rewait.o)
 .data          0xffffffff80294af8        0x0 /home/asergey/runtime-EclipseApplication/x86dev/lib/libkernel.a(wakeup.o)
 .data          0xffffffff80294af8        0x0 /home/asergey/runtime-EclipseApplication/x86dev/lib/libkernel.a(kill_impl.o)
 *fill*         0xffffffff80294af8        0x8 
 .data          0xffffffff80294b00      0x458 /home/asergey/runtime-EclipseApplication/x86dev/lib/libkernel.a(signal_impl.o)
                0xffffffff80294b00                sig_fromsysv
                0xffffffff80294ba0                sig_tosysv
                0xffffffff80294c40                mastervec
 .data          0xffffffff80294f58        0x0 /home/asergey/runtime-EclipseApplication/x86dev/lib/libkernel.a(kill.o)
 .data          0xffffffff80294f58        0x0 /home/asergey/runtime-EclipseApplication/x86dev/lib/libkernel.a(sigaction.o)
 .data          0xffffffff80294f58        0x0 /home/asergey/runtime-EclipseApplication/x86dev/lib/libkernel.a(sigblock.o)
 .data          0xffffffff80294f58        0x0 /home/asergey/runtime-EclipseApplication/x86dev/lib/libkernel.a(signotify.o)
 .data          0xffffffff80294f58        0x0 /home/asergey/runtime-EclipseApplication/x86dev/lib/libkernel.a(sigpause.o)
 .data          0xffffffff80294f58        0x0 /home/asergey/runtime-EclipseApplication/x86dev/lib/libkernel.a(sigpending.o)
 .data          0xffffffff80294f58        0x0 /home/asergey/runtime-EclipseApplication/x86dev/lib/libkernel.a(sigprocmask.o)
 .data          0xffffffff80294f58        0x0 /home/asergey/runtime-EclipseApplication/x86dev/lib/libkernel.a(sigqueue.o)
 .data          0xffffffff80294f58        0x0 /home/asergey/runtime-EclipseApplication/x86dev/lib/libkernel.a(sigsetmask.o)
 .data          0xffffffff80294f58        0x0 /home/asergey/runtime-EclipseApplication/x86dev/lib/libkernel.a(sigsuspend.o)
 .data          0xffffffff80294f58        0x0 /home/asergey/runtime-EclipseApplication/x86dev/lib/libkernel.a(sigtimedwait.o)
 .data          0xffffffff80294f58        0x0 /home/asergey/runtime-EclipseApplication/x86dev/lib/libkernel.a(sigvec.o)
 .data          0xffffffff80294f58        0x0 /home/asergey/runtime-EclipseApplication/x86dev/lib/libkernel.a(sigwait.o)
 .data          0xffffffff80294f58        0x0 /home/asergey/runtime-EclipseApplication/x86dev/lib/libkernel.a(get_set_thread_priority.o)
 .data          0xffffffff80294f58        0x0 /home/asergey/runtime-EclipseApplication/x86dev/lib/libkernel.a(adjtime.o)
 .data          0xffffffff80294f58        0x8 /home/asergey/runtime-EclipseApplication/x86dev/lib/libkernel.a(gettimeofday.o)
                0xffffffff80294f58                __systzone
 .data          0xffffffff80294f60        0x0 /home/asergey/runtime-EclipseApplication/x86dev/lib/libkernel.a(times.o)
 .data          0xffffffff80294f60        0x0 /home/asergey/runtime-EclipseApplication/x86dev/lib/libkernel.a(settimeofday.o)
 .data          0xffffffff80294f60        0x0 /home/asergey/runtime-EclipseApplication/x86dev/lib/libmisc.a(nhn.o)
 .data          0xffffffff80294f60        0x0 /home/asergey/runtime-EclipseApplication/x86dev/lib/libmisc.a(reg_access.o)
 .data          0xffffffff80294f60        0x0 /home/asergey/runtime-EclipseApplication/x86dev/lib/libmisc.a(abs.o)
 .data          0xffffffff80294f60        0x0 /home/asergey/runtime-EclipseApplication/x86dev/lib/libmisc.a(calloc.o)
 .data          0xffffffff80294f60        0x0 /home/asergey/runtime-EclipseApplication/x86dev/lib/libmisc.a(s_rindex.o)
 .data          0xffffffff80294f60        0x0 /home/asergey/runtime-EclipseApplication/x86dev/lib/libmisc.a(strcat.o)
 .data          0xffffffff80294f60        0x0 /home/asergey/runtime-EclipseApplication/x86dev/lib/libmisc.a(strcmp.o)
 .data          0xffffffff80294f60        0x0 /home/asergey/runtime-EclipseApplication/x86dev/lib/libmisc.a(strchr.o)
 .data          0xffffffff80294f60        0x0 /home/asergey/runtime-EclipseApplication/x86dev/lib/libmisc.a(strcpy.o)
 .data          0xffffffff80294f60        0x0 /home/asergey/runtime-EclipseApplication/x86dev/lib/libmisc.a(strlen.o)
 .data          0xffffffff80294f60        0x0 /home/asergey/runtime-EclipseApplication/x86dev/lib/libmisc.a(strncat.o)
 .data          0xffffffff80294f60        0x0 /home/asergey/runtime-EclipseApplication/x86dev/lib/libmisc.a(strncmp.o)
 .data          0xffffffff80294f60        0x0 /home/asergey/runtime-EclipseApplication/x86dev/lib/libmisc.a(strncpy.o)
 .data          0xffffffff80294f60        0x0 /home/asergey/runtime-EclipseApplication/x86dev/lib/libmisc.a(strnlen.o)
 .data          0xffffffff80294f60        0x0 /home/asergey/runtime-EclipseApplication/x86dev/lib/libmisc.a(malloc.o)
 .data          0xffffffff80294f60        0x0 /home/asergey/runtime-EclipseApplication/x86dev/lib/libmisc.a(memcmp.o)
 .data          0xffffffff80294f60        0x0 /home/asergey/runtime-EclipseApplication/x86dev/lib/libmisc.a(atomic_ops.o)
 .data          0xffffffff80294f60        0x0 /home/asergey/runtime-EclipseApplication/x86dev/lib/libmisc.a(memcpy_x86.o)
 .data          0xffffffff80294f60        0x0 /home/asergey/runtime-EclipseApplication/x86dev/lib/libmisc.a(memset_x86.o)
 .data          0xffffffff80294f60        0x0 /home/asergey/runtime-EclipseApplication/x86dev/lib/libfamily_x86_64.a(cpu.o)
 .data          0xffffffff80294f60        0x0 /home/asergey/runtime-EclipseApplication/x86dev/lib/libfamily_x86_64.a(csp_fsetbit_asm.o)
 .data          0xffffffff80294f60        0x0 /home/asergey/runtime-EclipseApplication/x86dev/lib/libfamily_x86_64.a(csp_misc.o)
 .data          0xffffffff80294f60        0x0 /home/asergey/runtime-EclipseApplication/x86dev/lib/libfamily_x86_64.a(csp__stexit.o)
 .data          0xffffffff80294f60        0x0 /home/asergey/runtime-EclipseApplication/x86dev/lib/libfamily_x86_64.a(xcontext.o)
 .data          0xffffffff80294f60        0x0 /home/asergey/runtime-EclipseApplication/x86dev/lib/libfamily_x86_64.a(reloc_elf.o)
 .data          0xffffffff80294f60        0x0 /home/asergey/runtime-EclipseApplication/x86dev/lib/libfamily_x86_64.a(signal_asm.o)
 .data          0xffffffff80294f60        0x0 /home/asergey/runtime-EclipseApplication/x86dev/lib/libfamily_x86_64.a(signal.o)
 .data          0xffffffff80294f60        0x0 /home/asergey/runtime-EclipseApplication/x86dev/lib/libfamily_x86_64.a(syscall.o)
 .data          0xffffffff80294f60        0x0 /home/asergey/runtime-EclipseApplication/x86dev/lib/libcsp_x86_64.a(context.o)
 .data          0xffffffff80294f60        0x0 /home/asergey/runtime-EclipseApplication/x86dev/lib/libcsp_x86_64.a(csp_mem_map.o)
 .data          0xffffffff80294f60        0x0 /home/asergey/runtime-EclipseApplication/x86dev/lib/libcsp_x86_64.a(fpu.o)
 .data          0xffffffff80294f60        0x0 /home/asergey/runtime-EclipseApplication/x86dev/lib/libcsp_x86_64.a(tlb.o)
 .data          0xffffffff80294f60        0x0 /home/asergey/runtime-EclipseApplication/x86dev/lib/libcsp_x86_64.a(context_asm.o)
 .data          0xffffffff80294f60        0x0 /home/asergey/runtime-EclipseApplication/x86dev/lib/libptrace_x86_64.a(ptrace_trap.o)
 .data          0xffffffff80294f60        0x0 /home/asergey/runtime-EclipseApplication/x86dev/lib/libptrace.a(core.o)
 *(.data.*)
 *(.gnu.linkonce.d*)
                0xffffffff80294f60                . = ALIGN (0x10)

__patchable_function_entries
                0xffffffff80294f60     0x6178
 __patchable_function_entries
                0xffffffff80294f60      0x240 bsp.x86_64.o
 __patchable_function_entries
                0xffffffff802951a0       0x28 conf_am.o
 __patchable_function_entries
                0xffffffff802951c8       0x28 conf.o
 __patchable_function_entries
                0xffffffff802951f0       0x10 info.o
 __patchable_function_entries
                0xffffffff80295200       0x10 /home/asergey/runtime-EclipseApplication/x86dev/lib/libcsp_x86_64.a(csp_init.o)
 __patchable_function_entries
                0xffffffff80295210        0x8 /home/asergey/runtime-EclipseApplication/x86dev/lib/libcsp_x86_64.a(csp_mem_map_am.o)
 __patchable_function_entries
                0xffffffff80295218       0x18 /home/asergey/runtime-EclipseApplication/x86dev/lib/libcsp_x86_64.a(launch_am.o)
 __patchable_function_entries
                0xffffffff80295230       0x18 /home/asergey/runtime-EclipseApplication/x86dev/lib/libcsp_x86_64.a(lowInit.o)
 __patchable_function_entries
                0xffffffff80295248       0x68 /home/asergey/runtime-EclipseApplication/x86dev/lib/libcsp_x86_64.a(trap.o)
 __patchable_function_entries
                0xffffffff802952b0       0x10 /home/asergey/runtime-EclipseApplication/x86dev/lib/libcsp_x86_64.a(csp_cache.o)
 __patchable_function_entries
                0xffffffff802952c0       0x10 /home/asergey/runtime-EclipseApplication/x86dev/lib/libcsp_x86_64.a(csp_init_am.o)
 __patchable_function_entries
                0xffffffff802952d0       0xa8 /home/asergey/runtime-EclipseApplication/x86dev/lib/libdrivers.a(ahcidrvr.o)
 __patchable_function_entries
                0xffffffff80295378      0x250 /home/asergey/runtime-EclipseApplication/x86dev/lib/libdrivers.a(kdbdrvr.o)
 __patchable_function_entries
                0xffffffff802955c8      0x150 /home/asergey/runtime-EclipseApplication/x86dev/lib/libdrivers.a(lcs_emdrvr.o)
 __patchable_function_entries
                0xffffffff80295718        0x8 /home/asergey/runtime-EclipseApplication/x86dev/lib/libdrivers.a(ptracedrvr.o)
 __patchable_function_entries
                0xffffffff80295720       0xb8 /home/asergey/runtime-EclipseApplication/x86dev/lib/libdrivers.a(tty_16550.o)
 __patchable_function_entries
                0xffffffff802957d8       0xa0 /home/asergey/runtime-EclipseApplication/x86dev/lib/libdrivers.a(ttydrvr.o)
 __patchable_function_entries
                0xffffffff80295878       0x10 /home/asergey/runtime-EclipseApplication/x86dev/lib/libdrivers.a(ehci_pci.o)
 __patchable_function_entries
                0xffffffff80295888        0x8 /home/asergey/runtime-EclipseApplication/x86dev/lib/libdrivers.a(xhci_pci.o)
 __patchable_function_entries
                0xffffffff80295890       0xa0 /home/asergey/runtime-EclipseApplication/x86dev/lib/libdrivers.a(simusb.o)
 __patchable_function_entries
                0xffffffff80295930      0x1c0 /home/asergey/runtime-EclipseApplication/x86dev/lib/libdrivers.a(scsimgr.o)
 __patchable_function_entries
                0xffffffff80295af0       0xd0 /home/asergey/runtime-EclipseApplication/x86dev/lib/libdrivers.a(usbdrvr.o)
 __patchable_function_entries
                0xffffffff80295bc0       0x40 /home/asergey/runtime-EclipseApplication/x86dev/lib/libdrivers.a(virtio_netdrvr.o)
 __patchable_function_entries
                0xffffffff80295c00        0x8 /home/asergey/runtime-EclipseApplication/x86dev/lib/libdrivers.a(lsk_helperdrvr.o)
 __patchable_function_entries
                0xffffffff80295c08       0x40 /home/asergey/runtime-EclipseApplication/x86dev/lib/libdrivers.a(lcs_igcdrvr.o)
 __patchable_function_entries
                0xffffffff80295c48       0x10 /home/asergey/runtime-EclipseApplication/x86dev/lib/libdrivers.a(memdrvr.o)
 __patchable_function_entries
                0xffffffff80295c58       0x40 /home/asergey/runtime-EclipseApplication/x86dev/lib/libdrivers.a(ptydrvr.o)
 __patchable_function_entries
                0xffffffff80295c98       0x20 /home/asergey/runtime-EclipseApplication/x86dev/lib/libdrivers.a(rnddrvr.o)
 __patchable_function_entries
                0xffffffff80295cb8       0x38 /home/asergey/runtime-EclipseApplication/x86dev/lib/libdrivers.a(lfatfsdrvr.o)
 __patchable_function_entries
                0xffffffff80295cf0       0x60 /home/asergey/runtime-EclipseApplication/x86dev/lib/libdrivers.a(ixgbepfdrvr.o)
 __patchable_function_entries
                0xffffffff80295d50       0x40 /home/asergey/runtime-EclipseApplication/x86dev/lib/libdrivers.a(lcsdrvr.o)
 __patchable_function_entries
                0xffffffff80295d90        0x8 /home/asergey/runtime-EclipseApplication/x86dev/lib/libdrivers.a(lsk_fifo_pci.o)
 __patchable_function_entries
                0xffffffff80295d98       0x28 /home/asergey/runtime-EclipseApplication/x86dev/lib/libdrivers.a(lsk_fifodrvr.o)
 __patchable_function_entries
                0xffffffff80295dc0       0xe0 /home/asergey/runtime-EclipseApplication/x86dev/lib/libdrivers.a(hmdrvr.o)
 __patchable_function_entries
                0xffffffff80295ea0       0x18 /home/asergey/runtime-EclipseApplication/x86dev/lib/libdrivers.a(mmapdrvr.o)
 __patchable_function_entries
                0xffffffff80295eb8      0x148 /home/asergey/runtime-EclipseApplication/x86dev/lib/libdrivers.a(ahci.o)
 __patchable_function_entries
                0xffffffff80296000       0x40 /home/asergey/runtime-EclipseApplication/x86dev/lib/libdrivers.a(ahci-port.o)
 __patchable_function_entries
                0xffffffff80296040      0x318 /home/asergey/runtime-EclipseApplication/x86dev/lib/libdrivers.a(dis_x86_64.o)
 __patchable_function_entries
                0xffffffff80296358       0xa8 /home/asergey/runtime-EclipseApplication/x86dev/lib/libdrivers.a(kdb_x86_64.o)
 __patchable_function_entries
                0xffffffff80296400      0x128 /home/asergey/runtime-EclipseApplication/x86dev/lib/libdrivers.a(remote.o)
 __patchable_function_entries
                0xffffffff80296528       0x20 /home/asergey/runtime-EclipseApplication/x86dev/lib/libdrivers.a(tty_io.o)
 __patchable_function_entries
                0xffffffff80296548      0x188 /home/asergey/runtime-EclipseApplication/x86dev/lib/libdrivers.a(usbdi.o)
 __patchable_function_entries
                0xffffffff802966d0      0x100 /home/asergey/runtime-EclipseApplication/x86dev/lib/libdrivers.a(usb_lynxos.o)
 __patchable_function_entries
                0xffffffff802967d0       0xe0 /home/asergey/runtime-EclipseApplication/x86dev/lib/libdrivers.a(usb_subr.o)
 __patchable_function_entries
                0xffffffff802968b0       0x28 /home/asergey/runtime-EclipseApplication/x86dev/lib/libdrivers.a(usb_callouts.o)
 __patchable_function_entries
                0xffffffff802968d8       0x28 /home/asergey/runtime-EclipseApplication/x86dev/lib/libdrivers.a(ohci_drvr.o)
 __patchable_function_entries
                0xffffffff80296900      0x1b0 /home/asergey/runtime-EclipseApplication/x86dev/lib/libdrivers.a(ohci.o)
 __patchable_function_entries
                0xffffffff80296ab0       0x28 /home/asergey/runtime-EclipseApplication/x86dev/lib/libdrivers.a(ohci_map.o)
 __patchable_function_entries
                0xffffffff80296ad8       0x20 /home/asergey/runtime-EclipseApplication/x86dev/lib/libdrivers.a(ehci_map.o)
 __patchable_function_entries
                0xffffffff80296af8      0x1c0 /home/asergey/runtime-EclipseApplication/x86dev/lib/libdrivers.a(ehci.o)
 __patchable_function_entries
                0xffffffff80296cb8       0x20 /home/asergey/runtime-EclipseApplication/x86dev/lib/libdrivers.a(xhci_map.o)
 __patchable_function_entries
                0xffffffff80296cd8      0x198 /home/asergey/runtime-EclipseApplication/x86dev/lib/libdrivers.a(xhci.o)
 __patchable_function_entries
                0xffffffff80296e70       0x40 /home/asergey/runtime-EclipseApplication/x86dev/lib/libdrivers.a(uhub.o)
 __patchable_function_entries
                0xffffffff80296eb0       0x68 /home/asergey/runtime-EclipseApplication/x86dev/lib/libdrivers.a(uhidev.o)
 __patchable_function_entries
                0xffffffff80296f18       0x60 /home/asergey/runtime-EclipseApplication/x86dev/lib/libdrivers.a(ukbd.o)
 __patchable_function_entries
                0xffffffff80296f78       0x40 /home/asergey/runtime-EclipseApplication/x86dev/lib/libdrivers.a(ums.o)
 __patchable_function_entries
                0xffffffff80296fb8       0x78 /home/asergey/runtime-EclipseApplication/x86dev/lib/libdrivers.a(umass.o)
 __patchable_function_entries
                0xffffffff80297030       0x28 /home/asergey/runtime-EclipseApplication/x86dev/lib/libdrivers.a(umass_quirks.o)
 __patchable_function_entries
                0xffffffff80297058       0x60 /home/asergey/runtime-EclipseApplication/x86dev/lib/libdrivers.a(virtqueue.o)
 __patchable_function_entries
                0xffffffff802970b8       0x48 /home/asergey/runtime-EclipseApplication/x86dev/lib/libdrivers.a(virtio_pci.o)
 __patchable_function_entries
                0xffffffff80297100       0x70 /home/asergey/runtime-EclipseApplication/x86dev/lib/libdrivers.a(if_igc.o)
 __patchable_function_entries
                0xffffffff80297170       0xc8 /home/asergey/runtime-EclipseApplication/x86dev/lib/libdrivers.a(igc_i225.o)
 __patchable_function_entries
                0xffffffff80297238       0xe8 /home/asergey/runtime-EclipseApplication/x86dev/lib/libdrivers.a(igc_mac.o)
 __patchable_function_entries
                0xffffffff80297320       0x88 /home/asergey/runtime-EclipseApplication/x86dev/lib/libdrivers.a(igc_nvm.o)
 __patchable_function_entries
                0xffffffff802973a8       0xc0 /home/asergey/runtime-EclipseApplication/x86dev/lib/libdrivers.a(igc_phy.o)
 __patchable_function_entries
                0xffffffff80297468       0x20 /home/asergey/runtime-EclipseApplication/x86dev/lib/libdrivers.a(lfatfs_blk.o)
 __patchable_function_entries
                0xffffffff80297488       0x20 /home/asergey/runtime-EclipseApplication/x86dev/lib/libdrivers.a(lfatfs_dent.o)
 __patchable_function_entries
                0xffffffff802974a8       0x20 /home/asergey/runtime-EclipseApplication/x86dev/lib/libdrivers.a(lfatfs_dir.o)
 __patchable_function_entries
                0xffffffff802974c8       0x38 /home/asergey/runtime-EclipseApplication/x86dev/lib/libdrivers.a(lfatfs_inode.o)
 __patchable_function_entries
                0xffffffff80297500       0x20 /home/asergey/runtime-EclipseApplication/x86dev/lib/libdrivers.a(lfatfs_mnt.o)
 __patchable_function_entries
                0xffffffff80297520       0x48 /home/asergey/runtime-EclipseApplication/x86dev/lib/libdrivers.a(lfat_sup.o)
 __patchable_function_entries
                0xffffffff80297568       0x48 /home/asergey/runtime-EclipseApplication/x86dev/lib/libdrivers.a(msdosfs_conv.o)
 __patchable_function_entries
                0xffffffff802975b0       0x50 /home/asergey/runtime-EclipseApplication/x86dev/lib/libdrivers.a(msdosfs_denode.o)
 __patchable_function_entries
                0xffffffff80297600       0x70 /home/asergey/runtime-EclipseApplication/x86dev/lib/libdrivers.a(msdosfs_fat.o)
 __patchable_function_entries
                0xffffffff80297670       0x40 /home/asergey/runtime-EclipseApplication/x86dev/lib/libdrivers.a(msdosfs_lookup.o)
 __patchable_function_entries
                0xffffffff802976b0       0x48 /home/asergey/runtime-EclipseApplication/x86dev/lib/libdrivers.a(if_ix.o)
 __patchable_function_entries
                0xffffffff802976f8       0x78 /home/asergey/runtime-EclipseApplication/x86dev/lib/libdrivers.a(if_sriov.o)
 __patchable_function_entries
                0xffffffff80297770       0x10 /home/asergey/runtime-EclipseApplication/x86dev/lib/libdrivers.a(ixgbe_api.o)
 __patchable_function_entries
                0xffffffff80297780       0xe0 /home/asergey/runtime-EclipseApplication/x86dev/lib/libdrivers.a(ixgbe_common.o)
 __patchable_function_entries
                0xffffffff80297860       0x58 /home/asergey/runtime-EclipseApplication/x86dev/lib/libdrivers.a(ixgbepf_mbx.o)
 __patchable_function_entries
                0xffffffff802978b8       0x40 /home/asergey/runtime-EclipseApplication/x86dev/lib/libdrivers.a(ixgbe_x540.o)
 __patchable_function_entries
                0xffffffff802978f8       0x40 /home/asergey/runtime-EclipseApplication/x86dev/lib/libdrivers.a(ixgbe_x550.o)
 __patchable_function_entries
                0xffffffff80297938       0x48 /home/asergey/runtime-EclipseApplication/x86dev/lib/libdrivers.a(ixgbepf_vf_common.o)
 __patchable_function_entries
                0xffffffff80297980       0x10 /home/asergey/runtime-EclipseApplication/x86dev/lib/libdrivers.a(lcsthreads.o)
 __patchable_function_entries
                0xffffffff80297990       0x50 /home/asergey/runtime-EclipseApplication/x86dev/lib/libdrivers.a(kbddrvr.o)
 __patchable_function_entries
                0xffffffff802979e0       0x58 /home/asergey/runtime-EclipseApplication/x86dev/lib/libdrivers.a(mousedrvr.o)
 __patchable_function_entries
                0xffffffff80297a38       0xe8 /home/asergey/runtime-EclipseApplication/x86dev/lib/libdrivers.a(usbdi_util.o)
 __patchable_function_entries
                0xffffffff80297b20       0x20 /home/asergey/runtime-EclipseApplication/x86dev/lib/libdrivers.a(usb_mem.o)
 __patchable_function_entries
                0xffffffff80297b40        0x8 /home/asergey/runtime-EclipseApplication/x86dev/lib/libdrivers.a(usb_quirks.o)
 __patchable_function_entries
                0xffffffff80297b48       0x40 /home/asergey/runtime-EclipseApplication/x86dev/lib/libdrivers.a(usbroothub.o)
 __patchable_function_entries
                0xffffffff80297b88       0x38 /home/asergey/runtime-EclipseApplication/x86dev/lib/libdrivers.a(hid.o)
 __patchable_function_entries
                0xffffffff80297bc0      0x130 /home/asergey/runtime-EclipseApplication/x86dev/lib/libdrivers.a(igc_api.o)
 __patchable_function_entries
                0xffffffff80297cf0       0x28 /home/asergey/runtime-EclipseApplication/x86dev/lib/libdrivers.a(igc_base.o)
 __patchable_function_entries
                0xffffffff80297d18       0x60 /home/asergey/runtime-EclipseApplication/x86dev/lib/libdrivers.a(ixgbe_phy.o)
 __patchable_function_entries
                0xffffffff80297d78        0x8 /home/asergey/runtime-EclipseApplication/x86dev/lib/libdrivers_rsc.a(nulldrvr.o)
 __patchable_function_entries
                0xffffffff80297d80       0x88 /home/asergey/runtime-EclipseApplication/x86dev/lib/libdrivers_rsc.a(rddrvr.o)
 __patchable_function_entries
                0xffffffff80297e08        0x8 /home/asergey/runtime-EclipseApplication/x86dev/lib/libdrivers_rsc.a(vmosdrvr.o)
 __patchable_function_entries
                0xffffffff80297e10       0x70 /home/asergey/runtime-EclipseApplication/x86dev/lib/libdrivers_rsc.a(arinc653drvr.o)
 __patchable_function_entries
                0xffffffff80297e80       0xe0 /home/asergey/runtime-EclipseApplication/x86dev/lib/libdrivers_rsc.a(arinc653drvr_inter.o)
 __patchable_function_entries
                0xffffffff80297f60       0x38 /home/asergey/runtime-EclipseApplication/x86dev/lib/liblcs.a(lldinit.o)
 __patchable_function_entries
                0xffffffff80297f98       0x48 /home/asergey/runtime-EclipseApplication/x86dev/lib/liblcs.a(llinput.o)
 __patchable_function_entries
                0xffffffff80297fe0       0x38 /home/asergey/runtime-EclipseApplication/x86dev/lib/liblcs.a(lld_pfifo_ts.o)
 __patchable_function_entries
                0xffffffff80298018        0x8 /home/asergey/runtime-EclipseApplication/x86dev/lib/liblcs.a(arminit.o)
 __patchable_function_entries
                0xffffffff80298020       0x30 /home/asergey/runtime-EclipseApplication/x86dev/lib/liblcs.a(arp.o)
 __patchable_function_entries
                0xffffffff80298050        0x8 /home/asergey/runtime-EclipseApplication/x86dev/lib/liblcs.a(udp_init.o)
 __patchable_function_entries
                0xffffffff80298058        0x8 /home/asergey/runtime-EclipseApplication/x86dev/lib/liblcs.a(icmp6_ini.o)
 __patchable_function_entries
                0xffffffff80298060       0x20 /home/asergey/runtime-EclipseApplication/x86dev/lib/liblcs.a(in6_ifattach.o)
 __patchable_function_entries
                0xffffffff80298080       0x20 /home/asergey/runtime-EclipseApplication/x86dev/lib/liblcs.a(in6_pcb.o)
 __patchable_function_entries
                0xffffffff802980a0       0x50 /home/asergey/runtime-EclipseApplication/x86dev/lib/liblcs.a(in6_route.o)
 __patchable_function_entries
                0xffffffff802980f0       0x20 /home/asergey/runtime-EclipseApplication/x86dev/lib/liblcs.a(ip6_ctlo.o)
 __patchable_function_entries
                0xffffffff80298110       0x18 /home/asergey/runtime-EclipseApplication/x86dev/lib/liblcs.a(ip6_init.o)
 __patchable_function_entries
                0xffffffff80298128       0x18 /home/asergey/runtime-EclipseApplication/x86dev/lib/liblcs.a(ip6_input.o)
 __patchable_function_entries
                0xffffffff80298140       0x28 /home/asergey/runtime-EclipseApplication/x86dev/lib/liblcs.a(ip6_reassem.o)
 __patchable_function_entries
                0xffffffff80298168        0x8 /home/asergey/runtime-EclipseApplication/x86dev/lib/liblcs.a(ip_input.o)
 __patchable_function_entries
                0xffffffff80298170       0x48 /home/asergey/runtime-EclipseApplication/x86dev/lib/liblcs.a(in_util.o)
 __patchable_function_entries
                0xffffffff802981b8       0x20 /home/asergey/runtime-EclipseApplication/x86dev/lib/liblcs.a(ip_reassem.o)
 __patchable_function_entries
                0xffffffff802981d8       0x18 /home/asergey/runtime-EclipseApplication/x86dev/lib/liblcs.a(ip_init.o)
 __patchable_function_entries
                0xffffffff802981f0        0x8 /home/asergey/runtime-EclipseApplication/x86dev/lib/liblcs.a(icmp_in.o)
 __patchable_function_entries
                0xffffffff802981f8        0x8 /home/asergey/runtime-EclipseApplication/x86dev/lib/liblcs.a(icmp_ini.o)
 __patchable_function_entries
                0xffffffff80298200       0x28 /home/asergey/runtime-EclipseApplication/x86dev/lib/liblcs.a(tcp_inpt.o)
 __patchable_function_entries
                0xffffffff80298228       0x18 /home/asergey/runtime-EclipseApplication/x86dev/lib/liblcs.a(tcp_out.o)
 __patchable_function_entries
                0xffffffff80298240       0x38 /home/asergey/runtime-EclipseApplication/x86dev/lib/liblcs.a(tcp_time.o)
 __patchable_function_entries
                0xffffffff80298278        0x8 /home/asergey/runtime-EclipseApplication/x86dev/lib/liblcs.a(tcp_init.o)
 __patchable_function_entries
                0xffffffff80298280       0x18 /home/asergey/runtime-EclipseApplication/x86dev/lib/liblcs.a(tcp_pcb.o)
 __patchable_function_entries
                0xffffffff80298298       0x78 /home/asergey/runtime-EclipseApplication/x86dev/lib/liblcs.a(tcp_util.o)
 __patchable_function_entries
                0xffffffff80298310       0x30 /home/asergey/runtime-EclipseApplication/x86dev/lib/liblcs.a(igmp.o)
 __patchable_function_entries
                0xffffffff80298340       0xc0 /home/asergey/runtime-EclipseApplication/x86dev/lib/liblcs.a(lcs_nux.o)
 __patchable_function_entries
                0xffffffff80298400       0x10 /home/asergey/runtime-EclipseApplication/x86dev/lib/liblcs.a(ioctl.o)
 __patchable_function_entries
                0xffffffff80298410        0x8 /home/asergey/runtime-EclipseApplication/x86dev/lib/liblcs.a(select.o)
 __patchable_function_entries
                0xffffffff80298418       0x18 /home/asergey/runtime-EclipseApplication/x86dev/lib/liblcs.a(sock.o)
 __patchable_function_entries
                0xffffffff80298430       0x70 /home/asergey/runtime-EclipseApplication/x86dev/lib/liblcs.a(sock_raw.o)
 __patchable_function_entries
                0xffffffff802984a0       0x68 /home/asergey/runtime-EclipseApplication/x86dev/lib/liblcs.a(sock_udp.o)
 __patchable_function_entries
                0xffffffff80298508       0xe0 /home/asergey/runtime-EclipseApplication/x86dev/lib/liblcs.a(sock_tcp.o)
 __patchable_function_entries
                0xffffffff802985e8       0x20 /home/asergey/runtime-EclipseApplication/x86dev/lib/liblcs.a(tmrchk.o)
 __patchable_function_entries
                0xffffffff80298608        0x8 /home/asergey/runtime-EclipseApplication/x86dev/lib/liblcs.a(tmrinit.o)
 __patchable_function_entries
                0xffffffff80298610        0x8 /home/asergey/runtime-EclipseApplication/x86dev/lib/liblcs.a(tmrscall.o)
 __patchable_function_entries
                0xffffffff80298618       0x10 /home/asergey/runtime-EclipseApplication/x86dev/lib/liblcs.a(tmrset.o)
 __patchable_function_entries
                0xffffffff80298628        0x8 /home/asergey/runtime-EclipseApplication/x86dev/lib/liblcs.a(tmrsrec.o)
 __patchable_function_entries
                0xffffffff80298630        0x8 /home/asergey/runtime-EclipseApplication/x86dev/lib/liblcs.a(tmrstop.o)
 __patchable_function_entries
                0xffffffff80298638       0x20 /home/asergey/runtime-EclipseApplication/x86dev/lib/liblcs.a(iorbcopy.o)
 __patchable_function_entries
                0xffffffff80298658       0x10 /home/asergey/runtime-EclipseApplication/x86dev/lib/liblcs.a(iorbfree.o)
 __patchable_function_entries
                0xffffffff80298668       0x10 /home/asergey/runtime-EclipseApplication/x86dev/lib/liblcs.a(bm_init.o)
 __patchable_function_entries
                0xffffffff80298678       0x10 /home/asergey/runtime-EclipseApplication/x86dev/lib/liblcs.a(iorbdup.o)
 __patchable_function_entries
                0xffffffff80298688        0x8 /home/asergey/runtime-EclipseApplication/x86dev/lib/liblcs.a(iorbget.o)
 __patchable_function_entries
                0xffffffff80298690        0x8 /home/asergey/runtime-EclipseApplication/x86dev/lib/liblcs.a(iorbunlk.o)
 __patchable_function_entries
                0xffffffff80298698        0x8 /home/asergey/runtime-EclipseApplication/x86dev/lib/liblcs.a(iorbcs.o)
 __patchable_function_entries
                0xffffffff802986a0       0x20 /home/asergey/runtime-EclipseApplication/x86dev/lib/liblcs.a(qsort.o)
 __patchable_function_entries
                0xffffffff802986c0       0x28 /home/asergey/runtime-EclipseApplication/x86dev/lib/liblcs.a(cksum.o)
 __patchable_function_entries
                0xffffffff802986e8       0x10 /home/asergey/runtime-EclipseApplication/x86dev/lib/liblcs.a(clntport.o)
 __patchable_function_entries
                0xffffffff802986f8        0x8 /home/asergey/runtime-EclipseApplication/x86dev/lib/liblcs.a(hm.o)
 __patchable_function_entries
                0xffffffff80298700       0x20 /home/asergey/runtime-EclipseApplication/x86dev/lib/liblcs.a(lcsprio.o)
 __patchable_function_entries
                0xffffffff80298720       0x18 /home/asergey/runtime-EclipseApplication/x86dev/lib/liblcs.a(uio_move.o)
 __patchable_function_entries
                0xffffffff80298738        0x8 /home/asergey/runtime-EclipseApplication/x86dev/lib/liblcs.a(psbdrop.o)
 __patchable_function_entries
                0xffffffff80298740        0x8 /home/asergey/runtime-EclipseApplication/x86dev/lib/liblcs.a(psbget.o)
 __patchable_function_entries
                0xffffffff80298748        0x8 /home/asergey/runtime-EclipseApplication/x86dev/lib/liblcs.a(psbscap.o)
 __patchable_function_entries
                0xffffffff80298750       0x10 /home/asergey/runtime-EclipseApplication/x86dev/lib/liblcs.a(psbadd.o)
 __patchable_function_entries
                0xffffffff80298760        0x8 /home/asergey/runtime-EclipseApplication/x86dev/lib/liblcs.a(psbspace.o)
 __patchable_function_entries
                0xffffffff80298768        0x8 /home/asergey/runtime-EclipseApplication/x86dev/lib/liblcs.a(psbcount.o)
 __patchable_function_entries
                0xffffffff80298770        0x8 /home/asergey/runtime-EclipseApplication/x86dev/lib/liblcs.a(psbgcap.o)
 __patchable_function_entries
                0xffffffff80298778        0x8 /home/asergey/runtime-EclipseApplication/x86dev/lib/liblcs.a(psbpeek.o)
 __patchable_function_entries
                0xffffffff80298780       0x10 /home/asergey/runtime-EclipseApplication/x86dev/lib/liblcs.a(llmcast.o)
 __patchable_function_entries
                0xffffffff80298790       0x18 /home/asergey/runtime-EclipseApplication/x86dev/lib/liblcs.a(lloutput.o)
 __patchable_function_entries
                0xffffffff802987a8       0x10 /home/asergey/runtime-EclipseApplication/x86dev/lib/liblcs.a(arpreq.o)
 __patchable_function_entries
                0xffffffff802987b8        0x8 /home/asergey/runtime-EclipseApplication/x86dev/lib/liblcs.a(arpsrch.o)
 __patchable_function_entries
                0xffffffff802987c0        0x8 /home/asergey/runtime-EclipseApplication/x86dev/lib/liblcs.a(udp_atch.o)
 __patchable_function_entries
                0xffffffff802987c8        0x8 /home/asergey/runtime-EclipseApplication/x86dev/lib/liblcs.a(udp_bind.o)
 __patchable_function_entries
                0xffffffff802987d0        0x8 /home/asergey/runtime-EclipseApplication/x86dev/lib/liblcs.a(udp_conn.o)
 __patchable_function_entries
                0xffffffff802987d8        0x8 /home/asergey/runtime-EclipseApplication/x86dev/lib/liblcs.a(udp_dtch.o)
 __patchable_function_entries
                0xffffffff802987e0       0x10 /home/asergey/runtime-EclipseApplication/x86dev/lib/liblcs.a(udp_inpt.o)
 __patchable_function_entries
                0xffffffff802987f0       0x18 /home/asergey/runtime-EclipseApplication/x86dev/lib/liblcs.a(udp_pcb.o)
 __patchable_function_entries
                0xffffffff80298808        0x8 /home/asergey/runtime-EclipseApplication/x86dev/lib/liblcs.a(udp_peer.o)
 __patchable_function_entries
                0xffffffff80298810        0x8 /home/asergey/runtime-EclipseApplication/x86dev/lib/liblcs.a(udp_sock.o)
 __patchable_function_entries
                0xffffffff80298818        0x8 /home/asergey/runtime-EclipseApplication/x86dev/lib/liblcs.a(udp6_input.o)
 __patchable_function_entries
                0xffffffff80298820        0x8 /home/asergey/runtime-EclipseApplication/x86dev/lib/liblcs.a(udp6_out.o)
 __patchable_function_entries
                0xffffffff80298828        0x8 /home/asergey/runtime-EclipseApplication/x86dev/lib/liblcs.a(udp_disc.o)
 __patchable_function_entries
                0xffffffff80298830        0x8 /home/asergey/runtime-EclipseApplication/x86dev/lib/liblcs.a(udp_out.o)
 __patchable_function_entries
                0xffffffff80298838       0x10 /home/asergey/runtime-EclipseApplication/x86dev/lib/liblcs.a(udp_util.o)
 __patchable_function_entries
                0xffffffff80298848        0x8 /home/asergey/runtime-EclipseApplication/x86dev/lib/liblcs.a(icmp6_in.o)
 __patchable_function_entries
                0xffffffff80298850       0x18 /home/asergey/runtime-EclipseApplication/x86dev/lib/liblcs.a(icmp6_error.o)
 __patchable_function_entries
                0xffffffff80298868        0x8 /home/asergey/runtime-EclipseApplication/x86dev/lib/liblcs.a(in6_pbind.o)
 __patchable_function_entries
                0xffffffff80298870        0x8 /home/asergey/runtime-EclipseApplication/x86dev/lib/liblcs.a(in6_pcon.o)
 __patchable_function_entries
                0xffffffff80298878        0x8 /home/asergey/runtime-EclipseApplication/x86dev/lib/liblcs.a(in6_plook.o)
 __patchable_function_entries
                0xffffffff80298880       0x50 /home/asergey/runtime-EclipseApplication/x86dev/lib/liblcs.a(in6_util.o)
 __patchable_function_entries
                0xffffffff802988d0       0x18 /home/asergey/runtime-EclipseApplication/x86dev/lib/liblcs.a(ip6_outpt.o)
 __patchable_function_entries
                0xffffffff802988e8        0x8 /home/asergey/runtime-EclipseApplication/x86dev/lib/liblcs.a(in_pcon.o)
 __patchable_function_entries
                0xffffffff802988f0       0x68 /home/asergey/runtime-EclipseApplication/x86dev/lib/liblcs.a(in_route.o)
 __patchable_function_entries
                0xffffffff80298958        0x8 /home/asergey/runtime-EclipseApplication/x86dev/lib/liblcs.a(ip_ctlo.o)
 __patchable_function_entries
                0xffffffff80298960       0x10 /home/asergey/runtime-EclipseApplication/x86dev/lib/liblcs.a(ip_outpt.o)
 __patchable_function_entries
                0xffffffff80298970        0x8 /home/asergey/runtime-EclipseApplication/x86dev/lib/liblcs.a(tcp_atch.o)
 __patchable_function_entries
                0xffffffff80298978       0x10 /home/asergey/runtime-EclipseApplication/x86dev/lib/liblcs.a(tcp_clse.o)
 __patchable_function_entries
                0xffffffff80298988       0x18 /home/asergey/runtime-EclipseApplication/x86dev/lib/liblcs.a(tcp_disc.o)
 __patchable_function_entries
                0xffffffff802989a0        0x8 /home/asergey/runtime-EclipseApplication/x86dev/lib/liblcs.a(tcp_bind.o)
 __patchable_function_entries
                0xffffffff802989a8       0x10 /home/asergey/runtime-EclipseApplication/x86dev/lib/liblcs.a(tcp_conn.o)
 __patchable_function_entries
                0xffffffff802989b8        0x8 /home/asergey/runtime-EclipseApplication/x86dev/lib/liblcs.a(tcp_lstn.o)
 __patchable_function_entries
                0xffffffff802989c0      0x138 /home/asergey/runtime-EclipseApplication/x86dev/lib/libnfs_client.a(nfs_file_open.o)
 __patchable_function_entries
                0xffffffff80298af8       0x50 /home/asergey/runtime-EclipseApplication/x86dev/lib/libnfs_client.a(nfs_inode.o)
 __patchable_function_entries
                0xffffffff80298b48       0xe8 /home/asergey/runtime-EclipseApplication/x86dev/lib/libnfs_client.a(unfs_driver.o)
 __patchable_function_entries
                0xffffffff80298c30       0x30 /home/asergey/runtime-EclipseApplication/x86dev/lib/libnfs_client.a(nfs_mount.o)
 __patchable_function_entries
                0xffffffff80298c60       0x10 /home/asergey/runtime-EclipseApplication/x86dev/lib/libptrace_x86_64.a(ptrace_ctx.o)
 __patchable_function_entries
                0xffffffff80298c70       0x20 /home/asergey/runtime-EclipseApplication/x86dev/lib/libptrace_x86_64.a(ptrace_dbg_ctx.o)
 __patchable_function_entries
                0xffffffff80298c90      0x1e8 /home/asergey/runtime-EclipseApplication/x86dev/lib/libptrace.a(ptrace.o)
 __patchable_function_entries
                0xffffffff80298e78       0x10 /home/asergey/runtime-EclipseApplication/x86dev/lib/libptrace.a(ptrace_child.o)
 __patchable_function_entries
                0xffffffff80298e88        0x8 /home/asergey/runtime-EclipseApplication/x86dev/lib/libptrace.a(ptrace_fctx.o)
 __patchable_function_entries
                0xffffffff80298e90        0x8 /home/asergey/runtime-EclipseApplication/x86dev/lib/libptrace.a(ptrace_kill.o)
 __patchable_function_entries
                0xffffffff80298e98       0x18 /home/asergey/runtime-EclipseApplication/x86dev/lib/libptrace.a(ptrace_tde.o)
 __patchable_function_entries
                0xffffffff80298eb0       0xc8 /home/asergey/runtime-EclipseApplication/x86dev/lib/libdrm.a(drm.o)
 __patchable_function_entries
                0xffffffff80298f78       0xb0 /home/asergey/runtime-EclipseApplication/x86dev/lib/libdrm.a(pcibus.o)
 __patchable_function_entries
                0xffffffff80299028       0x60 /home/asergey/runtime-EclipseApplication/x86dev/lib/libdrm.a(sysbus.o)
 __patchable_function_entries
                0xffffffff80299088       0x10 /home/asergey/runtime-EclipseApplication/x86dev/lib/libdrm.a(drm_sysctl.o)
 __patchable_function_entries
                0xffffffff80299098       0x18 /home/asergey/runtime-EclipseApplication/x86dev/lib/libdrm.a(pci_sysctl.o)
 __patchable_function_entries
                0xffffffff802990b0       0x20 /home/asergey/runtime-EclipseApplication/x86dev/lib/libdrm.a(bios_pcialloc.o)
 __patchable_function_entries
                0xffffffff802990d0       0x98 /home/asergey/runtime-EclipseApplication/x86dev/lib/libkernel.a(bread.o)
 __patchable_function_entries
                0xffffffff80299168       0x30 /home/asergey/runtime-EclipseApplication/x86dev/lib/libkernel.a(chread.o)
 __patchable_function_entries
                0xffffffff80299198       0x40 /home/asergey/runtime-EclipseApplication/x86dev/lib/libkernel.a(ddread.o)
 __patchable_function_entries
                0xffffffff802991d8       0x30 /home/asergey/runtime-EclipseApplication/x86dev/lib/libkernel.a(deliver.o)
 __patchable_function_entries
                0xffffffff80299208       0x40 /home/asergey/runtime-EclipseApplication/x86dev/lib/libkernel.a(dfread.o)
 __patchable_function_entries
                0xffffffff80299248       0x38 /home/asergey/runtime-EclipseApplication/x86dev/lib/libkernel.a(environ.o)
 __patchable_function_entries
                0xffffffff80299280       0x28 /home/asergey/runtime-EclipseApplication/x86dev/lib/libkernel.a(exception.o)
 __patchable_function_entries
                0xffffffff802992a8       0x18 /home/asergey/runtime-EclipseApplication/x86dev/lib/libkernel.a(exit.o)
 __patchable_function_entries
                0xffffffff802992c0       0xa8 /home/asergey/runtime-EclipseApplication/x86dev/lib/libkernel.a(fast_ada.o)
 __patchable_function_entries
                0xffffffff80299368       0x68 /home/asergey/runtime-EclipseApplication/x86dev/lib/libkernel.a(file_open.o)
 __patchable_function_entries
                0xffffffff802993d0       0x38 /home/asergey/runtime-EclipseApplication/x86dev/lib/libkernel.a(fpcontext.o)
 __patchable_function_entries
                0xffffffff80299408       0x20 /home/asergey/runtime-EclipseApplication/x86dev/lib/libkernel.a(get_freefile.o)
 __patchable_function_entries
                0xffffffff80299428       0xa0 /home/asergey/runtime-EclipseApplication/x86dev/lib/libkernel.a(getmem.o)
 __patchable_function_entries
                0xffffffff802994c8       0x28 /home/asergey/runtime-EclipseApplication/x86dev/lib/libkernel.a(getrusage.o)
 __patchable_function_entries
                0xffffffff802994f0        0x8 /home/asergey/runtime-EclipseApplication/x86dev/lib/libkernel.a(hm_except.o)
 __patchable_function_entries
                0xffffffff802994f8       0x28 /home/asergey/runtime-EclipseApplication/x86dev/lib/libkernel.a(hwmarks.o)
 __patchable_function_entries
                0xffffffff80299520        0x8 /home/asergey/runtime-EclipseApplication/x86dev/lib/libkernel.a(initdrivers.o)
 __patchable_function_entries
                0xffffffff80299528       0x60 /home/asergey/runtime-EclipseApplication/x86dev/lib/libkernel.a(inode.o)
 __patchable_function_entries
                0xffffffff80299588       0x40 /home/asergey/runtime-EclipseApplication/x86dev/lib/libkernel.a(ioint.o)
 __patchable_function_entries
                0xffffffff802995c8       0x18 /home/asergey/runtime-EclipseApplication/x86dev/lib/libkernel.a(kern_syms.o)
 __patchable_function_entries
                0xffffffff802995e0       0x70 /home/asergey/runtime-EclipseApplication/x86dev/lib/libkernel.a(kprintf.o)
 __patchable_function_entries
                0xffffffff80299650       0x18 /home/asergey/runtime-EclipseApplication/x86dev/lib/libkernel.a(globswap.o)
 __patchable_function_entries
                0xffffffff80299668       0x48 /home/asergey/runtime-EclipseApplication/x86dev/lib/libkernel.a(lockf.o)
 __patchable_function_entries
                0xffffffff802996b0      0x128 /home/asergey/runtime-EclipseApplication/x86dev/lib/libkernel.a(lynxfs.o)
 __patchable_function_entries
                0xffffffff802997d8       0x60 /home/asergey/runtime-EclipseApplication/x86dev/lib/libkernel.a(main.o)
 __patchable_function_entries
                0xffffffff80299838        0x8 /home/asergey/runtime-EclipseApplication/x86dev/lib/libkernel.a(map_kernel_am.o)
 __patchable_function_entries
                0xffffffff80299840       0x40 /home/asergey/runtime-EclipseApplication/x86dev/lib/libkernel.a(mem_map.o)
 __patchable_function_entries
                0xffffffff80299880       0xa0 /home/asergey/runtime-EclipseApplication/x86dev/lib/libkernel.a(name_server.o)
 __patchable_function_entries
                0xffffffff80299920        0x8 /home/asergey/runtime-EclipseApplication/x86dev/lib/libkernel.a(nux.o)
 __patchable_function_entries
                0xffffffff80299928       0x40 /home/asergey/runtime-EclipseApplication/x86dev/lib/libkernel.a(osm.o)
 __patchable_function_entries
                0xffffffff80299968       0x20 /home/asergey/runtime-EclipseApplication/x86dev/lib/libkernel.a(pagefault.o)
 __patchable_function_entries
                0xffffffff80299988        0x8 /home/asergey/runtime-EclipseApplication/x86dev/lib/libkernel.a(panic.o)
 __patchable_function_entries
                0xffffffff80299990       0x20 /home/asergey/runtime-EclipseApplication/x86dev/lib/libkernel.a(perm.o)
 __patchable_function_entries
                0xffffffff802999b0       0x70 /home/asergey/runtime-EclipseApplication/x86dev/lib/libkernel.a(pipe.o)
 __patchable_function_entries
                0xffffffff80299a20       0x28 /home/asergey/runtime-EclipseApplication/x86dev/lib/libkernel.a(priot.o)
 __patchable_function_entries
                0xffffffff80299a48       0x18 /home/asergey/runtime-EclipseApplication/x86dev/lib/libkernel.a(procinit.o)
 __patchable_function_entries
                0xffffffff80299a60       0x18 /home/asergey/runtime-EclipseApplication/x86dev/lib/libkernel.a(reco.o)
 __patchable_function_entries
                0xffffffff80299a78       0x10 /home/asergey/runtime-EclipseApplication/x86dev/lib/libkernel.a(resched.o)
 __patchable_function_entries
                0xffffffff80299a88       0x50 /home/asergey/runtime-EclipseApplication/x86dev/lib/libkernel.a(rtimeset.o)
 __patchable_function_entries
                0xffffffff80299ad8       0x18 /home/asergey/runtime-EclipseApplication/x86dev/lib/libkernel.a(sbrk.o)
 __patchable_function_entries
                0xffffffff80299af0       0xe0 /home/asergey/runtime-EclipseApplication/x86dev/lib/libkernel.a(setpriority.o)
 __patchable_function_entries
                0xffffffff80299bd0       0x10 /home/asergey/runtime-EclipseApplication/x86dev/lib/libkernel.a(setscheduler.o)
 __patchable_function_entries
                0xffffffff80299be0       0x40 /home/asergey/runtime-EclipseApplication/x86dev/lib/libkernel.a(stack.o)
 __patchable_function_entries
                0xffffffff80299c20       0x70 /home/asergey/runtime-EclipseApplication/x86dev/lib/libkernel.a(stask.o)
 __patchable_function_entries
                0xffffffff80299c90        0x8 /home/asergey/runtime-EclipseApplication/x86dev/lib/libkernel.a(stopcpu.o)
 __patchable_function_entries
                0xffffffff80299c98       0x78 /home/asergey/runtime-EclipseApplication/x86dev/lib/libkernel.a(swait.o)
 __patchable_function_entries
                0xffffffff80299d10       0x28 /home/asergey/runtime-EclipseApplication/x86dev/lib/libkernel.a(sysbrk.o)
 __patchable_function_entries
                0xffffffff80299d38       0x40 /home/asergey/runtime-EclipseApplication/x86dev/lib/libkernel.a(tde.o)
 __patchable_function_entries
                0xffffffff80299d78       0x88 /home/asergey/runtime-EclipseApplication/x86dev/lib/libkernel.a(threads.o)
 __patchable_function_entries
                0xffffffff80299e00       0x68 /home/asergey/runtime-EclipseApplication/x86dev/lib/libkernel.a(time.o)
 __patchable_function_entries
                0xffffffff80299e68       0x48 /home/asergey/runtime-EclipseApplication/x86dev/lib/libkernel.a(timeout.o)
 __patchable_function_entries
                0xffffffff80299eb0        0x8 /home/asergey/runtime-EclipseApplication/x86dev/lib/libkernel.a(usleep.o)
 __patchable_function_entries
                0xffffffff80299eb8       0x50 /home/asergey/runtime-EclipseApplication/x86dev/lib/libkernel.a(utils.o)
 __patchable_function_entries
                0xffffffff80299f08       0xc8 /home/asergey/runtime-EclipseApplication/x86dev/lib/libkernel.a(vfs.o)
 __patchable_function_entries
                0xffffffff80299fd0       0x28 /home/asergey/runtime-EclipseApplication/x86dev/lib/libkernel.a(vmos_rinsert.o)
 __patchable_function_entries
                0xffffffff80299ff8       0x18 /home/asergey/runtime-EclipseApplication/x86dev/lib/libkernel.a(vmosschedu.o)
 __patchable_function_entries
                0xffffffff8029a010       0x30 /home/asergey/runtime-EclipseApplication/x86dev/lib/libkernel.a(execve.o)
 __patchable_function_entries
                0xffffffff8029a040       0x50 /home/asergey/runtime-EclipseApplication/x86dev/lib/libkernel.a(fast_sem_open.o)
 __patchable_function_entries
                0xffffffff8029a090       0x50 /home/asergey/runtime-EclipseApplication/x86dev/lib/libkernel.a(fork.o)
 __patchable_function_entries
                0xffffffff8029a0e0       0x20 /home/asergey/runtime-EclipseApplication/x86dev/lib/libkernel.a(install.o)
 __patchable_function_entries
                0xffffffff8029a100       0x18 /home/asergey/runtime-EclipseApplication/x86dev/lib/libkernel.a(install_elf.o)
 __patchable_function_entries
                0xffffffff8029a118        0x8 /home/asergey/runtime-EclipseApplication/x86dev/lib/libkernel.a(init_global_resources.o)
 __patchable_function_entries
                0xffffffff8029a120       0x68 /home/asergey/runtime-EclipseApplication/x86dev/lib/libkernel.a(load.o)
 __patchable_function_entries
                0xffffffff8029a188        0x8 /home/asergey/runtime-EclipseApplication/x86dev/lib/libkernel.a(load_elf.o)
 __patchable_function_entries
                0xffffffff8029a190        0x8 /home/asergey/runtime-EclipseApplication/x86dev/lib/libkernel.a(load_elf64.o)
 __patchable_function_entries
                0xffffffff8029a198       0x28 /home/asergey/runtime-EclipseApplication/x86dev/lib/libkernel.a(mempartition.o)
 __patchable_function_entries
                0xffffffff8029a1c0       0x38 /home/asergey/runtime-EclipseApplication/x86dev/lib/libkernel.a(mmap.o)
 __patchable_function_entries
                0xffffffff8029a1f8       0x70 /home/asergey/runtime-EclipseApplication/x86dev/lib/libkernel.a(pshmem.o)
 __patchable_function_entries
                0xffffffff8029a268       0x60 /home/asergey/runtime-EclipseApplication/x86dev/lib/libkernel.a(sm.o)
 __patchable_function_entries
                0xffffffff8029a2c8       0x10 /home/asergey/runtime-EclipseApplication/x86dev/lib/libkernel.a(sc_router.o)
 __patchable_function_entries
                0xffffffff8029a2d8       0x40 /home/asergey/runtime-EclipseApplication/x86dev/lib/libkernel.a(wait.o)
 __patchable_function_entries
                0xffffffff8029a318       0x30 /home/asergey/runtime-EclipseApplication/x86dev/lib/libkernel.a(cfread.o)
 __patchable_function_entries
                0xffffffff8029a348       0x28 /home/asergey/runtime-EclipseApplication/x86dev/lib/libkernel.a(cprintf.o)
 __patchable_function_entries
                0xffffffff8029a370       0x20 /home/asergey/runtime-EclipseApplication/x86dev/lib/libkernel.a(hwt_bench.o)
 __patchable_function_entries
                0xffffffff8029a390       0x40 /home/asergey/runtime-EclipseApplication/x86dev/lib/libkernel.a(kern_mib.o)
 __patchable_function_entries
                0xffffffff8029a3d0       0xb8 /home/asergey/runtime-EclipseApplication/x86dev/lib/libkernel.a(kern_sysctl.o)
 __patchable_function_entries
                0xffffffff8029a488        0x8 /home/asergey/runtime-EclipseApplication/x86dev/lib/libkernel.a(loadavg.o)
 __patchable_function_entries
                0xffffffff8029a490        0x8 /home/asergey/runtime-EclipseApplication/x86dev/lib/libkernel.a(sysctl_init.o)
 __patchable_function_entries
                0xffffffff8029a498       0x18 /home/asergey/runtime-EclipseApplication/x86dev/lib/libkernel.a(sysinfo.o)
 __patchable_function_entries
                0xffffffff8029a4b0      0x240 /home/asergey/runtime-EclipseApplication/x86dev/lib/libkernel.a(ttymgr.o)
 __patchable_function_entries
                0xffffffff8029a6f0       0x18 /home/asergey/runtime-EclipseApplication/x86dev/lib/libkernel.a(uninstall.o)
 __patchable_function_entries
                0xffffffff8029a708        0x8 /home/asergey/runtime-EclipseApplication/x86dev/lib/libkernel.a(utimes.o)
 __patchable_function_entries
                0xffffffff8029a710       0x18 /home/asergey/runtime-EclipseApplication/x86dev/lib/libkernel.a(clock_impl.o)
 __patchable_function_entries
                0xffffffff8029a728        0x8 /home/asergey/runtime-EclipseApplication/x86dev/lib/libkernel.a(clock_getcpuclockid.o)
 __patchable_function_entries
                0xffffffff8029a730        0x8 /home/asergey/runtime-EclipseApplication/x86dev/lib/libkernel.a(clock_getres.o)
 __patchable_function_entries
                0xffffffff8029a738        0x8 /home/asergey/runtime-EclipseApplication/x86dev/lib/libkernel.a(clock_gettime.o)
 __patchable_function_entries
                0xffffffff8029a740       0x10 /home/asergey/runtime-EclipseApplication/x86dev/lib/libkernel.a(clock_nanosleep.o)
 __patchable_function_entries
                0xffffffff8029a750        0x8 /home/asergey/runtime-EclipseApplication/x86dev/lib/libkernel.a(clock_settime.o)
 __patchable_function_entries
                0xffffffff8029a758       0x10 /home/asergey/runtime-EclipseApplication/x86dev/lib/libkernel.a(timer_impl.o)
 __patchable_function_entries
                0xffffffff8029a768        0x8 /home/asergey/runtime-EclipseApplication/x86dev/lib/libkernel.a(gettime_op.o)
 __patchable_function_entries
                0xffffffff8029a770       0x28 /home/asergey/runtime-EclipseApplication/x86dev/lib/libkernel.a(getitimer.o)
 __patchable_function_entries
                0xffffffff8029a798        0x8 /home/asergey/runtime-EclipseApplication/x86dev/lib/libkernel.a(timer_create.o)
 __patchable_function_entries
                0xffffffff8029a7a0        0x8 /home/asergey/runtime-EclipseApplication/x86dev/lib/libkernel.a(timer_delete.o)
 __patchable_function_entries
                0xffffffff8029a7a8        0x8 /home/asergey/runtime-EclipseApplication/x86dev/lib/libkernel.a(timer_getoverrun.o)
 __patchable_function_entries
                0xffffffff8029a7b0        0x8 /home/asergey/runtime-EclipseApplication/x86dev/lib/libkernel.a(timer_gettime.o)
 __patchable_function_entries
                0xffffffff8029a7b8        0x8 /home/asergey/runtime-EclipseApplication/x86dev/lib/libkernel.a(timer_settime.o)
 __patchable_function_entries
                0xffffffff8029a7c0        0x8 /home/asergey/runtime-EclipseApplication/x86dev/lib/libkernel.a(clock_adjtimex.o)
 __patchable_function_entries
                0xffffffff8029a7c8        0x8 /home/asergey/runtime-EclipseApplication/x86dev/lib/libkernel.a(reboot_impl.o)
 __patchable_function_entries
                0xffffffff8029a7d0       0x10 /home/asergey/runtime-EclipseApplication/x86dev/lib/libkernel.a(get_resource_entry.o)
 __patchable_function_entries
                0xffffffff8029a7e0       0x10 /home/asergey/runtime-EclipseApplication/x86dev/lib/libkernel.a(ptrace.o)
 __patchable_function_entries
                0xffffffff8029a7f0        0x8 /home/asergey/runtime-EclipseApplication/x86dev/lib/libkernel.a(reboot.o)
 __patchable_function_entries
                0xffffffff8029a7f8        0x8 /home/asergey/runtime-EclipseApplication/x86dev/lib/libkernel.a(ulimit.o)
 __patchable_function_entries
                0xffffffff8029a800        0x8 /home/asergey/runtime-EclipseApplication/x86dev/lib/libkernel.a(uname.o)
 __patchable_function_entries
                0xffffffff8029a808       0x10 /home/asergey/runtime-EclipseApplication/x86dev/lib/libkernel.a(mount_impl.o)
 __patchable_function_entries
                0xffffffff8029a818        0x8 /home/asergey/runtime-EclipseApplication/x86dev/lib/libkernel.a(getdents.o)
 __patchable_function_entries
                0xffffffff8029a820        0x8 /home/asergey/runtime-EclipseApplication/x86dev/lib/libkernel.a(mount.o)
 __patchable_function_entries
                0xffffffff8029a828        0x8 /home/asergey/runtime-EclipseApplication/x86dev/lib/libkernel.a(umount.o)
 __patchable_function_entries
                0xffffffff8029a830       0x28 /home/asergey/runtime-EclipseApplication/x86dev/lib/libkernel.a(rwbounds.o)
 __patchable_function_entries
                0xffffffff8029a858       0x88 /home/asergey/runtime-EclipseApplication/x86dev/lib/libkernel.a(socket_impl.o)
 __patchable_function_entries
                0xffffffff8029a8e0       0x10 /home/asergey/runtime-EclipseApplication/x86dev/lib/libkernel.a(accept.o)
 __patchable_function_entries
                0xffffffff8029a8f0       0x10 /home/asergey/runtime-EclipseApplication/x86dev/lib/libkernel.a(bind.o)
 __patchable_function_entries
                0xffffffff8029a900       0x10 /home/asergey/runtime-EclipseApplication/x86dev/lib/libkernel.a(connect.o)
 __patchable_function_entries
                0xffffffff8029a910       0x10 /home/asergey/runtime-EclipseApplication/x86dev/lib/libkernel.a(gethostname.o)
 __patchable_function_entries
                0xffffffff8029a920        0x8 /home/asergey/runtime-EclipseApplication/x86dev/lib/libkernel.a(getpeername.o)
 __patchable_function_entries
                0xffffffff8029a928        0x8 /home/asergey/runtime-EclipseApplication/x86dev/lib/libkernel.a(getsockname.o)
 __patchable_function_entries
                0xffffffff8029a930        0x8 /home/asergey/runtime-EclipseApplication/x86dev/lib/libkernel.a(getsockopt.o)
 __patchable_function_entries
                0xffffffff8029a938       0x10 /home/asergey/runtime-EclipseApplication/x86dev/lib/libkernel.a(listen.o)
 __patchable_function_entries
                0xffffffff8029a948        0x8 /home/asergey/runtime-EclipseApplication/x86dev/lib/libkernel.a(recv.o)
 __patchable_function_entries
                0xffffffff8029a950        0x8 /home/asergey/runtime-EclipseApplication/x86dev/lib/libkernel.a(recvfrom.o)
 __patchable_function_entries
                0xffffffff8029a958        0x8 /home/asergey/runtime-EclipseApplication/x86dev/lib/libkernel.a(recvmsg.o)
 __patchable_function_entries
                0xffffffff8029a960        0x8 /home/asergey/runtime-EclipseApplication/x86dev/lib/libkernel.a(send.o)
 __patchable_function_entries
                0xffffffff8029a968        0x8 /home/asergey/runtime-EclipseApplication/x86dev/lib/libkernel.a(sendmsg.o)
 __patchable_function_entries
                0xffffffff8029a970        0x8 /home/asergey/runtime-EclipseApplication/x86dev/lib/libkernel.a(sendto.o)
 __patchable_function_entries
                0xffffffff8029a978        0x8 /home/asergey/runtime-EclipseApplication/x86dev/lib/libkernel.a(setsockopt.o)
 __patchable_function_entries
                0xffffffff8029a980       0x10 /home/asergey/runtime-EclipseApplication/x86dev/lib/libkernel.a(shutdown.o)
 __patchable_function_entries
                0xffffffff8029a990        0x8 /home/asergey/runtime-EclipseApplication/x86dev/lib/libkernel.a(socket.o)
 __patchable_function_entries
                0xffffffff8029a998       0x10 /home/asergey/runtime-EclipseApplication/x86dev/lib/libkernel.a(socketpair.o)
 __patchable_function_entries
                0xffffffff8029a9a8       0x20 /home/asergey/runtime-EclipseApplication/x86dev/lib/libkernel.a(chdir_impl.o)
 __patchable_function_entries
                0xffffffff8029a9c8        0x8 /home/asergey/runtime-EclipseApplication/x86dev/lib/libkernel.a(chmod_impl.o)
 __patchable_function_entries
                0xffffffff8029a9d0        0x8 /home/asergey/runtime-EclipseApplication/x86dev/lib/libkernel.a(chown_impl.o)
 __patchable_function_entries
                0xffffffff8029a9d8       0x10 /home/asergey/runtime-EclipseApplication/x86dev/lib/libkernel.a(fcntl_impl.o)
 __patchable_function_entries
                0xffffffff8029a9e8       0x38 /home/asergey/runtime-EclipseApplication/x86dev/lib/libkernel.a(link_impl.o)
 __patchable_function_entries
                0xffffffff8029aa20       0x80 /home/asergey/runtime-EclipseApplication/x86dev/lib/libkernel.a(read_impl.o)
 __patchable_function_entries
                0xffffffff8029aaa0        0x8 /home/asergey/runtime-EclipseApplication/x86dev/lib/libkernel.a(readlink_impl.o)
 __patchable_function_entries
                0xffffffff8029aaa8       0x20 /home/asergey/runtime-EclipseApplication/x86dev/lib/libkernel.a(stat_impl.o)
 __patchable_function_entries
                0xffffffff8029aac8        0x8 /home/asergey/runtime-EclipseApplication/x86dev/lib/libkernel.a(access.o)
 __patchable_function_entries
                0xffffffff8029aad0        0x8 /home/asergey/runtime-EclipseApplication/x86dev/lib/libkernel.a(chcdev.o)
 __patchable_function_entries
                0xffffffff8029aad8        0x8 /home/asergey/runtime-EclipseApplication/x86dev/lib/libkernel.a(chdir.o)
 __patchable_function_entries
                0xffffffff8029aae0        0x8 /home/asergey/runtime-EclipseApplication/x86dev/lib/libkernel.a(chmod.o)
 __patchable_function_entries
                0xffffffff8029aae8        0x8 /home/asergey/runtime-EclipseApplication/x86dev/lib/libkernel.a(chown.o)
 __patchable_function_entries
                0xffffffff8029aaf0       0x18 /home/asergey/runtime-EclipseApplication/x86dev/lib/libkernel.a(close.o)
 __patchable_function_entries
                0xffffffff8029ab08        0x8 /home/asergey/runtime-EclipseApplication/x86dev/lib/libkernel.a(dup2.o)
 __patchable_function_entries
                0xffffffff8029ab10        0x8 /home/asergey/runtime-EclipseApplication/x86dev/lib/libkernel.a(dup.o)
 __patchable_function_entries
                0xffffffff8029ab18        0x8 /home/asergey/runtime-EclipseApplication/x86dev/lib/libkernel.a(fchdir.o)
 __patchable_function_entries
                0xffffffff8029ab20        0x8 /home/asergey/runtime-EclipseApplication/x86dev/lib/libkernel.a(fchmod.o)
 __patchable_function_entries
                0xffffffff8029ab28        0x8 /home/asergey/runtime-EclipseApplication/x86dev/lib/libkernel.a(fchown.o)
 __patchable_function_entries
                0xffffffff8029ab30       0x10 /home/asergey/runtime-EclipseApplication/x86dev/lib/libkernel.a(fcntl.o)
 __patchable_function_entries
                0xffffffff8029ab40        0x8 /home/asergey/runtime-EclipseApplication/x86dev/lib/libkernel.a(fdatasync.o)
 __patchable_function_entries
                0xffffffff8029ab48        0x8 /home/asergey/runtime-EclipseApplication/x86dev/lib/libkernel.a(flock.o)
 __patchable_function_entries
                0xffffffff8029ab50        0x8 /home/asergey/runtime-EclipseApplication/x86dev/lib/libkernel.a(fstat.o)
 __patchable_function_entries
                0xffffffff8029ab58        0x8 /home/asergey/runtime-EclipseApplication/x86dev/lib/libkernel.a(fstatfs.o)
 __patchable_function_entries
                0xffffffff8029ab60        0x8 /home/asergey/runtime-EclipseApplication/x86dev/lib/libkernel.a(fsync.o)
 __patchable_function_entries
                0xffffffff8029ab68        0x8 /home/asergey/runtime-EclipseApplication/x86dev/lib/libkernel.a(ftruncate.o)
 __patchable_function_entries
                0xffffffff8029ab70        0x8 /home/asergey/runtime-EclipseApplication/x86dev/lib/libkernel.a(getdtablesize.o)
 __patchable_function_entries
                0xffffffff8029ab78        0x8 /home/asergey/runtime-EclipseApplication/x86dev/lib/libkernel.a(ioctl.o)
 __patchable_function_entries
                0xffffffff8029ab80        0x8 /home/asergey/runtime-EclipseApplication/x86dev/lib/libkernel.a(link.o)
 __patchable_function_entries
                0xffffffff8029ab88        0x8 /home/asergey/runtime-EclipseApplication/x86dev/lib/libkernel.a(lseek64.o)
 __patchable_function_entries
                0xffffffff8029ab90        0x8 /home/asergey/runtime-EclipseApplication/x86dev/lib/libkernel.a(lseek.o)
 __patchable_function_entries
                0xffffffff8029ab98        0x8 /home/asergey/runtime-EclipseApplication/x86dev/lib/libkernel.a(lstat.o)
 __patchable_function_entries
                0xffffffff8029aba0        0x8 /home/asergey/runtime-EclipseApplication/x86dev/lib/libkernel.a(mkdir.o)
 __patchable_function_entries
                0xffffffff8029aba8        0x8 /home/asergey/runtime-EclipseApplication/x86dev/lib/libkernel.a(mknod.o)
 __patchable_function_entries
                0xffffffff8029abb0        0x8 /home/asergey/runtime-EclipseApplication/x86dev/lib/libkernel.a(open.o)
 __patchable_function_entries
                0xffffffff8029abb8        0x8 /home/asergey/runtime-EclipseApplication/x86dev/lib/libkernel.a(read.o)
 __patchable_function_entries
                0xffffffff8029abc0        0x8 /home/asergey/runtime-EclipseApplication/x86dev/lib/libkernel.a(readlink.o)
 __patchable_function_entries
                0xffffffff8029abc8        0x8 /home/asergey/runtime-EclipseApplication/x86dev/lib/libkernel.a(readv.o)
 __patchable_function_entries
                0xffffffff8029abd0        0x8 /home/asergey/runtime-EclipseApplication/x86dev/lib/libkernel.a(rename.o)
 __patchable_function_entries
                0xffffffff8029abd8        0x8 /home/asergey/runtime-EclipseApplication/x86dev/lib/libkernel.a(rmdir.o)
 __patchable_function_entries
                0xffffffff8029abe0       0x18 /home/asergey/runtime-EclipseApplication/x86dev/lib/libkernel.a(select.o)
 __patchable_function_entries
                0xffffffff8029abf8        0x8 /home/asergey/runtime-EclipseApplication/x86dev/lib/libkernel.a(stat.o)
 __patchable_function_entries
                0xffffffff8029ac00        0x8 /home/asergey/runtime-EclipseApplication/x86dev/lib/libkernel.a(statfs.o)
 __patchable_function_entries
                0xffffffff8029ac08        0x8 /home/asergey/runtime-EclipseApplication/x86dev/lib/libkernel.a(symlink.o)
 __patchable_function_entries
                0xffffffff8029ac10        0x8 /home/asergey/runtime-EclipseApplication/x86dev/lib/libkernel.a(sync.o)
 __patchable_function_entries
                0xffffffff8029ac18        0x8 /home/asergey/runtime-EclipseApplication/x86dev/lib/libkernel.a(umask.o)
 __patchable_function_entries
                0xffffffff8029ac20        0x8 /home/asergey/runtime-EclipseApplication/x86dev/lib/libkernel.a(unlink.o)
 __patchable_function_entries
                0xffffffff8029ac28        0x8 /home/asergey/runtime-EclipseApplication/x86dev/lib/libkernel.a(write.o)
 __patchable_function_entries
                0xffffffff8029ac30        0x8 /home/asergey/runtime-EclipseApplication/x86dev/lib/libkernel.a(writev.o)
 __patchable_function_entries
                0xffffffff8029ac38       0x40 /home/asergey/runtime-EclipseApplication/x86dev/lib/libkernel.a(blkwak_impl.o)
 __patchable_function_entries
                0xffffffff8029ac78       0x10 /home/asergey/runtime-EclipseApplication/x86dev/lib/libkernel.a(block.o)
 __patchable_function_entries
                0xffffffff8029ac88        0x8 /home/asergey/runtime-EclipseApplication/x86dev/lib/libkernel.a(rewait.o)
 __patchable_function_entries
                0xffffffff8029ac90        0x8 /home/asergey/runtime-EclipseApplication/x86dev/lib/libkernel.a(wakeup.o)
 __patchable_function_entries
                0xffffffff8029ac98       0xf0 /home/asergey/runtime-EclipseApplication/x86dev/lib/libkernel.a(kill_impl.o)
 __patchable_function_entries
                0xffffffff8029ad88       0x78 /home/asergey/runtime-EclipseApplication/x86dev/lib/libkernel.a(signal_impl.o)
 __patchable_function_entries
                0xffffffff8029ae00        0x8 /home/asergey/runtime-EclipseApplication/x86dev/lib/libkernel.a(kill.o)
 __patchable_function_entries
                0xffffffff8029ae08        0x8 /home/asergey/runtime-EclipseApplication/x86dev/lib/libkernel.a(sigaction.o)
 __patchable_function_entries
                0xffffffff8029ae10        0x8 /home/asergey/runtime-EclipseApplication/x86dev/lib/libkernel.a(sigblock.o)
 __patchable_function_entries
                0xffffffff8029ae18       0x10 /home/asergey/runtime-EclipseApplication/x86dev/lib/libkernel.a(signotify.o)
 __patchable_function_entries
                0xffffffff8029ae28        0x8 /home/asergey/runtime-EclipseApplication/x86dev/lib/libkernel.a(sigpause.o)
 __patchable_function_entries
                0xffffffff8029ae30        0x8 /home/asergey/runtime-EclipseApplication/x86dev/lib/libkernel.a(sigpending.o)
 __patchable_function_entries
                0xffffffff8029ae38        0x8 /home/asergey/runtime-EclipseApplication/x86dev/lib/libkernel.a(sigprocmask.o)
 __patchable_function_entries
                0xffffffff8029ae40        0x8 /home/asergey/runtime-EclipseApplication/x86dev/lib/libkernel.a(sigqueue.o)
 __patchable_function_entries
                0xffffffff8029ae48        0x8 /home/asergey/runtime-EclipseApplication/x86dev/lib/libkernel.a(sigsetmask.o)
 __patchable_function_entries
                0xffffffff8029ae50        0x8 /home/asergey/runtime-EclipseApplication/x86dev/lib/libkernel.a(sigsuspend.o)
 __patchable_function_entries
                0xffffffff8029ae58        0x8 /home/asergey/runtime-EclipseApplication/x86dev/lib/libkernel.a(sigtimedwait.o)
 __patchable_function_entries
                0xffffffff8029ae60        0x8 /home/asergey/runtime-EclipseApplication/x86dev/lib/libkernel.a(sigvec.o)
 __patchable_function_entries
                0xffffffff8029ae68        0x8 /home/asergey/runtime-EclipseApplication/x86dev/lib/libkernel.a(sigwait.o)
 __patchable_function_entries
                0xffffffff8029ae70        0x8 /home/asergey/runtime-EclipseApplication/x86dev/lib/libkernel.a(get_set_thread_priority.o)
 __patchable_function_entries
                0xffffffff8029ae78        0x8 /home/asergey/runtime-EclipseApplication/x86dev/lib/libkernel.a(adjtime.o)
 __patchable_function_entries
                0xffffffff8029ae80        0x8 /home/asergey/runtime-EclipseApplication/x86dev/lib/libkernel.a(gettimeofday.o)
 __patchable_function_entries
                0xffffffff8029ae88        0x8 /home/asergey/runtime-EclipseApplication/x86dev/lib/libkernel.a(times.o)
 __patchable_function_entries
                0xffffffff8029ae90        0x8 /home/asergey/runtime-EclipseApplication/x86dev/lib/libkernel.a(settimeofday.o)
 __patchable_function_entries
                0xffffffff8029ae98       0x20 /home/asergey/runtime-EclipseApplication/x86dev/lib/libmisc.a(nhn.o)
 __patchable_function_entries
                0xffffffff8029aeb8       0x10 /home/asergey/runtime-EclipseApplication/x86dev/lib/libmisc.a(reg_access.o)
 __patchable_function_entries
                0xffffffff8029aec8       0x18 /home/asergey/runtime-EclipseApplication/x86dev/lib/libmisc.a(abs.o)
 __patchable_function_entries
                0xffffffff8029aee0        0x8 /home/asergey/runtime-EclipseApplication/x86dev/lib/libmisc.a(calloc.o)
 __patchable_function_entries
                0xffffffff8029aee8        0x8 /home/asergey/runtime-EclipseApplication/x86dev/lib/libmisc.a(s_rindex.o)
 __patchable_function_entries
                0xffffffff8029aef0        0x8 /home/asergey/runtime-EclipseApplication/x86dev/lib/libmisc.a(strcat.o)
 __patchable_function_entries
                0xffffffff8029aef8        0x8 /home/asergey/runtime-EclipseApplication/x86dev/lib/libmisc.a(strcmp.o)
 __patchable_function_entries
                0xffffffff8029af00        0x8 /home/asergey/runtime-EclipseApplication/x86dev/lib/libmisc.a(strchr.o)
 __patchable_function_entries
                0xffffffff8029af08        0x8 /home/asergey/runtime-EclipseApplication/x86dev/lib/libmisc.a(strcpy.o)
 __patchable_function_entries
                0xffffffff8029af10        0x8 /home/asergey/runtime-EclipseApplication/x86dev/lib/libmisc.a(strlen.o)
 __patchable_function_entries
                0xffffffff8029af18        0x8 /home/asergey/runtime-EclipseApplication/x86dev/lib/libmisc.a(strncat.o)
 __patchable_function_entries
                0xffffffff8029af20        0x8 /home/asergey/runtime-EclipseApplication/x86dev/lib/libmisc.a(strncmp.o)
 __patchable_function_entries
                0xffffffff8029af28        0x8 /home/asergey/runtime-EclipseApplication/x86dev/lib/libmisc.a(strncpy.o)
 __patchable_function_entries
                0xffffffff8029af30        0x8 /home/asergey/runtime-EclipseApplication/x86dev/lib/libmisc.a(strnlen.o)
 __patchable_function_entries
                0xffffffff8029af38       0x18 /home/asergey/runtime-EclipseApplication/x86dev/lib/libmisc.a(malloc.o)
 __patchable_function_entries
                0xffffffff8029af50        0x8 /home/asergey/runtime-EclipseApplication/x86dev/lib/libmisc.a(memcmp.o)
 __patchable_function_entries
                0xffffffff8029af58       0x10 /home/asergey/runtime-EclipseApplication/x86dev/lib/libmisc.a(atomic_ops.o)
 __patchable_function_entries
                0xffffffff8029af68       0x10 /home/asergey/runtime-EclipseApplication/x86dev/lib/libmisc.a(memcpy_x86.o)
 __patchable_function_entries
                0xffffffff8029af78        0x8 /home/asergey/runtime-EclipseApplication/x86dev/lib/libmisc.a(memset_x86.o)
 __patchable_function_entries
                0xffffffff8029af80       0x18 /home/asergey/runtime-EclipseApplication/x86dev/lib/libfamily_x86_64.a(csp_misc.o)
 __patchable_function_entries
                0xffffffff8029af98       0x18 /home/asergey/runtime-EclipseApplication/x86dev/lib/libfamily_x86_64.a(xcontext.o)
 __patchable_function_entries
                0xffffffff8029afb0       0x10 /home/asergey/runtime-EclipseApplication/x86dev/lib/libfamily_x86_64.a(reloc_elf.o)
 __patchable_function_entries
                0xffffffff8029afc0       0x18 /home/asergey/runtime-EclipseApplication/x86dev/lib/libfamily_x86_64.a(signal.o)
 __patchable_function_entries
                0xffffffff8029afd8       0x10 /home/asergey/runtime-EclipseApplication/x86dev/lib/libfamily_x86_64.a(syscall.o)
 __patchable_function_entries
                0xffffffff8029afe8       0x20 /home/asergey/runtime-EclipseApplication/x86dev/lib/libcsp_x86_64.a(context.o)
 __patchable_function_entries
                0xffffffff8029b008       0x88 /home/asergey/runtime-EclipseApplication/x86dev/lib/libcsp_x86_64.a(csp_mem_map.o)
 __patchable_function_entries
                0xffffffff8029b090       0x20 /home/asergey/runtime-EclipseApplication/x86dev/lib/libcsp_x86_64.a(fpu.o)
 __patchable_function_entries
                0xffffffff8029b0b0        0x8 /home/asergey/runtime-EclipseApplication/x86dev/lib/libcsp_x86_64.a(tlb.o)
 __patchable_function_entries
                0xffffffff8029b0b8       0x18 /home/asergey/runtime-EclipseApplication/x86dev/lib/libptrace_x86_64.a(ptrace_trap.o)
 __patchable_function_entries
                0xffffffff8029b0d0        0x8 /home/asergey/runtime-EclipseApplication/x86dev/lib/libptrace.a(core.o)

.got            0xffffffff8029b0d8        0x0
 .got           0xffffffff8029b0d8        0x0 bsp.x86_64.o

.got.plt        0xffffffff8029b0d8        0x0
 .got.plt       0xffffffff8029b0d8        0x0 bsp.x86_64.o

.igot.plt       0xffffffff8029b0d8        0x0
 .igot.plt      0xffffffff8029b0d8        0x0 bsp.x86_64.o

.data1
 *(.data1)

.sdata
 *(.sdata)
                0xffffffff8029b0d8                _edata = .
                [!provide]                        PROVIDE (edata = .)
                0xffffffff8029b0d8                __bss_start = .

.bss            0xffffffff8029b0e0   0x224c28
                0xffffffff8029c000                . = ALIGN (0x1000)
 *fill*         0xffffffff8029b0e0      0xf20 
                0xffffffff8029c000                gstaddr = .
 *(.bss.globmem)
 .bss.globmem   0xffffffff8029c000      0xb0c /home/asergey/runtime-EclipseApplication/x86dev/lib/libkernel.a(globmem.o)
                0xffffffff8029c000                per_head
                0xffffffff8029c008                pi_perheadsem
                0xffffffff8029c00c                pi_pagesem
                0xffffffff8029c010                load_sem_initialized
                0xffffffff8029c014                load_sem
                0xffffffff8029c018                timer_free
                0xffffffff8029c020                timer_table
                0xffffffff8029c028                Sys_ntimer
                0xffffffff8029c030                sorting_zone
                0xffffffff8029c038                freepages
                0xffffffff8029c03c                fpage_end
                0xffffffff8029c040                page_free
                0xffffffff8029c048                perlimit_end
                0xffffffff8029c050                perlimit
                0xffffffff8029c060                kheap_mblock
                0xffffffff8029c080                osbrklimit
                0xffffffff8029c088                osbrk
                0xffffffff8029c090                osbrksem
                0xffffffff8029c0a0                memlist
                0xffffffff8029c0b0                eventq_free
                0xffffffff8029c0b8                event_freel
                0xffffffff8029c0c0                Usr_fast_mblock
                0xffffffff8029c0e0                Fast_sem_get_sem
                0xffffffff8029c0e8                Fast_sem_table
                0xffffffff8029c0f0                Usr_fsem_len
                0xffffffff8029c100                Fast_info_mblock
                0xffffffff8029c120                Fast_info_block
                0xffffffff8029c128                Max_fast_sems
                0xffffffff8029c130                mmark_rptable
                0xffffffff8029c138                mmark_table
                0xffffffff8029c140                free_mmarks
                0xffffffff8029c148                mmark_init_sem
                0xffffffff8029c14c                mmark_hcount
                0xffffffff8029c160                mmark_htable
                0xffffffff8029c360                free_sigwvecs
                0xffffffff8029c368                free_sigws
                0xffffffff8029c370                signote_free
                0xffffffff8029c378                signote_table
                0xffffffff8029c380                nsignotes
                0xffffffff8029c388                nugStackTop
                0xffffffff8029c390                nugStackSem
                0xffffffff8029c3a0                textd_used
                0xffffffff8029c420                textd_free
                0xffffffff8029c428                socket_table
                0xffffffff8029c430                socket_free
                0xffffffff8029c438                nsockets
                0xffffffff8029c440                fifo_table
                0xffffffff8029c448                free_ffs
                0xffffffff8029c450                npipes
                0xffffffff8029c458                Mmap_table
                0xffffffff8029c460                Shm_table
                0xffffffff8029c468                Free_shm
                0xffffffff8029c470                nshm
                0xffffffff8029c474                nsems
                0xffffffff8029c478                nmsgq
                0xffffffff8029c47c                name_buf_size
                0xffffffff8029c480                num_name_opens
                0xffffffff8029c484                num_names
                0xffffffff8029c490                String_mblock
                0xffffffff8029c4a0                Strings
                0xffffffff8029c4a8                Pid_table
                0xffffffff8029c4c0                Hash_table
                0xffffffff8029c8c0                Open_entry_free
                0xffffffff8029c8c8                Open_table
                0xffffffff8029c8d0                Name_entry_free
                0xffffffff8029c8d8                Name_table
                0xffffffff8029c8e0                NS_sem
                0xffffffff8029c8e8                file_table
                0xffffffff8029c8f0                file_free
                0xffffffff8029c8f8                nfiles
                0xffffffff8029c8fc                lockf_sem
                0xffffffff8029c900                lockedinodes
                0xffffffff8029c908                lockend
                0xffffffff8029c910                locklist
                0xffffffff8029c918                lockl_free
                0xffffffff8029c920                nrlocks
                0xffffffff8029c924                premount_timeout_sem
                0xffffffff8029c928                Root_inode
                0xffffffff8029c930                ihead_tsize
                0xffffffff8029c934                inode_tsize
                0xffffffff8029c938                mount_table
                0xffffffff8029c940                ihead_table
                0xffffffff8029c948                inode_table
                0xffffffff8029c950                ihead_mfree
                0xffffffff8029c958                ihead_free
                0xffffffff8029c960                iheads
                0xffffffff8029ca60                ihead_sem
                0xffffffff8029ca64                nmounts
                0xffffffff8029ca68                ninodes
                0xffffffff8029ca70                cache_mem
                0xffffffff8029ca80                avwmark
                0xffffffff8029ca84                avcount
                0xffffffff8029ca88                bad_cache
                0xffffffff8029ca8c                addcount
                0xffffffff8029ca90                mmsem
                0xffffffff8029ca94                avsem
                0xffffffff8029ca98                cache_blocks
                0xffffffff8029caa0                bhead_sem
                0xffffffff8029caa8                bhead_table
                0xffffffff8029cab0                bhead_hfree
                0xffffffff8029cab8                bhead_tfree
                0xffffffff8029cac0                bheads
                0xffffffff8029cac8                write_through
                0xffffffff8029cacc                cacheblks
                0xffffffff8029cad0                endtid
                0xffffffff8029cad4                starttid
                0xffffffff8029cad8                nstasks
                0xffffffff8029cae0                st_flist
                0xffffffff8029cae8                endpid
                0xffffffff8029caec                startpid
                0xffffffff8029caf0                nproc
                0xffffffff8029caf8                pfree_tail
                0xffffffff8029cb00                pfree_head
                0xffffffff8029cb08                VmRestart
                0xffffffff8029d000                . = ALIGN (0x1000)
 *fill*         0xffffffff8029cb0c      0x4f4 
                0xffffffff8029d000                gendaddr = .
 *(.dynbss)
 *(.bss)
 .bss           0xffffffff8029d000      0x228 bsp.x86_64.o
                0xffffffff8029d060                __msi_num_vectors
                0xffffffff8029d064                __msi_start_vector
                0xffffffff8029d068                bsp_get_bar_size_ptr
                0xffffffff8029d0a0                time_at_last_clkint
                0xffffffff8029d220                drm_bustypes
 .bss           0xffffffff8029d228        0x0 conf_am.o
 *fill*         0xffffffff8029d228       0x18 
 .bss           0xffffffff8029d240    0x13814 conf.o
                0xffffffff8029d240                boot_profile
                0xffffffff8029d244                nfmodsw
                0xffffffff8029d260                bdevsw
                0xffffffff8029dee0                cdevsw
                0xffffffff802a2100                drivers
                0xffffffff802a4d90                num_umass_devs
                0xffffffff802a4da0                proc_timers
                0xffffffff802a5590                face_version
                0xffffffff802a55a0                clock_table
                0xffffffff802a5af0                non_posix_siginfo
                0xffffffff802a5af4                non_posix_clock_nanosleep
                0xffffffff802a5b00                rtimer_table
                0xffffffff802b0240                proctab
                0xffffffff802b0248                reboot_on_panic
                0xffffffff802b0260                page_tables
                0xffffffff802b0a50                hm_catch_faults
 .bss           0xffffffff802b0a54        0x0 info.o
 .bss           0xffffffff802b0a54        0x0 timestamp.o
 *fill*         0xffffffff802b0a54        0xc 
 .bss           0xffffffff802b0a60     0x2408 /home/asergey/runtime-EclipseApplication/x86dev/lib/libcsp_x86_64.a(csp_init.o)
                0xffffffff802b0a60                tss
                0xffffffff802b2ae0                bp_info
                0xffffffff802b2ca0                csp_globals
 .bss           0xffffffff802b2e68        0x0 /home/asergey/runtime-EclipseApplication/x86dev/lib/libcsp_x86_64.a(csp_mem_map_am.o)
 .bss           0xffffffff802b2e68        0x0 /home/asergey/runtime-EclipseApplication/x86dev/lib/libcsp_x86_64.a(launch_am.o)
 .bss           0xffffffff802b2e68        0x0 /home/asergey/runtime-EclipseApplication/x86dev/lib/libcsp_x86_64.a(lowInit.o)
 *fill*         0xffffffff802b2e68       0x18 
 .bss           0xffffffff802b2e80     0xa000 /home/asergey/runtime-EclipseApplication/x86dev/lib/libcsp_x86_64.a(trap.o)
                0xffffffff802b2e80                int_stack
 .bss           0xffffffff802bce80        0x0 /home/asergey/runtime-EclipseApplication/x86dev/lib/libcsp_x86_64.a(csp_flih_asm.o)
 .bss           0xffffffff802bce80        0x0 /home/asergey/runtime-EclipseApplication/x86dev/lib/libcsp_x86_64.a(launch_asm.o)
 .bss           0xffffffff802bce80        0x0 /home/asergey/runtime-EclipseApplication/x86dev/lib/libcsp_x86_64.a(csp_cache.o)
 .bss           0xffffffff802bce80        0x0 /home/asergey/runtime-EclipseApplication/x86dev/lib/libcsp_x86_64.a(csp_init_am.o)
 .bss           0xffffffff802bce80     0x2fa8 /home/asergey/runtime-EclipseApplication/x86dev/lib/libdrivers.a(ahcidrvr.o)
                0xffffffff802bce80                dev
 .bss           0xffffffff802bfe28        0x4 /home/asergey/runtime-EclipseApplication/x86dev/lib/libdrivers.a(ahciinfo.o)
                0xffffffff802bfe28                ahciinfo0
 *fill*         0xffffffff802bfe2c       0x14 
 .bss           0xffffffff802bfe40      0xb7c /home/asergey/runtime-EclipseApplication/x86dev/lib/libdrivers.a(kdbdrvr.o)
                0xffffffff802bfe40                cpu_version
                0xffffffff802bfe44                skdb_proc_exit
                0xffffffff802bfe48                skdb_dr_install_file
 .bss           0xffffffff802c09bc        0x0 /home/asergey/runtime-EclipseApplication/x86dev/lib/libdrivers.a(lcs_emdrvr.o)
 .bss           0xffffffff802c09bc        0x0 /home/asergey/runtime-EclipseApplication/x86dev/lib/libdrivers.a(lcs_eminfo.o)
 .bss           0xffffffff802c09bc        0x0 /home/asergey/runtime-EclipseApplication/x86dev/lib/libdrivers.a(ptracedrvr.o)
 .bss           0xffffffff802c09bc        0x4 /home/asergey/runtime-EclipseApplication/x86dev/lib/libdrivers.a(tty_16550.o)
 .bss           0xffffffff802c09c0        0x0 /home/asergey/runtime-EclipseApplication/x86dev/lib/libdrivers.a(ttydrvr.o)
 .bss           0xffffffff802c09c0        0x0 /home/asergey/runtime-EclipseApplication/x86dev/lib/libdrivers.a(ttyinfo.o)
 .bss           0xffffffff802c09c0        0x4 /home/asergey/runtime-EclipseApplication/x86dev/lib/libdrivers.a(ehci_pci.o)
 .bss           0xffffffff802c09c4        0x4 /home/asergey/runtime-EclipseApplication/x86dev/lib/libdrivers.a(xhci_pci.o)
 .bss           0xffffffff802c09c8       0x10 /home/asergey/runtime-EclipseApplication/x86dev/lib/libdrivers.a(simusb.o)
 .bss           0xffffffff802c09d8       0x10 /home/asergey/runtime-EclipseApplication/x86dev/lib/libdrivers.a(scsimgr.o)
 .bss           0xffffffff802c09e8        0x0 /home/asergey/runtime-EclipseApplication/x86dev/lib/libdrivers.a(scsi_timeout.o)
 *fill*         0xffffffff802c09e8       0x18 
 .bss           0xffffffff802c0a00      0x270 /home/asergey/runtime-EclipseApplication/x86dev/lib/libdrivers.a(usbdrvr.o)
                0xffffffff802c0a00                usb_all_tasks
                0xffffffff802c0a10                usb_check_skdb
                0xffffffff802c0a20                usb_ptrack
                0xffffffff802c0c48                usd
 .bss           0xffffffff802c0c70        0x4 /home/asergey/runtime-EclipseApplication/x86dev/lib/libdrivers.a(usbinfo.o)
                0xffffffff802c0c70                usb_info0
 .bss           0xffffffff802c0c74        0x0 /home/asergey/runtime-EclipseApplication/x86dev/lib/libdrivers.a(virtio_netdrvr.o)
 .bss           0xffffffff802c0c74        0x0 /home/asergey/runtime-EclipseApplication/x86dev/lib/libdrivers.a(lsk_helperdrvr.o)
 .bss           0xffffffff802c0c74        0x0 /home/asergey/runtime-EclipseApplication/x86dev/lib/libdrivers.a(lcs_igcdrvr.o)
 .bss           0xffffffff802c0c74        0x0 /home/asergey/runtime-EclipseApplication/x86dev/lib/libdrivers.a(memdrvr.o)
 .bss           0xffffffff802c0c74        0x0 /home/asergey/runtime-EclipseApplication/x86dev/lib/libdrivers.a(ptydrvr.o)
 .bss           0xffffffff802c0c74        0x0 /home/asergey/runtime-EclipseApplication/x86dev/lib/libdrivers.a(ptyinfo.o)
 .bss           0xffffffff802c0c74        0x0 /home/asergey/runtime-EclipseApplication/x86dev/lib/libdrivers.a(rnddrvr.o)
 .bss           0xffffffff802c0c74        0x0 /home/asergey/runtime-EclipseApplication/x86dev/lib/libdrivers.a(lfatfsdrvr.o)
 .bss           0xffffffff802c0c74        0x0 /home/asergey/runtime-EclipseApplication/x86dev/lib/libdrivers.a(ixgbepfdrvr.o)
 .bss           0xffffffff802c0c74        0x0 /home/asergey/runtime-EclipseApplication/x86dev/lib/libdrivers.a(ixgbepfinfo.o)
 *fill*         0xffffffff802c0c74        0xc 
 .bss           0xffffffff802c0c80   0x1bff88 /home/asergey/runtime-EclipseApplication/x86dev/lib/libdrivers.a(lcsdrvr.o)
                0xffffffff802c0c80                Tcpip_lcs_info
                0xffffffff802c1500                lcs_data
 .bss           0xffffffff80480c08        0x0 /home/asergey/runtime-EclipseApplication/x86dev/lib/libdrivers.a(lcsinfo.o)
 .bss           0xffffffff80480c08        0x0 /home/asergey/runtime-EclipseApplication/x86dev/lib/libdrivers.a(lsk_fifo_pci.o)
 .bss           0xffffffff80480c08        0x0 /home/asergey/runtime-EclipseApplication/x86dev/lib/libdrivers.a(lsk_fifodrvr.o)
 .bss           0xffffffff80480c08        0x4 /home/asergey/runtime-EclipseApplication/x86dev/lib/libdrivers.a(lsk_fifoinfo.o)
                0xffffffff80480c08                lsk_fifoinfo
 *fill*         0xffffffff80480c0c       0x14 
 .bss           0xffffffff80480c20    0x15e90 /home/asergey/runtime-EclipseApplication/x86dev/lib/libdrivers.a(hmdrvr.o)
 .bss           0xffffffff80496ab0        0x8 /home/asergey/runtime-EclipseApplication/x86dev/lib/libdrivers.a(hminfo.o)
                0xffffffff80496ab0                hminfo0
 .bss           0xffffffff80496ab8        0x0 /home/asergey/runtime-EclipseApplication/x86dev/lib/libdrivers.a(mmapdrvr.o)
 .bss           0xffffffff80496ab8        0x0 /home/asergey/runtime-EclipseApplication/x86dev/lib/libdrivers.a(ahci.o)
 .bss           0xffffffff80496ab8        0x0 /home/asergey/runtime-EclipseApplication/x86dev/lib/libdrivers.a(ahci-port.o)
 *fill*         0xffffffff80496ab8        0x8 
 .bss           0xffffffff80496ac0      0x180 /home/asergey/runtime-EclipseApplication/x86dev/lib/libdrivers.a(dis_x86_64.o)
 .bss           0xffffffff80496c40      0x240 /home/asergey/runtime-EclipseApplication/x86dev/lib/libdrivers.a(kdb_x86_64.o)
 .bss           0xffffffff80496e80     0x20a0 /home/asergey/runtime-EclipseApplication/x86dev/lib/libdrivers.a(remote.o)
                0xffffffff80496e80                fill_incmplt_ctx
 .bss           0xffffffff80498f20        0x0 /home/asergey/runtime-EclipseApplication/x86dev/lib/libdrivers.a(tty_io.o)
 .bss           0xffffffff80498f20        0x4 /home/asergey/runtime-EclipseApplication/x86dev/lib/libdrivers.a(usbdi.o)
 *fill*         0xffffffff80498f24        0xc 
 .bss           0xffffffff80498f30       0x38 /home/asergey/runtime-EclipseApplication/x86dev/lib/libdrivers.a(usb_lynxos.o)
                0xffffffff80498f30                nullcf_locnames
                0xffffffff80498f38                lynxos_ident_list
                0xffffffff80498f40                lynxos_ident_freelist
                0xffffffff80498f50                alldevs
 .bss           0xffffffff80498f68       0x10 /home/asergey/runtime-EclipseApplication/x86dev/lib/libdrivers.a(usb_subr.o)
                0xffffffff80498f68                usb_cookie_no
 *fill*         0xffffffff80498f78        0x8 
 .bss           0xffffffff80498f80       0x20 /home/asergey/runtime-EclipseApplication/x86dev/lib/libdrivers.a(usb_callouts.o)
                0xffffffff80498f80                usb_callout_thread_id
 .bss           0xffffffff80498fa0        0x4 /home/asergey/runtime-EclipseApplication/x86dev/lib/libdrivers.a(ohci_drvr.o)
 .bss           0xffffffff80498fa4        0x0 /home/asergey/runtime-EclipseApplication/x86dev/lib/libdrivers.a(ohci.o)
 .bss           0xffffffff80498fa4        0x4 /home/asergey/runtime-EclipseApplication/x86dev/lib/libdrivers.a(ohci_map.o)
 .bss           0xffffffff80498fa8        0x4 /home/asergey/runtime-EclipseApplication/x86dev/lib/libdrivers.a(ehci_map.o)
 .bss           0xffffffff80498fac        0x4 /home/asergey/runtime-EclipseApplication/x86dev/lib/libdrivers.a(ehci.o)
                0xffffffff80498fac                ehcidebug
 .bss           0xffffffff80498fb0        0x4 /home/asergey/runtime-EclipseApplication/x86dev/lib/libdrivers.a(xhci_map.o)
 .bss           0xffffffff80498fb4        0x0 /home/asergey/runtime-EclipseApplication/x86dev/lib/libdrivers.a(xhci.o)
 *fill*         0xffffffff80498fb4        0x4 
 .bss           0xffffffff80498fb8        0xc /home/asergey/runtime-EclipseApplication/x86dev/lib/libdrivers.a(uhub.o)
                0xffffffff80498fb8                uhub_statics_ptr
                0xffffffff80498fc0                uhubdebug
 .bss           0xffffffff80498fc4        0x0 /home/asergey/runtime-EclipseApplication/x86dev/lib/libdrivers.a(uhidev.o)
 .bss           0xffffffff80498fc4        0xc /home/asergey/runtime-EclipseApplication/x86dev/lib/libdrivers.a(ukbd.o)
                0xffffffff80498fc4                warned
                0xffffffff80498fc8                pollenter
                0xffffffff80498fcc                ukbd_is_console
 .bss           0xffffffff80498fd0        0x0 /home/asergey/runtime-EclipseApplication/x86dev/lib/libdrivers.a(ukbdmap.o)
 .bss           0xffffffff80498fd0        0x0 /home/asergey/runtime-EclipseApplication/x86dev/lib/libdrivers.a(ums.o)
 .bss           0xffffffff80498fd0        0x0 /home/asergey/runtime-EclipseApplication/x86dev/lib/libdrivers.a(umass.o)
 .bss           0xffffffff80498fd0        0x0 /home/asergey/runtime-EclipseApplication/x86dev/lib/libdrivers.a(umass_quirks.o)
 .bss           0xffffffff80498fd0        0x0 /home/asergey/runtime-EclipseApplication/x86dev/lib/libdrivers.a(virtqueue.o)
 .bss           0xffffffff80498fd0        0x0 /home/asergey/runtime-EclipseApplication/x86dev/lib/libdrivers.a(virtio_pci.o)
 .bss           0xffffffff80498fd0        0x0 /home/asergey/runtime-EclipseApplication/x86dev/lib/libdrivers.a(if_igc.o)
 .bss           0xffffffff80498fd0        0x0 /home/asergey/runtime-EclipseApplication/x86dev/lib/libdrivers.a(igc_i225.o)
 .bss           0xffffffff80498fd0        0x0 /home/asergey/runtime-EclipseApplication/x86dev/lib/libdrivers.a(igc_mac.o)
 .bss           0xffffffff80498fd0        0x0 /home/asergey/runtime-EclipseApplication/x86dev/lib/libdrivers.a(igc_nvm.o)
 .bss           0xffffffff80498fd0        0x0 /home/asergey/runtime-EclipseApplication/x86dev/lib/libdrivers.a(igc_phy.o)
 .bss           0xffffffff80498fd0        0x0 /home/asergey/runtime-EclipseApplication/x86dev/lib/libdrivers.a(lfatfs_blk.o)
 .bss           0xffffffff80498fd0        0x0 /home/asergey/runtime-EclipseApplication/x86dev/lib/libdrivers.a(lfatfs_dent.o)
 .bss           0xffffffff80498fd0        0x0 /home/asergey/runtime-EclipseApplication/x86dev/lib/libdrivers.a(lfatfs_dir.o)
 .bss           0xffffffff80498fd0        0x0 /home/asergey/runtime-EclipseApplication/x86dev/lib/libdrivers.a(lfatfs_inode.o)
 .bss           0xffffffff80498fd0        0x0 /home/asergey/runtime-EclipseApplication/x86dev/lib/libdrivers.a(lfatfs_mnt.o)
 .bss           0xffffffff80498fd0        0x0 /home/asergey/runtime-EclipseApplication/x86dev/lib/libdrivers.a(lfat_sup.o)
 .bss           0xffffffff80498fd0       0x20 /home/asergey/runtime-EclipseApplication/x86dev/lib/libdrivers.a(msdosfs_conv.o)
                0xffffffff80498fd0                lastseconds
                0xffffffff80498fd8                lastdosdate
                0xffffffff80498fda                lastdtime
                0xffffffff80498fdc                lastddate
                0xffffffff80498fe0                lastday
                0xffffffff80498fe8                lasttime
 .bss           0xffffffff80498ff0       0x10 /home/asergey/runtime-EclipseApplication/x86dev/lib/libdrivers.a(msdosfs_denode.o)
                0xffffffff80498ff0                msdosfs_ihash_slock
                0xffffffff80498ff4                dehash
                0xffffffff80498ff8                dehashtbl
 .bss           0xffffffff80499000       0x7c /home/asergey/runtime-EclipseApplication/x86dev/lib/libdrivers.a(msdosfs_fat.o)
                0xffffffff80499000                fc_largedistance
                0xffffffff80499020                fc_lmdistance
                0xffffffff80499070                fc_bmapcalls
                0xffffffff80499074                fc_lfcempty
                0xffffffff80499078                fc_fileextends
 .bss           0xffffffff8049907c        0x0 /home/asergey/runtime-EclipseApplication/x86dev/lib/libdrivers.a(msdosfs_lookup.o)
 .bss           0xffffffff8049907c        0x0 /home/asergey/runtime-EclipseApplication/x86dev/lib/libdrivers.a(if_ix.o)
 .bss           0xffffffff8049907c        0x0 /home/asergey/runtime-EclipseApplication/x86dev/lib/libdrivers.a(if_sriov.o)
 .bss           0xffffffff8049907c        0x0 /home/asergey/runtime-EclipseApplication/x86dev/lib/libdrivers.a(ixgbe_api.o)
 .bss           0xffffffff8049907c        0x0 /home/asergey/runtime-EclipseApplication/x86dev/lib/libdrivers.a(ixgbe_common.o)
 .bss           0xffffffff8049907c        0x0 /home/asergey/runtime-EclipseApplication/x86dev/lib/libdrivers.a(ixgbepf_mbx.o)
 .bss           0xffffffff8049907c        0x0 /home/asergey/runtime-EclipseApplication/x86dev/lib/libdrivers.a(ixgbe_x540.o)
 .bss           0xffffffff8049907c        0x0 /home/asergey/runtime-EclipseApplication/x86dev/lib/libdrivers.a(ixgbe_x550.o)
 .bss           0xffffffff8049907c        0x0 /home/asergey/runtime-EclipseApplication/x86dev/lib/libdrivers.a(ixgbepf_vf_common.o)
 .bss           0xffffffff8049907c        0x0 /home/asergey/runtime-EclipseApplication/x86dev/lib/libdrivers.a(lcsthreads.o)
 *fill*         0xffffffff8049907c        0x4 
 .bss           0xffffffff80499080       0x64 /home/asergey/runtime-EclipseApplication/x86dev/lib/libdrivers.a(kbddrvr.o)
                0xffffffff80499080                ukbd_enter_skdb
                0xffffffff804990a0                ukbd_list
                0xffffffff804990e0                num_ukbd
 *fill*         0xffffffff804990e4       0x1c 
 .bss           0xffffffff80499100       0x84 /home/asergey/runtime-EclipseApplication/x86dev/lib/libdrivers.a(mousedrvr.o)
 .bss           0xffffffff80499184        0x0 /home/asergey/runtime-EclipseApplication/x86dev/lib/libdrivers.a(usbdi_util.o)
 *fill*         0xffffffff80499184        0x4 
 .bss           0xffffffff80499188       0x20 /home/asergey/runtime-EclipseApplication/x86dev/lib/libdrivers.a(usb_mem.o)
                0xffffffff80499188                usb_blk_lock
 .bss           0xffffffff804991a8        0x0 /home/asergey/runtime-EclipseApplication/x86dev/lib/libdrivers.a(usb_quirks.o)
 .bss           0xffffffff804991a8        0x0 /home/asergey/runtime-EclipseApplication/x86dev/lib/libdrivers.a(usbroothub.o)
 .bss           0xffffffff804991a8        0x0 /home/asergey/runtime-EclipseApplication/x86dev/lib/libdrivers.a(hid.o)
 .bss           0xffffffff804991a8        0x0 /home/asergey/runtime-EclipseApplication/x86dev/lib/libdrivers.a(igc_api.o)
 .bss           0xffffffff804991a8        0x0 /home/asergey/runtime-EclipseApplication/x86dev/lib/libdrivers.a(igc_base.o)
 .bss           0xffffffff804991a8        0x0 /home/asergey/runtime-EclipseApplication/x86dev/lib/libdrivers.a(ixgbe_phy.o)
 .bss           0xffffffff804991a8        0x0 /home/asergey/runtime-EclipseApplication/x86dev/lib/libdrivers_rsc.a(nulldrvr.o)
 .bss           0xffffffff804991a8        0x4 /home/asergey/runtime-EclipseApplication/x86dev/lib/libdrivers_rsc.a(rddrvr.o)
 *fill*         0xffffffff804991ac       0x14 
 .bss           0xffffffff804991c0      0x180 /home/asergey/runtime-EclipseApplication/x86dev/lib/libdrivers_rsc.a(rdinfo.o)
                0xffffffff804991c0                rdinfo1
 .bss           0xffffffff80499340        0x0 /home/asergey/runtime-EclipseApplication/x86dev/lib/libdrivers_rsc.a(vmosdrvr.o)
 .bss           0xffffffff80499340        0x0 /home/asergey/runtime-EclipseApplication/x86dev/lib/libdrivers_rsc.a(arinc653drvr.o)
 .bss           0xffffffff80499340        0x0 /home/asergey/runtime-EclipseApplication/x86dev/lib/libdrivers_rsc.a(arinc653info.o)
 .bss           0xffffffff80499340        0x0 /home/asergey/runtime-EclipseApplication/x86dev/lib/libdrivers_rsc.a(arinc653drvr_inter.o)
 .bss           0xffffffff80499340        0x8 /home/asergey/runtime-EclipseApplication/x86dev/lib/liblcs.a(lldinit.o)
 .bss           0xffffffff80499348        0x4 /home/asergey/runtime-EclipseApplication/x86dev/lib/liblcs.a(llinput.o)
 .bss           0xffffffff8049934c        0x0 /home/asergey/runtime-EclipseApplication/x86dev/lib/liblcs.a(lld_pfifo_ts.o)
 .bss           0xffffffff8049934c        0x0 /home/asergey/runtime-EclipseApplication/x86dev/lib/liblcs.a(arminit.o)
 .bss           0xffffffff8049934c        0x0 /home/asergey/runtime-EclipseApplication/x86dev/lib/liblcs.a(arp.o)
 .bss           0xffffffff8049934c        0x0 /home/asergey/runtime-EclipseApplication/x86dev/lib/liblcs.a(udp_init.o)
 .bss           0xffffffff8049934c        0x0 /home/asergey/runtime-EclipseApplication/x86dev/lib/liblcs.a(icmp6_ini.o)
 .bss           0xffffffff8049934c        0x0 /home/asergey/runtime-EclipseApplication/x86dev/lib/liblcs.a(in6_ifattach.o)
 .bss           0xffffffff8049934c        0x0 /home/asergey/runtime-EclipseApplication/x86dev/lib/liblcs.a(in6_pcb.o)
 .bss           0xffffffff8049934c        0x0 /home/asergey/runtime-EclipseApplication/x86dev/lib/liblcs.a(in6_route.o)
 .bss           0xffffffff8049934c        0x0 /home/asergey/runtime-EclipseApplication/x86dev/lib/liblcs.a(ip6_ctlo.o)
 .bss           0xffffffff8049934c        0x0 /home/asergey/runtime-EclipseApplication/x86dev/lib/liblcs.a(ip6_init.o)
 .bss           0xffffffff8049934c        0x0 /home/asergey/runtime-EclipseApplication/x86dev/lib/liblcs.a(ip6_input.o)
 .bss           0xffffffff8049934c        0x0 /home/asergey/runtime-EclipseApplication/x86dev/lib/liblcs.a(ip6_reassem.o)
 .bss           0xffffffff8049934c        0x0 /home/asergey/runtime-EclipseApplication/x86dev/lib/liblcs.a(ip_input.o)
 .bss           0xffffffff8049934c        0x0 /home/asergey/runtime-EclipseApplication/x86dev/lib/liblcs.a(in_util.o)
 .bss           0xffffffff8049934c        0x0 /home/asergey/runtime-EclipseApplication/x86dev/lib/liblcs.a(ip_reassem.o)
 .bss           0xffffffff8049934c        0x0 /home/asergey/runtime-EclipseApplication/x86dev/lib/liblcs.a(ip_init.o)
 .bss           0xffffffff8049934c        0x0 /home/asergey/runtime-EclipseApplication/x86dev/lib/liblcs.a(icmp_in.o)
 .bss           0xffffffff8049934c        0x0 /home/asergey/runtime-EclipseApplication/x86dev/lib/liblcs.a(icmp_ini.o)
 *fill*         0xffffffff8049934c        0x4 
 .bss           0xffffffff80499350       0x10 /home/asergey/runtime-EclipseApplication/x86dev/lib/liblcs.a(tcp_inpt.o)
                0xffffffff80499350                tcp_ack_on_push
                0xffffffff80499358                tcp_last_inpcb
 .bss           0xffffffff80499360        0x0 /home/asergey/runtime-EclipseApplication/x86dev/lib/liblcs.a(tcp_out.o)
 .bss           0xffffffff80499360        0x0 /home/asergey/runtime-EclipseApplication/x86dev/lib/liblcs.a(tcp_time.o)
 .bss           0xffffffff80499360       0x2c /home/asergey/runtime-EclipseApplication/x86dev/lib/liblcs.a(tcp_init.o)
                0xffffffff80499360                TcpDefTimerCfg
 .bss           0xffffffff8049938c        0x0 /home/asergey/runtime-EclipseApplication/x86dev/lib/liblcs.a(tcp_pcb.o)
 .bss           0xffffffff8049938c        0x0 /home/asergey/runtime-EclipseApplication/x86dev/lib/liblcs.a(tcp_util.o)
 .bss           0xffffffff8049938c        0x8 /home/asergey/runtime-EclipseApplication/x86dev/lib/liblcs.a(igmp.o)
 .bss           0xffffffff80499394        0x0 /home/asergey/runtime-EclipseApplication/x86dev/lib/liblcs.a(lcs_nux.o)
 .bss           0xffffffff80499394        0x0 /home/asergey/runtime-EclipseApplication/x86dev/lib/liblcs.a(ioctl.o)
 .bss           0xffffffff80499394        0x0 /home/asergey/runtime-EclipseApplication/x86dev/lib/liblcs.a(select.o)
 .bss           0xffffffff80499394        0x4 /home/asergey/runtime-EclipseApplication/x86dev/lib/liblcs.a(sock.o)
 .bss           0xffffffff80499398        0x0 /home/asergey/runtime-EclipseApplication/x86dev/lib/liblcs.a(sock_raw.o)
 .bss           0xffffffff80499398        0x0 /home/asergey/runtime-EclipseApplication/x86dev/lib/liblcs.a(sock_udp.o)
 .bss           0xffffffff80499398        0x0 /home/asergey/runtime-EclipseApplication/x86dev/lib/liblcs.a(sock_tcp.o)
 .bss           0xffffffff80499398        0x0 /home/asergey/runtime-EclipseApplication/x86dev/lib/liblcs.a(tmrchk.o)
 .bss           0xffffffff80499398        0x0 /home/asergey/runtime-EclipseApplication/x86dev/lib/liblcs.a(tmrinit.o)
 .bss           0xffffffff80499398        0x0 /home/asergey/runtime-EclipseApplication/x86dev/lib/liblcs.a(tmrscall.o)
 .bss           0xffffffff80499398        0x0 /home/asergey/runtime-EclipseApplication/x86dev/lib/liblcs.a(tmrset.o)
 .bss           0xffffffff80499398        0x0 /home/asergey/runtime-EclipseApplication/x86dev/lib/liblcs.a(tmrsrec.o)
 .bss           0xffffffff80499398        0x0 /home/asergey/runtime-EclipseApplication/x86dev/lib/liblcs.a(tmrstop.o)
 .bss           0xffffffff80499398        0x0 /home/asergey/runtime-EclipseApplication/x86dev/lib/liblcs.a(iorbcopy.o)
 .bss           0xffffffff80499398        0x0 /home/asergey/runtime-EclipseApplication/x86dev/lib/liblcs.a(iorbfree.o)
 .bss           0xffffffff80499398        0x0 /home/asergey/runtime-EclipseApplication/x86dev/lib/liblcs.a(bm_init.o)
 .bss           0xffffffff80499398        0x0 /home/asergey/runtime-EclipseApplication/x86dev/lib/liblcs.a(iorbdup.o)
 .bss           0xffffffff80499398        0x0 /home/asergey/runtime-EclipseApplication/x86dev/lib/liblcs.a(iorbget.o)
 .bss           0xffffffff80499398        0x0 /home/asergey/runtime-EclipseApplication/x86dev/lib/liblcs.a(iorbunlk.o)
 .bss           0xffffffff80499398        0x0 /home/asergey/runtime-EclipseApplication/x86dev/lib/liblcs.a(iorbcs.o)
 .bss           0xffffffff80499398        0x0 /home/asergey/runtime-EclipseApplication/x86dev/lib/liblcs.a(qsort.o)
 .bss           0xffffffff80499398        0x0 /home/asergey/runtime-EclipseApplication/x86dev/lib/liblcs.a(cksum.o)
 .bss           0xffffffff80499398        0x0 /home/asergey/runtime-EclipseApplication/x86dev/lib/liblcs.a(clntport.o)
 .bss           0xffffffff80499398        0x0 /home/asergey/runtime-EclipseApplication/x86dev/lib/liblcs.a(hm.o)
 .bss           0xffffffff80499398        0x0 /home/asergey/runtime-EclipseApplication/x86dev/lib/liblcs.a(lcsprio.o)
 .bss           0xffffffff80499398        0x0 /home/asergey/runtime-EclipseApplication/x86dev/lib/liblcs.a(uio_move.o)
 .bss           0xffffffff80499398        0x0 /home/asergey/runtime-EclipseApplication/x86dev/lib/liblcs.a(psbdrop.o)
 .bss           0xffffffff80499398        0x0 /home/asergey/runtime-EclipseApplication/x86dev/lib/liblcs.a(psbget.o)
 .bss           0xffffffff80499398        0x0 /home/asergey/runtime-EclipseApplication/x86dev/lib/liblcs.a(psbscap.o)
 .bss           0xffffffff80499398        0x0 /home/asergey/runtime-EclipseApplication/x86dev/lib/liblcs.a(psbadd.o)
 .bss           0xffffffff80499398        0x0 /home/asergey/runtime-EclipseApplication/x86dev/lib/liblcs.a(psbspace.o)
 .bss           0xffffffff80499398        0x0 /home/asergey/runtime-EclipseApplication/x86dev/lib/liblcs.a(psbcount.o)
 .bss           0xffffffff80499398        0x0 /home/asergey/runtime-EclipseApplication/x86dev/lib/liblcs.a(psbgcap.o)
 .bss           0xffffffff80499398        0x0 /home/asergey/runtime-EclipseApplication/x86dev/lib/liblcs.a(psbpeek.o)
 .bss           0xffffffff80499398        0x0 /home/asergey/runtime-EclipseApplication/x86dev/lib/liblcs.a(llmcast.o)
 .bss           0xffffffff80499398        0x0 /home/asergey/runtime-EclipseApplication/x86dev/lib/liblcs.a(lloutput.o)
 .bss           0xffffffff80499398        0x0 /home/asergey/runtime-EclipseApplication/x86dev/lib/liblcs.a(arpreq.o)
 .bss           0xffffffff80499398        0x0 /home/asergey/runtime-EclipseApplication/x86dev/lib/liblcs.a(arpsrch.o)
 .bss           0xffffffff80499398        0x0 /home/asergey/runtime-EclipseApplication/x86dev/lib/liblcs.a(udp_atch.o)
 .bss           0xffffffff80499398        0x0 /home/asergey/runtime-EclipseApplication/x86dev/lib/liblcs.a(udp_bind.o)
 .bss           0xffffffff80499398        0x0 /home/asergey/runtime-EclipseApplication/x86dev/lib/liblcs.a(udp_conn.o)
 .bss           0xffffffff80499398        0x0 /home/asergey/runtime-EclipseApplication/x86dev/lib/liblcs.a(udp_dtch.o)
 .bss           0xffffffff80499398        0x0 /home/asergey/runtime-EclipseApplication/x86dev/lib/liblcs.a(udp_inpt.o)
 .bss           0xffffffff80499398        0x0 /home/asergey/runtime-EclipseApplication/x86dev/lib/liblcs.a(udp_pcb.o)
 .bss           0xffffffff80499398        0x0 /home/asergey/runtime-EclipseApplication/x86dev/lib/liblcs.a(udp_peer.o)
 .bss           0xffffffff80499398        0x0 /home/asergey/runtime-EclipseApplication/x86dev/lib/liblcs.a(udp_sock.o)
 .bss           0xffffffff80499398        0x0 /home/asergey/runtime-EclipseApplication/x86dev/lib/liblcs.a(udp6_input.o)
 .bss           0xffffffff80499398        0x0 /home/asergey/runtime-EclipseApplication/x86dev/lib/liblcs.a(udp6_out.o)
 .bss           0xffffffff80499398        0x0 /home/asergey/runtime-EclipseApplication/x86dev/lib/liblcs.a(udp_disc.o)
 .bss           0xffffffff80499398        0x0 /home/asergey/runtime-EclipseApplication/x86dev/lib/liblcs.a(udp_out.o)
 .bss           0xffffffff80499398        0x0 /home/asergey/runtime-EclipseApplication/x86dev/lib/liblcs.a(udp_util.o)
 .bss           0xffffffff80499398        0x0 /home/asergey/runtime-EclipseApplication/x86dev/lib/liblcs.a(icmp6_in.o)
 .bss           0xffffffff80499398        0x0 /home/asergey/runtime-EclipseApplication/x86dev/lib/liblcs.a(icmp6_error.o)
 .bss           0xffffffff80499398        0x0 /home/asergey/runtime-EclipseApplication/x86dev/lib/liblcs.a(in6_pbind.o)
 .bss           0xffffffff80499398        0x0 /home/asergey/runtime-EclipseApplication/x86dev/lib/liblcs.a(in6_pcon.o)
 .bss           0xffffffff80499398        0x0 /home/asergey/runtime-EclipseApplication/x86dev/lib/liblcs.a(in6_plook.o)
 .bss           0xffffffff80499398        0x0 /home/asergey/runtime-EclipseApplication/x86dev/lib/liblcs.a(in6_util.o)
 .bss           0xffffffff80499398        0x0 /home/asergey/runtime-EclipseApplication/x86dev/lib/liblcs.a(ip6_outpt.o)
 .bss           0xffffffff80499398        0x0 /home/asergey/runtime-EclipseApplication/x86dev/lib/liblcs.a(in_pcon.o)
 .bss           0xffffffff80499398        0x0 /home/asergey/runtime-EclipseApplication/x86dev/lib/liblcs.a(in_route.o)
 .bss           0xffffffff80499398        0x0 /home/asergey/runtime-EclipseApplication/x86dev/lib/liblcs.a(ip_ctlo.o)
 .bss           0xffffffff80499398        0x0 /home/asergey/runtime-EclipseApplication/x86dev/lib/liblcs.a(ip_outpt.o)
 .bss           0xffffffff80499398        0x0 /home/asergey/runtime-EclipseApplication/x86dev/lib/liblcs.a(tcp_atch.o)
 .bss           0xffffffff80499398        0x0 /home/asergey/runtime-EclipseApplication/x86dev/lib/liblcs.a(tcp_clse.o)
 .bss           0xffffffff80499398        0x0 /home/asergey/runtime-EclipseApplication/x86dev/lib/liblcs.a(tcp_disc.o)
 .bss           0xffffffff80499398        0x0 /home/asergey/runtime-EclipseApplication/x86dev/lib/liblcs.a(tcp_bind.o)
 .bss           0xffffffff80499398        0x0 /home/asergey/runtime-EclipseApplication/x86dev/lib/liblcs.a(tcp_conn.o)
 .bss           0xffffffff80499398        0x0 /home/asergey/runtime-EclipseApplication/x86dev/lib/liblcs.a(tcp_lstn.o)
 *fill*         0xffffffff80499398        0x8 
 .bss           0xffffffff804993a0       0x38 /home/asergey/runtime-EclipseApplication/x86dev/lib/libnfs_client.a(nfs_file_open.o)
                0xffffffff804993a0                nfs_cache_sync_blocks
                0xffffffff804993a8                nfstemp_hostid
                0xffffffff804993ac                nfstemp_time
 .bss           0xffffffff804993d8        0x0 /home/asergey/runtime-EclipseApplication/x86dev/lib/libnfs_client.a(nfsinfo.o)
 *fill*         0xffffffff804993d8        0x8 
 .bss           0xffffffff804993e0      0x140 /home/asergey/runtime-EclipseApplication/x86dev/lib/libnfs_client.a(nfs_inode.o)
                0xffffffff804993e0                nfshead_tsize
                0xffffffff804993e4                nfsnode_tsize
                0xffffffff804993e8                nfsnodeid_2table
                0xffffffff804993f0                nfsnodeid_1table
                0xffffffff804993f8                nfsnodeid_table
                0xffffffff80499400                nfshead_table
                0xffffffff80499408                nfsnode_table
                0xffffffff80499410                nfshead_mfree
                0xffffffff80499418                nfshead_free
                0xffffffff80499420                nfsheads
 .bss           0xffffffff80499520      0x368 /home/asergey/runtime-EclipseApplication/x86dev/lib/libnfs_client.a(unfs_driver.o)
                0xffffffff80499520                nfs_cache_funtbl_ptr
                0xffffffff80499528                nfs_splfs_table
                0xffffffff80499530                nfs_splfs_count
                0xffffffff80499534                nfs_splfs_maxcnt
                0xffffffff80499538                nfs_wrsize
                0xffffffff8049953c                nfs_rdsize
                0xffffffff80499540                unfs_open_prio
                0xffffffff80499544                unfs_iotask_prio
                0xffffffff80499560                unfs_priotrack
                0xffffffff80499784                unfs_selsem
                0xffffffff80499788                unfs_reqcnt
                0xffffffff8049978c                nnfsmounts
                0xffffffff80499790                nnfsnodes
                0xffffffff804997a0                nfs_client_nwreq_stat
                0xffffffff80499800                nfs_client_stat
                0xffffffff80499848                unfs_opntbl
                0xffffffff80499850                unfs_maxusecnt
                0xffffffff80499854                unfs_usecnt
                0xffffffff80499858                unfs_reqno
                0xffffffff80499860                unfsreq_q
                0xffffffff80499870                unfs_freeport_sem
                0xffffffff80499878                unfs_freeport_list
                0xffffffff80499880                unfs_port
 .bss           0xffffffff80499888        0xc /home/asergey/runtime-EclipseApplication/x86dev/lib/libnfs_client.a(nfs_mount.o)
                0xffffffff80499888                nfs_mount_opt_tbl
                0xffffffff80499890                nfs_cache_configured
 .bss           0xffffffff80499894        0x0 /home/asergey/runtime-EclipseApplication/x86dev/lib/libptrace_x86_64.a(ptrace_ctx.o)
 .bss           0xffffffff80499894        0x0 /home/asergey/runtime-EclipseApplication/x86dev/lib/libptrace_x86_64.a(ptrace_dbg_ctx.o)
 .bss           0xffffffff80499894        0x0 /home/asergey/runtime-EclipseApplication/x86dev/lib/libptrace.a(ptrace.o)
 .bss           0xffffffff80499894        0x0 /home/asergey/runtime-EclipseApplication/x86dev/lib/libptrace.a(ptrace_child.o)
 .bss           0xffffffff80499894        0x0 /home/asergey/runtime-EclipseApplication/x86dev/lib/libptrace.a(ptrace_fctx.o)
 .bss           0xffffffff80499894        0x0 /home/asergey/runtime-EclipseApplication/x86dev/lib/libptrace.a(ptrace_kill.o)
 .bss           0xffffffff80499894        0x0 /home/asergey/runtime-EclipseApplication/x86dev/lib/libptrace.a(ptrace_tde.o)
 .bss           0xffffffff80499894        0x4 /home/asergey/runtime-EclipseApplication/x86dev/lib/libdrm.a(drm.o)
 *fill*         0xffffffff80499898        0x8 
 .bss           0xffffffff804998a0     0x1000 /home/asergey/runtime-EclipseApplication/x86dev/lib/libdrm.a(pcibus.o)
 .bss           0xffffffff8049a8a0        0x0 /home/asergey/runtime-EclipseApplication/x86dev/lib/libdrm.a(sysbus.o)
 .bss           0xffffffff8049a8a0       0x40 /home/asergey/runtime-EclipseApplication/x86dev/lib/libdrm.a(drm_sysctl.o)
                0xffffffff8049a8a0                sysctl__hw_drm_cmd_children
                0xffffffff8049a8a8                sysctl__hw_drm_setnode_children
                0xffffffff8049a8b0                sysctl__hw_drm_getnode_children
                0xffffffff8049a8b8                sysctl__hw_drm_getparent_children
                0xffffffff8049a8c0                sysctl__hw_drm_getsibling_children
                0xffffffff8049a8c8                sysctl__hw_drm_getchild_children
                0xffffffff8049a8d0                sysctl__hw_drm_getroot_children
                0xffffffff8049a8d8                sysctl__hw_drm_children
 .bss           0xffffffff8049a8e0        0x8 /home/asergey/runtime-EclipseApplication/x86dev/lib/libdrm.a(pci_sysctl.o)
                0xffffffff8049a8e0                sysctl__hw_drm_pci_children
 .bss           0xffffffff8049a8e8        0x0 /home/asergey/runtime-EclipseApplication/x86dev/lib/libdrm.a(bios_pcialloc.o)
 .bss           0xffffffff8049a8e8        0x0 /home/asergey/runtime-EclipseApplication/x86dev/lib/libkernel.a(bread.o)
 .bss           0xffffffff8049a8e8        0x0 /home/asergey/runtime-EclipseApplication/x86dev/lib/libkernel.a(chread.o)
 .bss           0xffffffff8049a8e8        0x0 /home/asergey/runtime-EclipseApplication/x86dev/lib/libkernel.a(ddread.o)
 .bss           0xffffffff8049a8e8        0x0 /home/asergey/runtime-EclipseApplication/x86dev/lib/libkernel.a(deliver.o)
 .bss           0xffffffff8049a8e8        0x0 /home/asergey/runtime-EclipseApplication/x86dev/lib/libkernel.a(dfread.o)
 .bss           0xffffffff8049a8e8       0x10 /home/asergey/runtime-EclipseApplication/x86dev/lib/libkernel.a(environ.o)
 .bss           0xffffffff8049a8f8       0x28 /home/asergey/runtime-EclipseApplication/x86dev/lib/libkernel.a(exception.o)
                0xffffffff8049a8f8                skdb_entry_for_panic
                0xffffffff8049a900                Ecp
 .bss           0xffffffff8049a920        0x4 /home/asergey/runtime-EclipseApplication/x86dev/lib/libkernel.a(exit.o)
 .bss           0xffffffff8049a924        0x0 /home/asergey/runtime-EclipseApplication/x86dev/lib/libkernel.a(fast_ada.o)
 .bss           0xffffffff8049a924        0x0 /home/asergey/runtime-EclipseApplication/x86dev/lib/libkernel.a(file_open.o)
 *fill*         0xffffffff8049a924        0x4 
 .bss           0xffffffff8049a928        0x8 /home/asergey/runtime-EclipseApplication/x86dev/lib/libkernel.a(fpcontext.o)
                0xffffffff8049a928                fpcontext
 .bss           0xffffffff8049a930        0x0 /home/asergey/runtime-EclipseApplication/x86dev/lib/libkernel.a(get_freefile.o)
 *fill*         0xffffffff8049a930       0x10 
 .bss           0xffffffff8049a940       0x4c /home/asergey/runtime-EclipseApplication/x86dev/lib/libkernel.a(getmem.o)
                0xffffffff8049a940                physmap_table
                0xffffffff8049a960                osmblock
                0xffffffff8049a980                mat
                0xffffffff8049a988                realpages
 .bss           0xffffffff8049a98c        0x0 /home/asergey/runtime-EclipseApplication/x86dev/lib/libkernel.a(getrusage.o)
 *fill*         0xffffffff8049a98c        0x4 
 .bss           0xffffffff8049a990        0x8 /home/asergey/runtime-EclipseApplication/x86dev/lib/libkernel.a(hm_except.o)
                0xffffffff8049a990                hm_ex_buf
 *fill*         0xffffffff8049a998        0x8 
 .bss           0xffffffff8049a9a0     0x3dc0 /home/asergey/runtime-EclipseApplication/x86dev/lib/libkernel.a(hwmarks.o)
                0xffffffff8049a9a0                hwm
 .bss           0xffffffff8049e760       0x18 /home/asergey/runtime-EclipseApplication/x86dev/lib/libkernel.a(initdrivers.o)
                0xffffffff8049e760                bdev_free
                0xffffffff8049e768                cdev_free
                0xffffffff8049e770                driver_free
 .bss           0xffffffff8049e778        0x0 /home/asergey/runtime-EclipseApplication/x86dev/lib/libkernel.a(inode.o)
 *fill*         0xffffffff8049e778        0x8 
 .bss           0xffffffff8049e780       0x40 /home/asergey/runtime-EclipseApplication/x86dev/lib/libkernel.a(ioint.o)
 .bss           0xffffffff8049e7c0       0x18 /home/asergey/runtime-EclipseApplication/x86dev/lib/libkernel.a(kern_syms.o)
 .bss           0xffffffff8049e7d8        0x8 /home/asergey/runtime-EclipseApplication/x86dev/lib/libkernel.a(kprintf.o)
                0xffffffff8049e7d8                skdb_fvec
 .bss           0xffffffff8049e7e0       0x40 /home/asergey/runtime-EclipseApplication/x86dev/lib/libkernel.a(globswap.o)
 .bss           0xffffffff8049e820       0x10 /home/asergey/runtime-EclipseApplication/x86dev/lib/libkernel.a(lockf.o)
                0xffffffff8049e820                nfs_lockf_close_p
                0xffffffff8049e828                nfs_lockf_p
 .bss           0xffffffff8049e830        0x0 /home/asergey/runtime-EclipseApplication/x86dev/lib/libkernel.a(lynxfs.o)
 *fill*         0xffffffff8049e830       0x10 
 .bss           0xffffffff8049e840      0x4e4 /home/asergey/runtime-EclipseApplication/x86dev/lib/libkernel.a(main.o)
                0xffffffff8049e840                skdb_entry_exit
                0xffffffff8049e848                skdb_entry_dr_uninstall
                0xffffffff8049e850                skdb_entry_dr_install
                0xffffffff8049e858                skdb_entry_from_trap
                0xffffffff8049e860                skdb_entry_from_irq
                0xffffffff8049e868                stddbg
                0xffffffff8049e870                Sram_Size
                0xffffffff8049e878                Real_osend
                0xffffffff8049e880                Virt_osend
                0xffffffff8049e8a0                quantum
                0xffffffff8049ecc0                vm_stats
                0xffffffff8049ed08                st_table
                0xffffffff8049ed10                currtptr
                0xffffffff8049ed18                currpptr
                0xffffffff8049ed20                currpid
 .bss           0xffffffff8049ed24        0x0 /home/asergey/runtime-EclipseApplication/x86dev/lib/libkernel.a(map_kernel_am.o)
 .bss           0xffffffff8049ed24        0x0 /home/asergey/runtime-EclipseApplication/x86dev/lib/libkernel.a(mem_map.o)
 .bss           0xffffffff8049ed24        0x0 /home/asergey/runtime-EclipseApplication/x86dev/lib/libkernel.a(name_server.o)
 .bss           0xffffffff8049ed24        0x0 /home/asergey/runtime-EclipseApplication/x86dev/lib/libkernel.a(nux.o)
 .bss           0xffffffff8049ed24        0x2 /home/asergey/runtime-EclipseApplication/x86dev/lib/libkernel.a(osm.o)
                0xffffffff8049ed24                __ctxsw_pending
                0xffffffff8049ed25                vm_switch_pending
 .bss           0xffffffff8049ed26        0x0 /home/asergey/runtime-EclipseApplication/x86dev/lib/libkernel.a(pagefault.o)
 *fill*         0xffffffff8049ed26        0x2 
 .bss           0xffffffff8049ed28       0x1c /home/asergey/runtime-EclipseApplication/x86dev/lib/libkernel.a(panic.o)
                0xffffffff8049ed28                panicstring
                0xffffffff8049ed30                panic_test_hook
                0xffffffff8049ed38                panic_test_magic
                0xffffffff8049ed3c                reboot_override
                0xffffffff8049ed40                reboot_status
 .bss           0xffffffff8049ed44        0x0 /home/asergey/runtime-EclipseApplication/x86dev/lib/libkernel.a(perm.o)
 .bss           0xffffffff8049ed44        0x0 /home/asergey/runtime-EclipseApplication/x86dev/lib/libkernel.a(pipe.o)
 .bss           0xffffffff8049ed44        0x0 /home/asergey/runtime-EclipseApplication/x86dev/lib/libkernel.a(priot.o)
 *fill*         0xffffffff8049ed44        0x4 
 .bss           0xffffffff8049ed48       0x10 /home/asergey/runtime-EclipseApplication/x86dev/lib/libkernel.a(procinit.o)
 .bss           0xffffffff8049ed58        0x0 /home/asergey/runtime-EclipseApplication/x86dev/lib/libkernel.a(reco.o)
 *fill*         0xffffffff8049ed58        0x8 
 .bss           0xffffffff8049ed60       0x90 /home/asergey/runtime-EclipseApplication/x86dev/lib/libkernel.a(resched.o)
                0xffffffff8049ed60                vm_currtptr
                0xffffffff8049ede0                thread_on
 .bss           0xffffffff8049edf0        0x0 /home/asergey/runtime-EclipseApplication/x86dev/lib/libkernel.a(rtimeset.o)
 .bss           0xffffffff8049edf0        0x0 /home/asergey/runtime-EclipseApplication/x86dev/lib/libkernel.a(sbrk.o)
 .bss           0xffffffff8049edf0        0x0 /home/asergey/runtime-EclipseApplication/x86dev/lib/libkernel.a(setpriority.o)
 .bss           0xffffffff8049edf0        0x0 /home/asergey/runtime-EclipseApplication/x86dev/lib/libkernel.a(setscheduler.o)
 .bss           0xffffffff8049edf0        0x0 /home/asergey/runtime-EclipseApplication/x86dev/lib/libkernel.a(stack.o)
 *fill*         0xffffffff8049edf0       0x10 
 .bss           0xffffffff8049ee00       0x44 /home/asergey/runtime-EclipseApplication/x86dev/lib/libkernel.a(stask.o)
                0xffffffff8049ee00                vmtids
 .bss           0xffffffff8049ee44        0x0 /home/asergey/runtime-EclipseApplication/x86dev/lib/libkernel.a(stopcpu.o)
 .bss           0xffffffff8049ee44        0x4 /home/asergey/runtime-EclipseApplication/x86dev/lib/libkernel.a(swait.o)
 .bss           0xffffffff8049ee48        0x0 /home/asergey/runtime-EclipseApplication/x86dev/lib/libkernel.a(sysbrk.o)
 .bss           0xffffffff8049ee48        0x0 /home/asergey/runtime-EclipseApplication/x86dev/lib/libkernel.a(tde.o)
 .bss           0xffffffff8049ee48        0x0 /home/asergey/runtime-EclipseApplication/x86dev/lib/libkernel.a(threads.o)
 .bss           0xffffffff8049ee48       0x68 /home/asergey/runtime-EclipseApplication/x86dev/lib/libkernel.a(time.o)
                0xffffffff8049ee48                ptimer
                0xffffffff8049ee50                vtimer
                0xffffffff8049ee58                sysclk
                0xffffffff8049ee60                timebase_ticks
                0xffffffff8049ee68                last_adj
                0xffffffff8049ee70                tick_size
                0xffffffff8049ee78                adj_ticks
                0xffffffff8049ee80                nseconds_this_second
                0xffffffff8049ee88                ticks_this_second
                0xffffffff8049ee90                seconds_since_epoch
                0xffffffff8049ee98                ticks_since_boot
 *fill*         0xffffffff8049eeb0       0x10 
 .bss           0xffffffff8049eec0      0x260 /home/asergey/runtime-EclipseApplication/x86dev/lib/libkernel.a(timeout.o)
                0xffffffff8049eec0                touttop
                0xffffffff8049ef40                numtouts
 .bss           0xffffffff8049f120        0x0 /home/asergey/runtime-EclipseApplication/x86dev/lib/libkernel.a(usleep.o)
 .bss           0xffffffff8049f120        0x0 /home/asergey/runtime-EclipseApplication/x86dev/lib/libkernel.a(utils.o)
 .bss           0xffffffff8049f120        0x8 /home/asergey/runtime-EclipseApplication/x86dev/lib/libkernel.a(vfs.o)
 *fill*         0xffffffff8049f128       0x18 
 .bss           0xffffffff8049f140    0x20520 /home/asergey/runtime-EclipseApplication/x86dev/lib/libkernel.a(vmos_rinsert.o)
                0xffffffff8049f140                Num_ready
 .bss           0xffffffff804bf660       0xa9 /home/asergey/runtime-EclipseApplication/x86dev/lib/libkernel.a(vmosschedu.o)
                0xffffffff804bf660                shared_schedule
                0xffffffff804bf664                is_shared_frame
                0xffffffff804bf680                preempt
                0xffffffff804bf6c0                sched_change_action
                0xffffffff804bf6c8                set_sched
                0xffffffff804bf6d0                startup_schedule
                0xffffffff804bf6d8                next_schedule
                0xffffffff804bf6e0                schedule_table
                0xffffffff804bf6e8                active_schedule
                0xffffffff804bf6f0                curr_vm
                0xffffffff804bf6f4                scheduled_vm
                0xffffffff804bf6f8                vm_init_done
 .bss           0xffffffff804bf709        0x0 /home/asergey/runtime-EclipseApplication/x86dev/lib/libkernel.a(execve.o)
 .bss           0xffffffff804bf709        0x0 /home/asergey/runtime-EclipseApplication/x86dev/lib/libkernel.a(fast_sem_open.o)
 *fill*         0xffffffff804bf709       0x17 
 .bss           0xffffffff804bf720      0x224 /home/asergey/runtime-EclipseApplication/x86dev/lib/libkernel.a(fork.o)
                0xffffffff804bf720                vm_proc_list
                0xffffffff804bf8a0                killvm_in_progress
                0xffffffff804bf8e0                vm0_nproc
                0xffffffff804bf900                vmpids
 .bss           0xffffffff804bf944        0x0 /home/asergey/runtime-EclipseApplication/x86dev/lib/libkernel.a(install.o)
 *fill*         0xffffffff804bf944        0xc 
 .bss           0xffffffff804bf950       0x10 /home/asergey/runtime-EclipseApplication/x86dev/lib/libkernel.a(install_elf.o)
 .bss           0xffffffff804bf960        0x0 /home/asergey/runtime-EclipseApplication/x86dev/lib/libkernel.a(init_global_resources.o)
 .bss           0xffffffff804bf960        0x0 /home/asergey/runtime-EclipseApplication/x86dev/lib/libkernel.a(load.o)
 .bss           0xffffffff804bf960        0x0 /home/asergey/runtime-EclipseApplication/x86dev/lib/libkernel.a(load_elf.o)
 .bss           0xffffffff804bf960        0x0 /home/asergey/runtime-EclipseApplication/x86dev/lib/libkernel.a(load_elf64.o)
 .bss           0xffffffff804bf960       0x18 /home/asergey/runtime-EclipseApplication/x86dev/lib/libkernel.a(mempartition.o)
                0xffffffff804bf960                vm0_perlimit
                0xffffffff804bf968                mem_alloc
 .bss           0xffffffff804bf978        0x0 /home/asergey/runtime-EclipseApplication/x86dev/lib/libkernel.a(mmap.o)
 .bss           0xffffffff804bf978        0x0 /home/asergey/runtime-EclipseApplication/x86dev/lib/libkernel.a(pshmem.o)
 .bss           0xffffffff804bf978        0x0 /home/asergey/runtime-EclipseApplication/x86dev/lib/libkernel.a(sm.o)
 .bss           0xffffffff804bf978        0x0 /home/asergey/runtime-EclipseApplication/x86dev/lib/libkernel.a(sc_router.o)
 .bss           0xffffffff804bf978        0x0 /home/asergey/runtime-EclipseApplication/x86dev/lib/libkernel.a(syscall_table.o)
 .bss           0xffffffff804bf978        0x0 /home/asergey/runtime-EclipseApplication/x86dev/lib/libkernel.a(wait.o)
 .bss           0xffffffff804bf978        0x0 /home/asergey/runtime-EclipseApplication/x86dev/lib/libkernel.a(cfread.o)
 *fill*         0xffffffff804bf978        0x8 
 .bss           0xffffffff804bf980      0x120 /home/asergey/runtime-EclipseApplication/x86dev/lib/libkernel.a(cprintf.o)
                0xffffffff804bf980                console_file
 .bss           0xffffffff804bfaa0        0x0 /home/asergey/runtime-EclipseApplication/x86dev/lib/libkernel.a(hwt_bench.o)
 .bss           0xffffffff804bfaa0       0xa0 /home/asergey/runtime-EclipseApplication/x86dev/lib/libkernel.a(kern_mib.o)
                0xffffffff804bfaa0                sysctl__vm_children
                0xffffffff804bfaa8                sysctl__kern_thread_tid_children
                0xffffffff804bfab0                sysctl__kern_thread_children
                0xffffffff804bfab8                sysctl__hw_children
                0xffffffff804bfac0                sysctl__kern_children
                0xffffffff804bfac8                sysctl__sysctl_children
 .bss           0xffffffff804bfb40       0x20 /home/asergey/runtime-EclipseApplication/x86dev/lib/libkernel.a(kern_sysctl.o)
                0xffffffff804bfb40                sysctl__sysctl_oidfmt_children
                0xffffffff804bfb48                sysctl__sysctl_next_children
                0xffffffff804bfb50                sysctl__sysctl_name_children
                0xffffffff804bfb58                sysctl__children
 .bss           0xffffffff804bfb60        0x0 /home/asergey/runtime-EclipseApplication/x86dev/lib/libkernel.a(loadavg.o)
 .bss           0xffffffff804bfb60        0x0 /home/asergey/runtime-EclipseApplication/x86dev/lib/libkernel.a(sysctl_init.o)
 .bss           0xffffffff804bfb60        0x0 /home/asergey/runtime-EclipseApplication/x86dev/lib/libkernel.a(sysinfo.o)
 .bss           0xffffffff804bfb60       0x88 /home/asergey/runtime-EclipseApplication/x86dev/lib/libkernel.a(ttymgr.o)
                0xffffffff804bfb60                pppdisc_io
                0xffffffff804bfbc0                slipdisc_io
 .bss           0xffffffff804bfbe8        0x0 /home/asergey/runtime-EclipseApplication/x86dev/lib/libkernel.a(uninstall.o)
 .bss           0xffffffff804bfbe8        0x0 /home/asergey/runtime-EclipseApplication/x86dev/lib/libkernel.a(utimes.o)
 .bss           0xffffffff804bfbe8        0x0 /home/asergey/runtime-EclipseApplication/x86dev/lib/libkernel.a(globmem.o)
 .bss           0xffffffff804bfbe8        0x4 /home/asergey/runtime-EclipseApplication/x86dev/lib/libkernel.a(clock_impl.o)
                0xffffffff804bfbe8                clock_use_count
 .bss           0xffffffff804bfbec        0x4 /home/asergey/runtime-EclipseApplication/x86dev/lib/libkernel.a(clock_getcpuclockid.o)
                0xffffffff804bfbec                __clock_getcpuclockid_mode
 .bss           0xffffffff804bfbf0        0x0 /home/asergey/runtime-EclipseApplication/x86dev/lib/libkernel.a(clock_getres.o)
 .bss           0xffffffff804bfbf0        0x0 /home/asergey/runtime-EclipseApplication/x86dev/lib/libkernel.a(clock_gettime.o)
 .bss           0xffffffff804bfbf0        0x0 /home/asergey/runtime-EclipseApplication/x86dev/lib/libkernel.a(clock_nanosleep.o)
 .bss           0xffffffff804bfbf0        0x0 /home/asergey/runtime-EclipseApplication/x86dev/lib/libkernel.a(clock_settime.o)
 .bss           0xffffffff804bfbf0        0x0 /home/asergey/runtime-EclipseApplication/x86dev/lib/libkernel.a(timer_impl.o)
 .bss           0xffffffff804bfbf0        0x0 /home/asergey/runtime-EclipseApplication/x86dev/lib/libkernel.a(gettime_op.o)
 .bss           0xffffffff804bfbf0        0x0 /home/asergey/runtime-EclipseApplication/x86dev/lib/libkernel.a(getitimer.o)
 .bss           0xffffffff804bfbf0        0x0 /home/asergey/runtime-EclipseApplication/x86dev/lib/libkernel.a(timer_create.o)
 .bss           0xffffffff804bfbf0        0x0 /home/asergey/runtime-EclipseApplication/x86dev/lib/libkernel.a(timer_delete.o)
 .bss           0xffffffff804bfbf0        0x0 /home/asergey/runtime-EclipseApplication/x86dev/lib/libkernel.a(timer_getoverrun.o)
 .bss           0xffffffff804bfbf0        0x0 /home/asergey/runtime-EclipseApplication/x86dev/lib/libkernel.a(timer_gettime.o)
 .bss           0xffffffff804bfbf0        0x0 /home/asergey/runtime-EclipseApplication/x86dev/lib/libkernel.a(timer_settime.o)
 .bss           0xffffffff804bfbf0        0x0 /home/asergey/runtime-EclipseApplication/x86dev/lib/libkernel.a(clock_adjtimex.o)
 .bss           0xffffffff804bfbf0        0x8 /home/asergey/runtime-EclipseApplication/x86dev/lib/libkernel.a(reboot_impl.o)
 .bss           0xffffffff804bfbf8        0x0 /home/asergey/runtime-EclipseApplication/x86dev/lib/libkernel.a(get_resource_entry.o)
 .bss           0xffffffff804bfbf8        0x0 /home/asergey/runtime-EclipseApplication/x86dev/lib/libkernel.a(ptrace.o)
 .bss           0xffffffff804bfbf8        0x0 /home/asergey/runtime-EclipseApplication/x86dev/lib/libkernel.a(reboot.o)
 .bss           0xffffffff804bfbf8        0x0 /home/asergey/runtime-EclipseApplication/x86dev/lib/libkernel.a(ulimit.o)
 .bss           0xffffffff804bfbf8        0x0 /home/asergey/runtime-EclipseApplication/x86dev/lib/libkernel.a(uname.o)
 .bss           0xffffffff804bfbf8        0x0 /home/asergey/runtime-EclipseApplication/x86dev/lib/libkernel.a(mount_impl.o)
 .bss           0xffffffff804bfbf8        0x0 /home/asergey/runtime-EclipseApplication/x86dev/lib/libkernel.a(getdents.o)
 .bss           0xffffffff804bfbf8        0x0 /home/asergey/runtime-EclipseApplication/x86dev/lib/libkernel.a(mount.o)
 .bss           0xffffffff804bfbf8        0x0 /home/asergey/runtime-EclipseApplication/x86dev/lib/libkernel.a(umount.o)
 .bss           0xffffffff804bfbf8        0x0 /home/asergey/runtime-EclipseApplication/x86dev/lib/libkernel.a(rwbounds.o)
 .bss           0xffffffff804bfbf8        0x8 /home/asergey/runtime-EclipseApplication/x86dev/lib/libkernel.a(socket_impl.o)
                0xffffffff804bfbf8                Tcpip_info
 .bss           0xffffffff804bfc00        0x0 /home/asergey/runtime-EclipseApplication/x86dev/lib/libkernel.a(accept.o)
 .bss           0xffffffff804bfc00        0x0 /home/asergey/runtime-EclipseApplication/x86dev/lib/libkernel.a(bind.o)
 .bss           0xffffffff804bfc00        0x0 /home/asergey/runtime-EclipseApplication/x86dev/lib/libkernel.a(connect.o)
 .bss           0xffffffff804bfc00      0x108 /home/asergey/runtime-EclipseApplication/x86dev/lib/libkernel.a(gethostname.o)
                0xffffffff804bfc00                hostname
 .bss           0xffffffff804bfd08        0x0 /home/asergey/runtime-EclipseApplication/x86dev/lib/libkernel.a(getpeername.o)
 .bss           0xffffffff804bfd08        0x0 /home/asergey/runtime-EclipseApplication/x86dev/lib/libkernel.a(getsockname.o)
 .bss           0xffffffff804bfd08        0x0 /home/asergey/runtime-EclipseApplication/x86dev/lib/libkernel.a(getsockopt.o)
 .bss           0xffffffff804bfd08        0x0 /home/asergey/runtime-EclipseApplication/x86dev/lib/libkernel.a(listen.o)
 .bss           0xffffffff804bfd08        0x0 /home/asergey/runtime-EclipseApplication/x86dev/lib/libkernel.a(recv.o)
 .bss           0xffffffff804bfd08        0x0 /home/asergey/runtime-EclipseApplication/x86dev/lib/libkernel.a(recvfrom.o)
 .bss           0xffffffff804bfd08        0x0 /home/asergey/runtime-EclipseApplication/x86dev/lib/libkernel.a(recvmsg.o)
 .bss           0xffffffff804bfd08        0x0 /home/asergey/runtime-EclipseApplication/x86dev/lib/libkernel.a(send.o)
 .bss           0xffffffff804bfd08        0x0 /home/asergey/runtime-EclipseApplication/x86dev/lib/libkernel.a(sendmsg.o)
 .bss           0xffffffff804bfd08        0x0 /home/asergey/runtime-EclipseApplication/x86dev/lib/libkernel.a(sendto.o)
 .bss           0xffffffff804bfd08        0x0 /home/asergey/runtime-EclipseApplication/x86dev/lib/libkernel.a(setsockopt.o)
 .bss           0xffffffff804bfd08        0x0 /home/asergey/runtime-EclipseApplication/x86dev/lib/libkernel.a(shutdown.o)
 .bss           0xffffffff804bfd08        0x0 /home/asergey/runtime-EclipseApplication/x86dev/lib/libkernel.a(socket.o)
 .bss           0xffffffff804bfd08        0x0 /home/asergey/runtime-EclipseApplication/x86dev/lib/libkernel.a(socketpair.o)
 .bss           0xffffffff804bfd08        0x0 /home/asergey/runtime-EclipseApplication/x86dev/lib/libkernel.a(chdir_impl.o)
 .bss           0xffffffff804bfd08        0x0 /home/asergey/runtime-EclipseApplication/x86dev/lib/libkernel.a(chmod_impl.o)
 .bss           0xffffffff804bfd08        0x0 /home/asergey/runtime-EclipseApplication/x86dev/lib/libkernel.a(chown_impl.o)
 .bss           0xffffffff804bfd08        0x0 /home/asergey/runtime-EclipseApplication/x86dev/lib/libkernel.a(fcntl_impl.o)
 .bss           0xffffffff804bfd08        0x0 /home/asergey/runtime-EclipseApplication/x86dev/lib/libkernel.a(link_impl.o)
 .bss           0xffffffff804bfd08        0x0 /home/asergey/runtime-EclipseApplication/x86dev/lib/libkernel.a(read_impl.o)
 .bss           0xffffffff804bfd08        0x0 /home/asergey/runtime-EclipseApplication/x86dev/lib/libkernel.a(readlink_impl.o)
 .bss           0xffffffff804bfd08        0x0 /home/asergey/runtime-EclipseApplication/x86dev/lib/libkernel.a(stat_impl.o)
 .bss           0xffffffff804bfd08        0x0 /home/asergey/runtime-EclipseApplication/x86dev/lib/libkernel.a(access.o)
 .bss           0xffffffff804bfd08        0x0 /home/asergey/runtime-EclipseApplication/x86dev/lib/libkernel.a(chcdev.o)
 .bss           0xffffffff804bfd08        0x0 /home/asergey/runtime-EclipseApplication/x86dev/lib/libkernel.a(chdir.o)
 .bss           0xffffffff804bfd08        0x0 /home/asergey/runtime-EclipseApplication/x86dev/lib/libkernel.a(chmod.o)
 .bss           0xffffffff804bfd08        0x0 /home/asergey/runtime-EclipseApplication/x86dev/lib/libkernel.a(chown.o)
 .bss           0xffffffff804bfd08        0x0 /home/asergey/runtime-EclipseApplication/x86dev/lib/libkernel.a(close.o)
 .bss           0xffffffff804bfd08        0x0 /home/asergey/runtime-EclipseApplication/x86dev/lib/libkernel.a(dup2.o)
 .bss           0xffffffff804bfd08        0x0 /home/asergey/runtime-EclipseApplication/x86dev/lib/libkernel.a(dup.o)
 .bss           0xffffffff804bfd08        0x0 /home/asergey/runtime-EclipseApplication/x86dev/lib/libkernel.a(fchdir.o)
 .bss           0xffffffff804bfd08        0x0 /home/asergey/runtime-EclipseApplication/x86dev/lib/libkernel.a(fchmod.o)
 .bss           0xffffffff804bfd08        0x0 /home/asergey/runtime-EclipseApplication/x86dev/lib/libkernel.a(fchown.o)
 .bss           0xffffffff804bfd08        0x0 /home/asergey/runtime-EclipseApplication/x86dev/lib/libkernel.a(fcntl.o)
 .bss           0xffffffff804bfd08        0x0 /home/asergey/runtime-EclipseApplication/x86dev/lib/libkernel.a(fdatasync.o)
 .bss           0xffffffff804bfd08        0x0 /home/asergey/runtime-EclipseApplication/x86dev/lib/libkernel.a(flock.o)
 .bss           0xffffffff804bfd08        0x0 /home/asergey/runtime-EclipseApplication/x86dev/lib/libkernel.a(fstat.o)
 .bss           0xffffffff804bfd08        0x0 /home/asergey/runtime-EclipseApplication/x86dev/lib/libkernel.a(fstatfs.o)
 .bss           0xffffffff804bfd08        0x0 /home/asergey/runtime-EclipseApplication/x86dev/lib/libkernel.a(fsync.o)
 .bss           0xffffffff804bfd08        0x0 /home/asergey/runtime-EclipseApplication/x86dev/lib/libkernel.a(ftruncate.o)
 .bss           0xffffffff804bfd08        0x0 /home/asergey/runtime-EclipseApplication/x86dev/lib/libkernel.a(getdtablesize.o)
 .bss           0xffffffff804bfd08        0x0 /home/asergey/runtime-EclipseApplication/x86dev/lib/libkernel.a(ioctl.o)
 .bss           0xffffffff804bfd08        0x0 /home/asergey/runtime-EclipseApplication/x86dev/lib/libkernel.a(link.o)
 .bss           0xffffffff804bfd08        0x0 /home/asergey/runtime-EclipseApplication/x86dev/lib/libkernel.a(lseek64.o)
 .bss           0xffffffff804bfd08        0x0 /home/asergey/runtime-EclipseApplication/x86dev/lib/libkernel.a(lseek.o)
 .bss           0xffffffff804bfd08        0x0 /home/asergey/runtime-EclipseApplication/x86dev/lib/libkernel.a(lstat.o)
 .bss           0xffffffff804bfd08        0x0 /home/asergey/runtime-EclipseApplication/x86dev/lib/libkernel.a(mkdir.o)
 .bss           0xffffffff804bfd08        0x0 /home/asergey/runtime-EclipseApplication/x86dev/lib/libkernel.a(mknod.o)
 .bss           0xffffffff804bfd08        0x0 /home/asergey/runtime-EclipseApplication/x86dev/lib/libkernel.a(open.o)
 .bss           0xffffffff804bfd08        0x0 /home/asergey/runtime-EclipseApplication/x86dev/lib/libkernel.a(read.o)
 .bss           0xffffffff804bfd08        0x0 /home/asergey/runtime-EclipseApplication/x86dev/lib/libkernel.a(readlink.o)
 .bss           0xffffffff804bfd08        0x0 /home/asergey/runtime-EclipseApplication/x86dev/lib/libkernel.a(readv.o)
 .bss           0xffffffff804bfd08        0x0 /home/asergey/runtime-EclipseApplication/x86dev/lib/libkernel.a(rename.o)
 .bss           0xffffffff804bfd08        0x0 /home/asergey/runtime-EclipseApplication/x86dev/lib/libkernel.a(rmdir.o)
 .bss           0xffffffff804bfd08        0x0 /home/asergey/runtime-EclipseApplication/x86dev/lib/libkernel.a(select.o)
 .bss           0xffffffff804bfd08        0x0 /home/asergey/runtime-EclipseApplication/x86dev/lib/libkernel.a(stat.o)
 .bss           0xffffffff804bfd08        0x0 /home/asergey/runtime-EclipseApplication/x86dev/lib/libkernel.a(statfs.o)
 .bss           0xffffffff804bfd08        0x0 /home/asergey/runtime-EclipseApplication/x86dev/lib/libkernel.a(symlink.o)
 .bss           0xffffffff804bfd08        0x0 /home/asergey/runtime-EclipseApplication/x86dev/lib/libkernel.a(sync.o)
 .bss           0xffffffff804bfd08        0x0 /home/asergey/runtime-EclipseApplication/x86dev/lib/libkernel.a(umask.o)
 .bss           0xffffffff804bfd08        0x0 /home/asergey/runtime-EclipseApplication/x86dev/lib/libkernel.a(unlink.o)
 .bss           0xffffffff804bfd08        0x0 /home/asergey/runtime-EclipseApplication/x86dev/lib/libkernel.a(write.o)
 .bss           0xffffffff804bfd08        0x0 /home/asergey/runtime-EclipseApplication/x86dev/lib/libkernel.a(writev.o)
 .bss           0xffffffff804bfd08        0x0 /home/asergey/runtime-EclipseApplication/x86dev/lib/libkernel.a(blkwak_impl.o)
 .bss           0xffffffff804bfd08        0x0 /home/asergey/runtime-EclipseApplication/x86dev/lib/libkernel.a(block.o)
 .bss           0xffffffff804bfd08        0x0 /home/asergey/runtime-EclipseApplication/x86dev/lib/libkernel.a(rewait.o)
 .bss           0xffffffff804bfd08        0x0 /home/asergey/runtime-EclipseApplication/x86dev/lib/libkernel.a(wakeup.o)
 .bss           0xffffffff804bfd08        0x0 /home/asergey/runtime-EclipseApplication/x86dev/lib/libkernel.a(kill_impl.o)
 .bss           0xffffffff804bfd08        0x0 /home/asergey/runtime-EclipseApplication/x86dev/lib/libkernel.a(signal_impl.o)
 .bss           0xffffffff804bfd08        0x0 /home/asergey/runtime-EclipseApplication/x86dev/lib/libkernel.a(kill.o)
 .bss           0xffffffff804bfd08        0x0 /home/asergey/runtime-EclipseApplication/x86dev/lib/libkernel.a(sigaction.o)
 .bss           0xffffffff804bfd08        0x0 /home/asergey/runtime-EclipseApplication/x86dev/lib/libkernel.a(sigblock.o)
 .bss           0xffffffff804bfd08        0x0 /home/asergey/runtime-EclipseApplication/x86dev/lib/libkernel.a(signotify.o)
 .bss           0xffffffff804bfd08        0x0 /home/asergey/runtime-EclipseApplication/x86dev/lib/libkernel.a(sigpause.o)
 .bss           0xffffffff804bfd08        0x0 /home/asergey/runtime-EclipseApplication/x86dev/lib/libkernel.a(sigpending.o)
 .bss           0xffffffff804bfd08        0x0 /home/asergey/runtime-EclipseApplication/x86dev/lib/libkernel.a(sigprocmask.o)
 .bss           0xffffffff804bfd08        0x0 /home/asergey/runtime-EclipseApplication/x86dev/lib/libkernel.a(sigqueue.o)
 .bss           0xffffffff804bfd08        0x0 /home/asergey/runtime-EclipseApplication/x86dev/lib/libkernel.a(sigsetmask.o)
 .bss           0xffffffff804bfd08        0x0 /home/asergey/runtime-EclipseApplication/x86dev/lib/libkernel.a(sigsuspend.o)
 .bss           0xffffffff804bfd08        0x0 /home/asergey/runtime-EclipseApplication/x86dev/lib/libkernel.a(sigtimedwait.o)
 .bss           0xffffffff804bfd08        0x0 /home/asergey/runtime-EclipseApplication/x86dev/lib/libkernel.a(sigvec.o)
 .bss           0xffffffff804bfd08        0x0 /home/asergey/runtime-EclipseApplication/x86dev/lib/libkernel.a(sigwait.o)
 .bss           0xffffffff804bfd08        0x0 /home/asergey/runtime-EclipseApplication/x86dev/lib/libkernel.a(get_set_thread_priority.o)
 .bss           0xffffffff804bfd08        0x0 /home/asergey/runtime-EclipseApplication/x86dev/lib/libkernel.a(adjtime.o)
 .bss           0xffffffff804bfd08        0x0 /home/asergey/runtime-EclipseApplication/x86dev/lib/libkernel.a(gettimeofday.o)
 .bss           0xffffffff804bfd08        0x0 /home/asergey/runtime-EclipseApplication/x86dev/lib/libkernel.a(times.o)
 .bss           0xffffffff804bfd08        0x0 /home/asergey/runtime-EclipseApplication/x86dev/lib/libkernel.a(settimeofday.o)
 .bss           0xffffffff804bfd08        0x0 /home/asergey/runtime-EclipseApplication/x86dev/lib/libmisc.a(nhn.o)
 .bss           0xffffffff804bfd08        0x0 /home/asergey/runtime-EclipseApplication/x86dev/lib/libmisc.a(reg_access.o)
 .bss           0xffffffff804bfd08        0x0 /home/asergey/runtime-EclipseApplication/x86dev/lib/libmisc.a(abs.o)
 .bss           0xffffffff804bfd08        0x0 /home/asergey/runtime-EclipseApplication/x86dev/lib/libmisc.a(calloc.o)
 .bss           0xffffffff804bfd08        0x0 /home/asergey/runtime-EclipseApplication/x86dev/lib/libmisc.a(s_rindex.o)
 .bss           0xffffffff804bfd08        0x0 /home/asergey/runtime-EclipseApplication/x86dev/lib/libmisc.a(strcat.o)
 .bss           0xffffffff804bfd08        0x0 /home/asergey/runtime-EclipseApplication/x86dev/lib/libmisc.a(strcmp.o)
 .bss           0xffffffff804bfd08        0x0 /home/asergey/runtime-EclipseApplication/x86dev/lib/libmisc.a(strchr.o)
 .bss           0xffffffff804bfd08        0x0 /home/asergey/runtime-EclipseApplication/x86dev/lib/libmisc.a(strcpy.o)
 .bss           0xffffffff804bfd08        0x0 /home/asergey/runtime-EclipseApplication/x86dev/lib/libmisc.a(strlen.o)
 .bss           0xffffffff804bfd08        0x0 /home/asergey/runtime-EclipseApplication/x86dev/lib/libmisc.a(strncat.o)
 .bss           0xffffffff804bfd08        0x0 /home/asergey/runtime-EclipseApplication/x86dev/lib/libmisc.a(strncmp.o)
 .bss           0xffffffff804bfd08        0x0 /home/asergey/runtime-EclipseApplication/x86dev/lib/libmisc.a(strncpy.o)
 .bss           0xffffffff804bfd08        0x0 /home/asergey/runtime-EclipseApplication/x86dev/lib/libmisc.a(strnlen.o)
 .bss           0xffffffff804bfd08        0x0 /home/asergey/runtime-EclipseApplication/x86dev/lib/libmisc.a(malloc.o)
 .bss           0xffffffff804bfd08        0x0 /home/asergey/runtime-EclipseApplication/x86dev/lib/libmisc.a(memcmp.o)
 .bss           0xffffffff804bfd08        0x0 /home/asergey/runtime-EclipseApplication/x86dev/lib/libmisc.a(atomic_ops.o)
 .bss           0xffffffff804bfd08        0x0 /home/asergey/runtime-EclipseApplication/x86dev/lib/libmisc.a(memcpy_x86.o)
 .bss           0xffffffff804bfd08        0x0 /home/asergey/runtime-EclipseApplication/x86dev/lib/libmisc.a(memset_x86.o)
 .bss           0xffffffff804bfd08        0x0 /home/asergey/runtime-EclipseApplication/x86dev/lib/libfamily_x86_64.a(cpu.o)
 .bss           0xffffffff804bfd08        0x0 /home/asergey/runtime-EclipseApplication/x86dev/lib/libfamily_x86_64.a(csp_fsetbit_asm.o)
 .bss           0xffffffff804bfd08        0x0 /home/asergey/runtime-EclipseApplication/x86dev/lib/libfamily_x86_64.a(csp_misc.o)
 .bss           0xffffffff804bfd08        0x0 /home/asergey/runtime-EclipseApplication/x86dev/lib/libfamily_x86_64.a(csp__stexit.o)
 .bss           0xffffffff804bfd08        0x0 /home/asergey/runtime-EclipseApplication/x86dev/lib/libfamily_x86_64.a(xcontext.o)
 .bss           0xffffffff804bfd08        0x0 /home/asergey/runtime-EclipseApplication/x86dev/lib/libfamily_x86_64.a(reloc_elf.o)
 .bss           0xffffffff804bfd08        0x0 /home/asergey/runtime-EclipseApplication/x86dev/lib/libfamily_x86_64.a(signal_asm.o)
 .bss           0xffffffff804bfd08        0x0 /home/asergey/runtime-EclipseApplication/x86dev/lib/libfamily_x86_64.a(signal.o)
 .bss           0xffffffff804bfd08        0x0 /home/asergey/runtime-EclipseApplication/x86dev/lib/libfamily_x86_64.a(syscall.o)
 .bss           0xffffffff804bfd08        0x0 /home/asergey/runtime-EclipseApplication/x86dev/lib/libcsp_x86_64.a(context.o)
 .bss           0xffffffff804bfd08        0x0 /home/asergey/runtime-EclipseApplication/x86dev/lib/libcsp_x86_64.a(csp_mem_map.o)
 .bss           0xffffffff804bfd08        0x0 /home/asergey/runtime-EclipseApplication/x86dev/lib/libcsp_x86_64.a(fpu.o)
 .bss           0xffffffff804bfd08        0x0 /home/asergey/runtime-EclipseApplication/x86dev/lib/libcsp_x86_64.a(tlb.o)
 .bss           0xffffffff804bfd08        0x0 /home/asergey/runtime-EclipseApplication/x86dev/lib/libcsp_x86_64.a(context_asm.o)
 .bss           0xffffffff804bfd08        0x0 /home/asergey/runtime-EclipseApplication/x86dev/lib/libptrace_x86_64.a(ptrace_trap.o)
 .bss           0xffffffff804bfd08        0x0 /home/asergey/runtime-EclipseApplication/x86dev/lib/libptrace.a(core.o)
 *(COMMON)

.sbss           0xffffffff804bfd08        0x0
                [!provide]                        PROVIDE (__sbss_start = .)
 *(.sbss)
 *(.scommon)
 *(.dynsbss)
                [!provide]                        PROVIDE (__sbss_end = .)
                0xffffffff804bfd08                . = ALIGN (0x4)
                0xffffffff804bfd08                _end = .
                [!provide]                        PROVIDE (end = .)

.stab
 *(.stab)

.stabstr
 *(.stabstr)

.stab.excl
 *(.stab.excl)

.stab.exclstr
 *(.stab.exclstr)

.stab.index
 *(.stab.index)

.stab.indexstr
 *(.stab.indexstr)

.comment        0x0000000000000000       0x12
 *(.comment)
 .comment       0x0000000000000000       0x12 bsp.x86_64.o
                                        0x18f (size before relaxing)
 .comment       0x0000000000000012       0x13 conf_am.o
 .comment       0x0000000000000012       0x13 conf.o
 .comment       0x0000000000000012       0x13 info.o
 .comment       0x0000000000000012       0x13 timestamp.o
 .comment       0x0000000000000012       0x13 /home/asergey/runtime-EclipseApplication/x86dev/lib/libcsp_x86_64.a(csp_init.o)
 .comment       0x0000000000000012       0x13 /home/asergey/runtime-EclipseApplication/x86dev/lib/libcsp_x86_64.a(csp_mem_map_am.o)
 .comment       0x0000000000000012       0x13 /home/asergey/runtime-EclipseApplication/x86dev/lib/libcsp_x86_64.a(launch_am.o)
 .comment       0x0000000000000012       0x13 /home/asergey/runtime-EclipseApplication/x86dev/lib/libcsp_x86_64.a(lowInit.o)
 .comment       0x0000000000000012       0x13 /home/asergey/runtime-EclipseApplication/x86dev/lib/libcsp_x86_64.a(trap.o)
 .comment       0x0000000000000012       0x13 /home/asergey/runtime-EclipseApplication/x86dev/lib/libcsp_x86_64.a(csp_cache.o)
 .comment       0x0000000000000012       0x13 /home/asergey/runtime-EclipseApplication/x86dev/lib/libcsp_x86_64.a(csp_init_am.o)
 .comment       0x0000000000000012       0x13 /home/asergey/runtime-EclipseApplication/x86dev/lib/libdrivers.a(ahcidrvr.o)
 .comment       0x0000000000000012       0x13 /home/asergey/runtime-EclipseApplication/x86dev/lib/libdrivers.a(ahciinfo.o)
 .comment       0x0000000000000012       0x13 /home/asergey/runtime-EclipseApplication/x86dev/lib/libdrivers.a(kdbdrvr.o)
 .comment       0x0000000000000012       0x13 /home/asergey/runtime-EclipseApplication/x86dev/lib/libdrivers.a(lcs_emdrvr.o)
 .comment       0x0000000000000012       0x13 /home/asergey/runtime-EclipseApplication/x86dev/lib/libdrivers.a(lcs_eminfo.o)
 .comment       0x0000000000000012       0x13 /home/asergey/runtime-EclipseApplication/x86dev/lib/libdrivers.a(ptracedrvr.o)
 .comment       0x0000000000000012       0x13 /home/asergey/runtime-EclipseApplication/x86dev/lib/libdrivers.a(tty_16550.o)
 .comment       0x0000000000000012       0x13 /home/asergey/runtime-EclipseApplication/x86dev/lib/libdrivers.a(ttydrvr.o)
 .comment       0x0000000000000012       0x13 /home/asergey/runtime-EclipseApplication/x86dev/lib/libdrivers.a(ttyinfo.o)
 .comment       0x0000000000000012       0x13 /home/asergey/runtime-EclipseApplication/x86dev/lib/libdrivers.a(ehci_pci.o)
 .comment       0x0000000000000012       0x13 /home/asergey/runtime-EclipseApplication/x86dev/lib/libdrivers.a(xhci_pci.o)
 .comment       0x0000000000000012       0x13 /home/asergey/runtime-EclipseApplication/x86dev/lib/libdrivers.a(simusb.o)
 .comment       0x0000000000000012       0x13 /home/asergey/runtime-EclipseApplication/x86dev/lib/libdrivers.a(scsimgr.o)
 .comment       0x0000000000000012       0x13 /home/asergey/runtime-EclipseApplication/x86dev/lib/libdrivers.a(scsi_timeout.o)
 .comment       0x0000000000000012       0x13 /home/asergey/runtime-EclipseApplication/x86dev/lib/libdrivers.a(usbdrvr.o)
 .comment       0x0000000000000012       0x13 /home/asergey/runtime-EclipseApplication/x86dev/lib/libdrivers.a(usbinfo.o)
 .comment       0x0000000000000012       0x13 /home/asergey/runtime-EclipseApplication/x86dev/lib/libdrivers.a(virtio_netdrvr.o)
 .comment       0x0000000000000012       0x13 /home/asergey/runtime-EclipseApplication/x86dev/lib/libdrivers.a(lsk_helperdrvr.o)
 .comment       0x0000000000000012       0x13 /home/asergey/runtime-EclipseApplication/x86dev/lib/libdrivers.a(lcs_igcdrvr.o)
 .comment       0x0000000000000012       0x13 /home/asergey/runtime-EclipseApplication/x86dev/lib/libdrivers.a(memdrvr.o)
 .comment       0x0000000000000012       0x13 /home/asergey/runtime-EclipseApplication/x86dev/lib/libdrivers.a(ptydrvr.o)
 .comment       0x0000000000000012       0x13 /home/asergey/runtime-EclipseApplication/x86dev/lib/libdrivers.a(ptyinfo.o)
 .comment       0x0000000000000012       0x13 /home/asergey/runtime-EclipseApplication/x86dev/lib/libdrivers.a(rnddrvr.o)
 .comment       0x0000000000000012       0x13 /home/asergey/runtime-EclipseApplication/x86dev/lib/libdrivers.a(lfatfsdrvr.o)
 .comment       0x0000000000000012       0x13 /home/asergey/runtime-EclipseApplication/x86dev/lib/libdrivers.a(ixgbepfdrvr.o)
 .comment       0x0000000000000012       0x13 /home/asergey/runtime-EclipseApplication/x86dev/lib/libdrivers.a(ixgbepfinfo.o)
 .comment       0x0000000000000012       0x13 /home/asergey/runtime-EclipseApplication/x86dev/lib/libdrivers.a(lcsdrvr.o)
 .comment       0x0000000000000012       0x13 /home/asergey/runtime-EclipseApplication/x86dev/lib/libdrivers.a(lcsinfo.o)
 .comment       0x0000000000000012       0x13 /home/asergey/runtime-EclipseApplication/x86dev/lib/libdrivers.a(lsk_fifo_pci.o)
 .comment       0x0000000000000012       0x13 /home/asergey/runtime-EclipseApplication/x86dev/lib/libdrivers.a(lsk_fifodrvr.o)
 .comment       0x0000000000000012       0x13 /home/asergey/runtime-EclipseApplication/x86dev/lib/libdrivers.a(lsk_fifoinfo.o)
 .comment       0x0000000000000012       0x13 /home/asergey/runtime-EclipseApplication/x86dev/lib/libdrivers.a(hmdrvr.o)
 .comment       0x0000000000000012       0x13 /home/asergey/runtime-EclipseApplication/x86dev/lib/libdrivers.a(hminfo.o)
 .comment       0x0000000000000012       0x13 /home/asergey/runtime-EclipseApplication/x86dev/lib/libdrivers.a(mmapdrvr.o)
 .comment       0x0000000000000012       0x13 /home/asergey/runtime-EclipseApplication/x86dev/lib/libdrivers.a(ahci.o)
 .comment       0x0000000000000012       0x13 /home/asergey/runtime-EclipseApplication/x86dev/lib/libdrivers.a(ahci-port.o)
 .comment       0x0000000000000012       0x13 /home/asergey/runtime-EclipseApplication/x86dev/lib/libdrivers.a(dis_x86_64.o)
 .comment       0x0000000000000012       0x13 /home/asergey/runtime-EclipseApplication/x86dev/lib/libdrivers.a(kdb_x86_64.o)
 .comment       0x0000000000000012       0x13 /home/asergey/runtime-EclipseApplication/x86dev/lib/libdrivers.a(remote.o)
 .comment       0x0000000000000012       0x13 /home/asergey/runtime-EclipseApplication/x86dev/lib/libdrivers.a(tty_io.o)
 .comment       0x0000000000000012       0x13 /home/asergey/runtime-EclipseApplication/x86dev/lib/libdrivers.a(usbdi.o)
 .comment       0x0000000000000012       0x13 /home/asergey/runtime-EclipseApplication/x86dev/lib/libdrivers.a(usb_lynxos.o)
 .comment       0x0000000000000012       0x13 /home/asergey/runtime-EclipseApplication/x86dev/lib/libdrivers.a(usb_subr.o)
 .comment       0x0000000000000012       0x13 /home/asergey/runtime-EclipseApplication/x86dev/lib/libdrivers.a(usb_callouts.o)
 .comment       0x0000000000000012       0x13 /home/asergey/runtime-EclipseApplication/x86dev/lib/libdrivers.a(ohci_drvr.o)
 .comment       0x0000000000000012       0x13 /home/asergey/runtime-EclipseApplication/x86dev/lib/libdrivers.a(ohci.o)
 .comment       0x0000000000000012       0x13 /home/asergey/runtime-EclipseApplication/x86dev/lib/libdrivers.a(ohci_map.o)
 .comment       0x0000000000000012       0x13 /home/asergey/runtime-EclipseApplication/x86dev/lib/libdrivers.a(ehci_map.o)
 .comment       0x0000000000000012       0x13 /home/asergey/runtime-EclipseApplication/x86dev/lib/libdrivers.a(ehci.o)
 .comment       0x0000000000000012       0x13 /home/asergey/runtime-EclipseApplication/x86dev/lib/libdrivers.a(xhci_map.o)
 .comment       0x0000000000000012       0x13 /home/asergey/runtime-EclipseApplication/x86dev/lib/libdrivers.a(xhci.o)
 .comment       0x0000000000000012       0x13 /home/asergey/runtime-EclipseApplication/x86dev/lib/libdrivers.a(uhub.o)
 .comment       0x0000000000000012       0x13 /home/asergey/runtime-EclipseApplication/x86dev/lib/libdrivers.a(uhidev.o)
 .comment       0x0000000000000012       0x13 /home/asergey/runtime-EclipseApplication/x86dev/lib/libdrivers.a(ukbd.o)
 .comment       0x0000000000000012       0x13 /home/asergey/runtime-EclipseApplication/x86dev/lib/libdrivers.a(ukbdmap.o)
 .comment       0x0000000000000012       0x13 /home/asergey/runtime-EclipseApplication/x86dev/lib/libdrivers.a(ums.o)
 .comment       0x0000000000000012       0x13 /home/asergey/runtime-EclipseApplication/x86dev/lib/libdrivers.a(umass.o)
 .comment       0x0000000000000012       0x13 /home/asergey/runtime-EclipseApplication/x86dev/lib/libdrivers.a(umass_quirks.o)
 .comment       0x0000000000000012       0x13 /home/asergey/runtime-EclipseApplication/x86dev/lib/libdrivers.a(virtqueue.o)
 .comment       0x0000000000000012       0x13 /home/asergey/runtime-EclipseApplication/x86dev/lib/libdrivers.a(virtio_pci.o)
 .comment       0x0000000000000012       0x13 /home/asergey/runtime-EclipseApplication/x86dev/lib/libdrivers.a(if_igc.o)
 .comment       0x0000000000000012       0x13 /home/asergey/runtime-EclipseApplication/x86dev/lib/libdrivers.a(igc_i225.o)
 .comment       0x0000000000000012       0x13 /home/asergey/runtime-EclipseApplication/x86dev/lib/libdrivers.a(igc_mac.o)
 .comment       0x0000000000000012       0x13 /home/asergey/runtime-EclipseApplication/x86dev/lib/libdrivers.a(igc_nvm.o)
 .comment       0x0000000000000012       0x13 /home/asergey/runtime-EclipseApplication/x86dev/lib/libdrivers.a(igc_phy.o)
 .comment       0x0000000000000012       0x13 /home/asergey/runtime-EclipseApplication/x86dev/lib/libdrivers.a(lfatfs_blk.o)
 .comment       0x0000000000000012       0x13 /home/asergey/runtime-EclipseApplication/x86dev/lib/libdrivers.a(lfatfs_dent.o)
 .comment       0x0000000000000012       0x13 /home/asergey/runtime-EclipseApplication/x86dev/lib/libdrivers.a(lfatfs_dir.o)
 .comment       0x0000000000000012       0x13 /home/asergey/runtime-EclipseApplication/x86dev/lib/libdrivers.a(lfatfs_inode.o)
 .comment       0x0000000000000012       0x13 /home/asergey/runtime-EclipseApplication/x86dev/lib/libdrivers.a(lfatfs_mnt.o)
 .comment       0x0000000000000012       0x13 /home/asergey/runtime-EclipseApplication/x86dev/lib/libdrivers.a(lfat_sup.o)
 .comment       0x0000000000000012       0x13 /home/asergey/runtime-EclipseApplication/x86dev/lib/libdrivers.a(msdosfs_conv.o)
 .comment       0x0000000000000012       0x13 /home/asergey/runtime-EclipseApplication/x86dev/lib/libdrivers.a(msdosfs_denode.o)
 .comment       0x0000000000000012       0x13 /home/asergey/runtime-EclipseApplication/x86dev/lib/libdrivers.a(msdosfs_fat.o)
 .comment       0x0000000000000012       0x13 /home/asergey/runtime-EclipseApplication/x86dev/lib/libdrivers.a(msdosfs_lookup.o)
 .comment       0x0000000000000012       0x13 /home/asergey/runtime-EclipseApplication/x86dev/lib/libdrivers.a(if_ix.o)
 .comment       0x0000000000000012       0x13 /home/asergey/runtime-EclipseApplication/x86dev/lib/libdrivers.a(if_sriov.o)
 .comment       0x0000000000000012       0x13 /home/asergey/runtime-EclipseApplication/x86dev/lib/libdrivers.a(ixgbe_api.o)
 .comment       0x0000000000000012       0x13 /home/asergey/runtime-EclipseApplication/x86dev/lib/libdrivers.a(ixgbe_common.o)
 .comment       0x0000000000000012       0x13 /home/asergey/runtime-EclipseApplication/x86dev/lib/libdrivers.a(ixgbepf_mbx.o)
 .comment       0x0000000000000012       0x13 /home/asergey/runtime-EclipseApplication/x86dev/lib/libdrivers.a(ixgbe_x540.o)
 .comment       0x0000000000000012       0x13 /home/asergey/runtime-EclipseApplication/x86dev/lib/libdrivers.a(ixgbe_x550.o)
 .comment       0x0000000000000012       0x13 /home/asergey/runtime-EclipseApplication/x86dev/lib/libdrivers.a(ixgbepf_vf_common.o)
 .comment       0x0000000000000012       0x13 /home/asergey/runtime-EclipseApplication/x86dev/lib/libdrivers.a(lcsthreads.o)
 .comment       0x0000000000000012       0x13 /home/asergey/runtime-EclipseApplication/x86dev/lib/libdrivers.a(kbddrvr.o)
 .comment       0x0000000000000012       0x13 /home/asergey/runtime-EclipseApplication/x86dev/lib/libdrivers.a(mousedrvr.o)
 .comment       0x0000000000000012       0x13 /home/asergey/runtime-EclipseApplication/x86dev/lib/libdrivers.a(usbdi_util.o)
 .comment       0x0000000000000012       0x13 /home/asergey/runtime-EclipseApplication/x86dev/lib/libdrivers.a(usb_mem.o)
 .comment       0x0000000000000012       0x13 /home/asergey/runtime-EclipseApplication/x86dev/lib/libdrivers.a(usb_quirks.o)
 .comment       0x0000000000000012       0x13 /home/asergey/runtime-EclipseApplication/x86dev/lib/libdrivers.a(usbroothub.o)
 .comment       0x0000000000000012       0x13 /home/asergey/runtime-EclipseApplication/x86dev/lib/libdrivers.a(hid.o)
 .comment       0x0000000000000012       0x13 /home/asergey/runtime-EclipseApplication/x86dev/lib/libdrivers.a(igc_api.o)
 .comment       0x0000000000000012       0x13 /home/asergey/runtime-EclipseApplication/x86dev/lib/libdrivers.a(igc_base.o)
 .comment       0x0000000000000012       0x13 /home/asergey/runtime-EclipseApplication/x86dev/lib/libdrivers.a(ixgbe_phy.o)
 .comment       0x0000000000000012       0x13 /home/asergey/runtime-EclipseApplication/x86dev/lib/libdrivers_rsc.a(nulldrvr.o)
 .comment       0x0000000000000012       0x13 /home/asergey/runtime-EclipseApplication/x86dev/lib/libdrivers_rsc.a(rddrvr.o)
 .comment       0x0000000000000012       0x13 /home/asergey/runtime-EclipseApplication/x86dev/lib/libdrivers_rsc.a(rdinfo.o)
 .comment       0x0000000000000012       0x13 /home/asergey/runtime-EclipseApplication/x86dev/lib/libdrivers_rsc.a(vmosdrvr.o)
 .comment       0x0000000000000012       0x13 /home/asergey/runtime-EclipseApplication/x86dev/lib/libdrivers_rsc.a(arinc653drvr.o)
 .comment       0x0000000000000012       0x13 /home/asergey/runtime-EclipseApplication/x86dev/lib/libdrivers_rsc.a(arinc653info.o)
 .comment       0x0000000000000012       0x13 /home/asergey/runtime-EclipseApplication/x86dev/lib/libdrivers_rsc.a(arinc653drvr_inter.o)
 .comment       0x0000000000000012       0x13 /home/asergey/runtime-EclipseApplication/x86dev/lib/liblcs.a(lldinit.o)
 .comment       0x0000000000000012       0x13 /home/asergey/runtime-EclipseApplication/x86dev/lib/liblcs.a(llinput.o)
 .comment       0x0000000000000012       0x13 /home/asergey/runtime-EclipseApplication/x86dev/lib/liblcs.a(lld_pfifo_ts.o)
 .comment       0x0000000000000012       0x13 /home/asergey/runtime-EclipseApplication/x86dev/lib/liblcs.a(arminit.o)
 .comment       0x0000000000000012       0x13 /home/asergey/runtime-EclipseApplication/x86dev/lib/liblcs.a(arp.o)
 .comment       0x0000000000000012       0x13 /home/asergey/runtime-EclipseApplication/x86dev/lib/liblcs.a(udp_init.o)
 .comment       0x0000000000000012       0x13 /home/asergey/runtime-EclipseApplication/x86dev/lib/liblcs.a(icmp6_ini.o)
 .comment       0x0000000000000012       0x13 /home/asergey/runtime-EclipseApplication/x86dev/lib/liblcs.a(in6_ifattach.o)
 .comment       0x0000000000000012       0x13 /home/asergey/runtime-EclipseApplication/x86dev/lib/liblcs.a(in6_pcb.o)
 .comment       0x0000000000000012       0x13 /home/asergey/runtime-EclipseApplication/x86dev/lib/liblcs.a(in6_route.o)
 .comment       0x0000000000000012       0x13 /home/asergey/runtime-EclipseApplication/x86dev/lib/liblcs.a(ip6_ctlo.o)
 .comment       0x0000000000000012       0x13 /home/asergey/runtime-EclipseApplication/x86dev/lib/liblcs.a(ip6_init.o)
 .comment       0x0000000000000012       0x13 /home/asergey/runtime-EclipseApplication/x86dev/lib/liblcs.a(ip6_input.o)
 .comment       0x0000000000000012       0x13 /home/asergey/runtime-EclipseApplication/x86dev/lib/liblcs.a(ip6_reassem.o)
 .comment       0x0000000000000012       0x13 /home/asergey/runtime-EclipseApplication/x86dev/lib/liblcs.a(ip_input.o)
 .comment       0x0000000000000012       0x13 /home/asergey/runtime-EclipseApplication/x86dev/lib/liblcs.a(in_util.o)
 .comment       0x0000000000000012       0x13 /home/asergey/runtime-EclipseApplication/x86dev/lib/liblcs.a(ip_reassem.o)
 .comment       0x0000000000000012       0x13 /home/asergey/runtime-EclipseApplication/x86dev/lib/liblcs.a(ip_init.o)
 .comment       0x0000000000000012       0x13 /home/asergey/runtime-EclipseApplication/x86dev/lib/liblcs.a(icmp_in.o)
 .comment       0x0000000000000012       0x13 /home/asergey/runtime-EclipseApplication/x86dev/lib/liblcs.a(icmp_ini.o)
 .comment       0x0000000000000012       0x13 /home/asergey/runtime-EclipseApplication/x86dev/lib/liblcs.a(tcp_inpt.o)
 .comment       0x0000000000000012       0x13 /home/asergey/runtime-EclipseApplication/x86dev/lib/liblcs.a(tcp_out.o)
 .comment       0x0000000000000012       0x13 /home/asergey/runtime-EclipseApplication/x86dev/lib/liblcs.a(tcp_time.o)
 .comment       0x0000000000000012       0x13 /home/asergey/runtime-EclipseApplication/x86dev/lib/liblcs.a(tcp_init.o)
 .comment       0x0000000000000012       0x13 /home/asergey/runtime-EclipseApplication/x86dev/lib/liblcs.a(tcp_pcb.o)
 .comment       0x0000000000000012       0x13 /home/asergey/runtime-EclipseApplication/x86dev/lib/liblcs.a(tcp_util.o)
 .comment       0x0000000000000012       0x13 /home/asergey/runtime-EclipseApplication/x86dev/lib/liblcs.a(igmp.o)
 .comment       0x0000000000000012       0x13 /home/asergey/runtime-EclipseApplication/x86dev/lib/liblcs.a(lcs_nux.o)
 .comment       0x0000000000000012       0x13 /home/asergey/runtime-EclipseApplication/x86dev/lib/liblcs.a(ioctl.o)
 .comment       0x0000000000000012       0x13 /home/asergey/runtime-EclipseApplication/x86dev/lib/liblcs.a(select.o)
 .comment       0x0000000000000012       0x13 /home/asergey/runtime-EclipseApplication/x86dev/lib/liblcs.a(sock.o)
 .comment       0x0000000000000012       0x13 /home/asergey/runtime-EclipseApplication/x86dev/lib/liblcs.a(sock_raw.o)
 .comment       0x0000000000000012       0x13 /home/asergey/runtime-EclipseApplication/x86dev/lib/liblcs.a(sock_udp.o)
 .comment       0x0000000000000012       0x13 /home/asergey/runtime-EclipseApplication/x86dev/lib/liblcs.a(sock_tcp.o)
 .comment       0x0000000000000012       0x13 /home/asergey/runtime-EclipseApplication/x86dev/lib/liblcs.a(tmrchk.o)
 .comment       0x0000000000000012       0x13 /home/asergey/runtime-EclipseApplication/x86dev/lib/liblcs.a(tmrinit.o)
 .comment       0x0000000000000012       0x13 /home/asergey/runtime-EclipseApplication/x86dev/lib/liblcs.a(tmrscall.o)
 .comment       0x0000000000000012       0x13 /home/asergey/runtime-EclipseApplication/x86dev/lib/liblcs.a(tmrset.o)
 .comment       0x0000000000000012       0x13 /home/asergey/runtime-EclipseApplication/x86dev/lib/liblcs.a(tmrsrec.o)
 .comment       0x0000000000000012       0x13 /home/asergey/runtime-EclipseApplication/x86dev/lib/liblcs.a(tmrstop.o)
 .comment       0x0000000000000012       0x13 /home/asergey/runtime-EclipseApplication/x86dev/lib/liblcs.a(iorbcopy.o)
 .comment       0x0000000000000012       0x13 /home/asergey/runtime-EclipseApplication/x86dev/lib/liblcs.a(iorbfree.o)
 .comment       0x0000000000000012       0x13 /home/asergey/runtime-EclipseApplication/x86dev/lib/liblcs.a(bm_init.o)
 .comment       0x0000000000000012       0x13 /home/asergey/runtime-EclipseApplication/x86dev/lib/liblcs.a(iorbdup.o)
 .comment       0x0000000000000012       0x13 /home/asergey/runtime-EclipseApplication/x86dev/lib/liblcs.a(iorbget.o)
 .comment       0x0000000000000012       0x13 /home/asergey/runtime-EclipseApplication/x86dev/lib/liblcs.a(iorbunlk.o)
 .comment       0x0000000000000012       0x13 /home/asergey/runtime-EclipseApplication/x86dev/lib/liblcs.a(iorbcs.o)
 .comment       0x0000000000000012       0x13 /home/asergey/runtime-EclipseApplication/x86dev/lib/liblcs.a(qsort.o)
 .comment       0x0000000000000012       0x13 /home/asergey/runtime-EclipseApplication/x86dev/lib/liblcs.a(cksum.o)
 .comment       0x0000000000000012       0x13 /home/asergey/runtime-EclipseApplication/x86dev/lib/liblcs.a(clntport.o)
 .comment       0x0000000000000012       0x13 /home/asergey/runtime-EclipseApplication/x86dev/lib/liblcs.a(hm.o)
 .comment       0x0000000000000012       0x13 /home/asergey/runtime-EclipseApplication/x86dev/lib/liblcs.a(lcsprio.o)
 .comment       0x0000000000000012       0x13 /home/asergey/runtime-EclipseApplication/x86dev/lib/liblcs.a(uio_move.o)
 .comment       0x0000000000000012       0x13 /home/asergey/runtime-EclipseApplication/x86dev/lib/liblcs.a(psbdrop.o)
 .comment       0x0000000000000012       0x13 /home/asergey/runtime-EclipseApplication/x86dev/lib/liblcs.a(psbget.o)
 .comment       0x0000000000000012       0x13 /home/asergey/runtime-EclipseApplication/x86dev/lib/liblcs.a(psbscap.o)
 .comment       0x0000000000000012       0x13 /home/asergey/runtime-EclipseApplication/x86dev/lib/liblcs.a(psbadd.o)
 .comment       0x0000000000000012       0x13 /home/asergey/runtime-EclipseApplication/x86dev/lib/liblcs.a(psbspace.o)
 .comment       0x0000000000000012       0x13 /home/asergey/runtime-EclipseApplication/x86dev/lib/liblcs.a(psbcount.o)
 .comment       0x0000000000000012       0x13 /home/asergey/runtime-EclipseApplication/x86dev/lib/liblcs.a(psbgcap.o)
 .comment       0x0000000000000012       0x13 /home/asergey/runtime-EclipseApplication/x86dev/lib/liblcs.a(psbpeek.o)
 .comment       0x0000000000000012       0x13 /home/asergey/runtime-EclipseApplication/x86dev/lib/liblcs.a(llmcast.o)
 .comment       0x0000000000000012       0x13 /home/asergey/runtime-EclipseApplication/x86dev/lib/liblcs.a(lloutput.o)
 .comment       0x0000000000000012       0x13 /home/asergey/runtime-EclipseApplication/x86dev/lib/liblcs.a(arpreq.o)
 .comment       0x0000000000000012       0x13 /home/asergey/runtime-EclipseApplication/x86dev/lib/liblcs.a(arpsrch.o)
 .comment       0x0000000000000012       0x13 /home/asergey/runtime-EclipseApplication/x86dev/lib/liblcs.a(udp_atch.o)
 .comment       0x0000000000000012       0x13 /home/asergey/runtime-EclipseApplication/x86dev/lib/liblcs.a(udp_bind.o)
 .comment       0x0000000000000012       0x13 /home/asergey/runtime-EclipseApplication/x86dev/lib/liblcs.a(udp_conn.o)
 .comment       0x0000000000000012       0x13 /home/asergey/runtime-EclipseApplication/x86dev/lib/liblcs.a(udp_dtch.o)
 .comment       0x0000000000000012       0x13 /home/asergey/runtime-EclipseApplication/x86dev/lib/liblcs.a(udp_inpt.o)
 .comment       0x0000000000000012       0x13 /home/asergey/runtime-EclipseApplication/x86dev/lib/liblcs.a(udp_pcb.o)
 .comment       0x0000000000000012       0x13 /home/asergey/runtime-EclipseApplication/x86dev/lib/liblcs.a(udp_peer.o)
 .comment       0x0000000000000012       0x13 /home/asergey/runtime-EclipseApplication/x86dev/lib/liblcs.a(udp_sock.o)
 .comment       0x0000000000000012       0x13 /home/asergey/runtime-EclipseApplication/x86dev/lib/liblcs.a(udp6_input.o)
 .comment       0x0000000000000012       0x13 /home/asergey/runtime-EclipseApplication/x86dev/lib/liblcs.a(udp6_out.o)
 .comment       0x0000000000000012       0x13 /home/asergey/runtime-EclipseApplication/x86dev/lib/liblcs.a(udp_disc.o)
 .comment       0x0000000000000012       0x13 /home/asergey/runtime-EclipseApplication/x86dev/lib/liblcs.a(udp_out.o)
 .comment       0x0000000000000012       0x13 /home/asergey/runtime-EclipseApplication/x86dev/lib/liblcs.a(udp_util.o)
 .comment       0x0000000000000012       0x13 /home/asergey/runtime-EclipseApplication/x86dev/lib/liblcs.a(icmp6_in.o)
 .comment       0x0000000000000012       0x13 /home/asergey/runtime-EclipseApplication/x86dev/lib/liblcs.a(icmp6_error.o)
 .comment       0x0000000000000012       0x13 /home/asergey/runtime-EclipseApplication/x86dev/lib/liblcs.a(in6_pbind.o)
 .comment       0x0000000000000012       0x13 /home/asergey/runtime-EclipseApplication/x86dev/lib/liblcs.a(in6_pcon.o)
 .comment       0x0000000000000012       0x13 /home/asergey/runtime-EclipseApplication/x86dev/lib/liblcs.a(in6_plook.o)
 .comment       0x0000000000000012       0x13 /home/asergey/runtime-EclipseApplication/x86dev/lib/liblcs.a(in6_util.o)
 .comment       0x0000000000000012       0x13 /home/asergey/runtime-EclipseApplication/x86dev/lib/liblcs.a(ip6_outpt.o)
 .comment       0x0000000000000012       0x13 /home/asergey/runtime-EclipseApplication/x86dev/lib/liblcs.a(in_pcon.o)
 .comment       0x0000000000000012       0x13 /home/asergey/runtime-EclipseApplication/x86dev/lib/liblcs.a(in_route.o)
 .comment       0x0000000000000012       0x13 /home/asergey/runtime-EclipseApplication/x86dev/lib/liblcs.a(ip_ctlo.o)
 .comment       0x0000000000000012       0x13 /home/asergey/runtime-EclipseApplication/x86dev/lib/liblcs.a(ip_outpt.o)
 .comment       0x0000000000000012       0x13 /home/asergey/runtime-EclipseApplication/x86dev/lib/liblcs.a(tcp_atch.o)
 .comment       0x0000000000000012       0x13 /home/asergey/runtime-EclipseApplication/x86dev/lib/liblcs.a(tcp_clse.o)
 .comment       0x0000000000000012       0x13 /home/asergey/runtime-EclipseApplication/x86dev/lib/liblcs.a(tcp_disc.o)
 .comment       0x0000000000000012       0x13 /home/asergey/runtime-EclipseApplication/x86dev/lib/liblcs.a(tcp_bind.o)
 .comment       0x0000000000000012       0x13 /home/asergey/runtime-EclipseApplication/x86dev/lib/liblcs.a(tcp_conn.o)
 .comment       0x0000000000000012       0x13 /home/asergey/runtime-EclipseApplication/x86dev/lib/liblcs.a(tcp_lstn.o)
 .comment       0x0000000000000012       0x13 /home/asergey/runtime-EclipseApplication/x86dev/lib/libnfs_client.a(nfs_file_open.o)
 .comment       0x0000000000000012       0x13 /home/asergey/runtime-EclipseApplication/x86dev/lib/libnfs_client.a(nfsinfo.o)
 .comment       0x0000000000000012       0x13 /home/asergey/runtime-EclipseApplication/x86dev/lib/libnfs_client.a(nfs_inode.o)
 .comment       0x0000000000000012       0x13 /home/asergey/runtime-EclipseApplication/x86dev/lib/libnfs_client.a(unfs_driver.o)
 .comment       0x0000000000000012       0x13 /home/asergey/runtime-EclipseApplication/x86dev/lib/libnfs_client.a(nfs_mount.o)
 .comment       0x0000000000000012       0x13 /home/asergey/runtime-EclipseApplication/x86dev/lib/libptrace_x86_64.a(ptrace_ctx.o)
 .comment       0x0000000000000012       0x13 /home/asergey/runtime-EclipseApplication/x86dev/lib/libptrace_x86_64.a(ptrace_dbg_ctx.o)
 .comment       0x0000000000000012       0x13 /home/asergey/runtime-EclipseApplication/x86dev/lib/libptrace.a(ptrace.o)
 .comment       0x0000000000000012       0x13 /home/asergey/runtime-EclipseApplication/x86dev/lib/libptrace.a(ptrace_child.o)
 .comment       0x0000000000000012       0x13 /home/asergey/runtime-EclipseApplication/x86dev/lib/libptrace.a(ptrace_fctx.o)
 .comment       0x0000000000000012       0x13 /home/asergey/runtime-EclipseApplication/x86dev/lib/libptrace.a(ptrace_kill.o)
 .comment       0x0000000000000012       0x13 /home/asergey/runtime-EclipseApplication/x86dev/lib/libptrace.a(ptrace_tde.o)
 .comment       0x0000000000000012       0x13 /home/asergey/runtime-EclipseApplication/x86dev/lib/libdrm.a(drm.o)
 .comment       0x0000000000000012       0x13 /home/asergey/runtime-EclipseApplication/x86dev/lib/libdrm.a(pcibus.o)
 .comment       0x0000000000000012       0x13 /home/asergey/runtime-EclipseApplication/x86dev/lib/libdrm.a(sysbus.o)
 .comment       0x0000000000000012       0x13 /home/asergey/runtime-EclipseApplication/x86dev/lib/libdrm.a(drm_sysctl.o)
 .comment       0x0000000000000012       0x13 /home/asergey/runtime-EclipseApplication/x86dev/lib/libdrm.a(pci_sysctl.o)
 .comment       0x0000000000000012       0x13 /home/asergey/runtime-EclipseApplication/x86dev/lib/libdrm.a(bios_pcialloc.o)
 .comment       0x0000000000000012       0x13 /home/asergey/runtime-EclipseApplication/x86dev/lib/libkernel.a(bread.o)
 .comment       0x0000000000000012       0x13 /home/asergey/runtime-EclipseApplication/x86dev/lib/libkernel.a(chread.o)
 .comment       0x0000000000000012       0x13 /home/asergey/runtime-EclipseApplication/x86dev/lib/libkernel.a(ddread.o)
 .comment       0x0000000000000012       0x13 /home/asergey/runtime-EclipseApplication/x86dev/lib/libkernel.a(deliver.o)
 .comment       0x0000000000000012       0x13 /home/asergey/runtime-EclipseApplication/x86dev/lib/libkernel.a(dfread.o)
 .comment       0x0000000000000012       0x13 /home/asergey/runtime-EclipseApplication/x86dev/lib/libkernel.a(environ.o)
 .comment       0x0000000000000012       0x13 /home/asergey/runtime-EclipseApplication/x86dev/lib/libkernel.a(exception.o)
 .comment       0x0000000000000012       0x13 /home/asergey/runtime-EclipseApplication/x86dev/lib/libkernel.a(exit.o)
 .comment       0x0000000000000012       0x13 /home/asergey/runtime-EclipseApplication/x86dev/lib/libkernel.a(fast_ada.o)
 .comment       0x0000000000000012       0x13 /home/asergey/runtime-EclipseApplication/x86dev/lib/libkernel.a(file_open.o)
 .comment       0x0000000000000012       0x13 /home/asergey/runtime-EclipseApplication/x86dev/lib/libkernel.a(fpcontext.o)
 .comment       0x0000000000000012       0x13 /home/asergey/runtime-EclipseApplication/x86dev/lib/libkernel.a(get_freefile.o)
 .comment       0x0000000000000012       0x13 /home/asergey/runtime-EclipseApplication/x86dev/lib/libkernel.a(getmem.o)
 .comment       0x0000000000000012       0x13 /home/asergey/runtime-EclipseApplication/x86dev/lib/libkernel.a(getrusage.o)
 .comment       0x0000000000000012       0x13 /home/asergey/runtime-EclipseApplication/x86dev/lib/libkernel.a(hm_except.o)
 .comment       0x0000000000000012       0x13 /home/asergey/runtime-EclipseApplication/x86dev/lib/libkernel.a(hwmarks.o)
 .comment       0x0000000000000012       0x13 /home/asergey/runtime-EclipseApplication/x86dev/lib/libkernel.a(initdrivers.o)
 .comment       0x0000000000000012       0x13 /home/asergey/runtime-EclipseApplication/x86dev/lib/libkernel.a(inode.o)
 .comment       0x0000000000000012       0x13 /home/asergey/runtime-EclipseApplication/x86dev/lib/libkernel.a(ioint.o)
 .comment       0x0000000000000012       0x13 /home/asergey/runtime-EclipseApplication/x86dev/lib/libkernel.a(kern_syms.o)
 .comment       0x0000000000000012       0x13 /home/asergey/runtime-EclipseApplication/x86dev/lib/libkernel.a(kprintf.o)
 .comment       0x0000000000000012       0x13 /home/asergey/runtime-EclipseApplication/x86dev/lib/libkernel.a(globswap.o)
 .comment       0x0000000000000012       0x13 /home/asergey/runtime-EclipseApplication/x86dev/lib/libkernel.a(lockf.o)
 .comment       0x0000000000000012       0x13 /home/asergey/runtime-EclipseApplication/x86dev/lib/libkernel.a(lynxfs.o)
 .comment       0x0000000000000012       0x13 /home/asergey/runtime-EclipseApplication/x86dev/lib/libkernel.a(main.o)
 .comment       0x0000000000000012       0x13 /home/asergey/runtime-EclipseApplication/x86dev/lib/libkernel.a(map_kernel_am.o)
 .comment       0x0000000000000012       0x13 /home/asergey/runtime-EclipseApplication/x86dev/lib/libkernel.a(mem_map.o)
 .comment       0x0000000000000012       0x13 /home/asergey/runtime-EclipseApplication/x86dev/lib/libkernel.a(name_server.o)
 .comment       0x0000000000000012       0x13 /home/asergey/runtime-EclipseApplication/x86dev/lib/libkernel.a(nux.o)
 .comment       0x0000000000000012       0x13 /home/asergey/runtime-EclipseApplication/x86dev/lib/libkernel.a(osm.o)
 .comment       0x0000000000000012       0x13 /home/asergey/runtime-EclipseApplication/x86dev/lib/libkernel.a(pagefault.o)
 .comment       0x0000000000000012       0x13 /home/asergey/runtime-EclipseApplication/x86dev/lib/libkernel.a(panic.o)
 .comment       0x0000000000000012       0x13 /home/asergey/runtime-EclipseApplication/x86dev/lib/libkernel.a(perm.o)
 .comment       0x0000000000000012       0x13 /home/asergey/runtime-EclipseApplication/x86dev/lib/libkernel.a(pipe.o)
 .comment       0x0000000000000012       0x13 /home/asergey/runtime-EclipseApplication/x86dev/lib/libkernel.a(priot.o)
 .comment       0x0000000000000012       0x13 /home/asergey/runtime-EclipseApplication/x86dev/lib/libkernel.a(procinit.o)
 .comment       0x0000000000000012       0x13 /home/asergey/runtime-EclipseApplication/x86dev/lib/libkernel.a(reco.o)
 .comment       0x0000000000000012       0x13 /home/asergey/runtime-EclipseApplication/x86dev/lib/libkernel.a(resched.o)
 .comment       0x0000000000000012       0x13 /home/asergey/runtime-EclipseApplication/x86dev/lib/libkernel.a(rtimeset.o)
 .comment       0x0000000000000012       0x13 /home/asergey/runtime-EclipseApplication/x86dev/lib/libkernel.a(sbrk.o)
 .comment       0x0000000000000012       0x13 /home/asergey/runtime-EclipseApplication/x86dev/lib/libkernel.a(setpriority.o)
 .comment       0x0000000000000012       0x13 /home/asergey/runtime-EclipseApplication/x86dev/lib/libkernel.a(setscheduler.o)
 .comment       0x0000000000000012       0x13 /home/asergey/runtime-EclipseApplication/x86dev/lib/libkernel.a(stack.o)
 .comment       0x0000000000000012       0x13 /home/asergey/runtime-EclipseApplication/x86dev/lib/libkernel.a(stask.o)
 .comment       0x0000000000000012       0x13 /home/asergey/runtime-EclipseApplication/x86dev/lib/libkernel.a(stopcpu.o)
 .comment       0x0000000000000012       0x13 /home/asergey/runtime-EclipseApplication/x86dev/lib/libkernel.a(swait.o)
 .comment       0x0000000000000012       0x13 /home/asergey/runtime-EclipseApplication/x86dev/lib/libkernel.a(sysbrk.o)
 .comment       0x0000000000000012       0x13 /home/asergey/runtime-EclipseApplication/x86dev/lib/libkernel.a(tde.o)
 .comment       0x0000000000000012       0x13 /home/asergey/runtime-EclipseApplication/x86dev/lib/libkernel.a(threads.o)
 .comment       0x0000000000000012       0x13 /home/asergey/runtime-EclipseApplication/x86dev/lib/libkernel.a(time.o)
 .comment       0x0000000000000012       0x13 /home/asergey/runtime-EclipseApplication/x86dev/lib/libkernel.a(timeout.o)
 .comment       0x0000000000000012       0x13 /home/asergey/runtime-EclipseApplication/x86dev/lib/libkernel.a(usleep.o)
 .comment       0x0000000000000012       0x13 /home/asergey/runtime-EclipseApplication/x86dev/lib/libkernel.a(utils.o)
 .comment       0x0000000000000012       0x13 /home/asergey/runtime-EclipseApplication/x86dev/lib/libkernel.a(vfs.o)
 .comment       0x0000000000000012       0x13 /home/asergey/runtime-EclipseApplication/x86dev/lib/libkernel.a(vmos_rinsert.o)
 .comment       0x0000000000000012       0x13 /home/asergey/runtime-EclipseApplication/x86dev/lib/libkernel.a(vmosschedu.o)
 .comment       0x0000000000000012       0x13 /home/asergey/runtime-EclipseApplication/x86dev/lib/libkernel.a(execve.o)
 .comment       0x0000000000000012       0x13 /home/asergey/runtime-EclipseApplication/x86dev/lib/libkernel.a(fast_sem_open.o)
 .comment       0x0000000000000012       0x13 /home/asergey/runtime-EclipseApplication/x86dev/lib/libkernel.a(fork.o)
 .comment       0x0000000000000012       0x13 /home/asergey/runtime-EclipseApplication/x86dev/lib/libkernel.a(install.o)
 .comment       0x0000000000000012       0x13 /home/asergey/runtime-EclipseApplication/x86dev/lib/libkernel.a(install_elf.o)
 .comment       0x0000000000000012       0x13 /home/asergey/runtime-EclipseApplication/x86dev/lib/libkernel.a(init_global_resources.o)
 .comment       0x0000000000000012       0x13 /home/asergey/runtime-EclipseApplication/x86dev/lib/libkernel.a(load.o)
 .comment       0x0000000000000012       0x13 /home/asergey/runtime-EclipseApplication/x86dev/lib/libkernel.a(load_elf.o)
 .comment       0x0000000000000012       0x13 /home/asergey/runtime-EclipseApplication/x86dev/lib/libkernel.a(load_elf64.o)
 .comment       0x0000000000000012       0x13 /home/asergey/runtime-EclipseApplication/x86dev/lib/libkernel.a(mempartition.o)
 .comment       0x0000000000000012       0x13 /home/asergey/runtime-EclipseApplication/x86dev/lib/libkernel.a(mmap.o)
 .comment       0x0000000000000012       0x13 /home/asergey/runtime-EclipseApplication/x86dev/lib/libkernel.a(pshmem.o)
 .comment       0x0000000000000012       0x13 /home/asergey/runtime-EclipseApplication/x86dev/lib/libkernel.a(sm.o)
 .comment       0x0000000000000012       0x13 /home/asergey/runtime-EclipseApplication/x86dev/lib/libkernel.a(sc_router.o)
 .comment       0x0000000000000012       0x13 /home/asergey/runtime-EclipseApplication/x86dev/lib/libkernel.a(syscall_table.o)
 .comment       0x0000000000000012       0x13 /home/asergey/runtime-EclipseApplication/x86dev/lib/libkernel.a(wait.o)
 .comment       0x0000000000000012       0x13 /home/asergey/runtime-EclipseApplication/x86dev/lib/libkernel.a(cfread.o)
 .comment       0x0000000000000012       0x13 /home/asergey/runtime-EclipseApplication/x86dev/lib/libkernel.a(cprintf.o)
 .comment       0x0000000000000012       0x13 /home/asergey/runtime-EclipseApplication/x86dev/lib/libkernel.a(hwt_bench.o)
 .comment       0x0000000000000012       0x13 /home/asergey/runtime-EclipseApplication/x86dev/lib/libkernel.a(kern_mib.o)
 .comment       0x0000000000000012       0x13 /home/asergey/runtime-EclipseApplication/x86dev/lib/libkernel.a(kern_sysctl.o)
 .comment       0x0000000000000012       0x13 /home/asergey/runtime-EclipseApplication/x86dev/lib/libkernel.a(loadavg.o)
 .comment       0x0000000000000012       0x13 /home/asergey/runtime-EclipseApplication/x86dev/lib/libkernel.a(sysctl_init.o)
 .comment       0x0000000000000012       0x13 /home/asergey/runtime-EclipseApplication/x86dev/lib/libkernel.a(sysinfo.o)
 .comment       0x0000000000000012       0x13 /home/asergey/runtime-EclipseApplication/x86dev/lib/libkernel.a(ttymgr.o)
 .comment       0x0000000000000012       0x13 /home/asergey/runtime-EclipseApplication/x86dev/lib/libkernel.a(uninstall.o)
 .comment       0x0000000000000012       0x13 /home/asergey/runtime-EclipseApplication/x86dev/lib/libkernel.a(utimes.o)
 .comment       0x0000000000000012       0x13 /home/asergey/runtime-EclipseApplication/x86dev/lib/libkernel.a(globmem.o)
 .comment       0x0000000000000012       0x13 /home/asergey/runtime-EclipseApplication/x86dev/lib/libkernel.a(clock_impl.o)
 .comment       0x0000000000000012       0x13 /home/asergey/runtime-EclipseApplication/x86dev/lib/libkernel.a(clock_getcpuclockid.o)
 .comment       0x0000000000000012       0x13 /home/asergey/runtime-EclipseApplication/x86dev/lib/libkernel.a(clock_getres.o)
 .comment       0x0000000000000012       0x13 /home/asergey/runtime-EclipseApplication/x86dev/lib/libkernel.a(clock_gettime.o)
 .comment       0x0000000000000012       0x13 /home/asergey/runtime-EclipseApplication/x86dev/lib/libkernel.a(clock_nanosleep.o)
 .comment       0x0000000000000012       0x13 /home/asergey/runtime-EclipseApplication/x86dev/lib/libkernel.a(clock_settime.o)
 .comment       0x0000000000000012       0x13 /home/asergey/runtime-EclipseApplication/x86dev/lib/libkernel.a(timer_impl.o)
 .comment       0x0000000000000012       0x13 /home/asergey/runtime-EclipseApplication/x86dev/lib/libkernel.a(gettime_op.o)
 .comment       0x0000000000000012       0x13 /home/asergey/runtime-EclipseApplication/x86dev/lib/libkernel.a(getitimer.o)
 .comment       0x0000000000000012       0x13 /home/asergey/runtime-EclipseApplication/x86dev/lib/libkernel.a(timer_create.o)
 .comment       0x0000000000000012       0x13 /home/asergey/runtime-EclipseApplication/x86dev/lib/libkernel.a(timer_delete.o)
 .comment       0x0000000000000012       0x13 /home/asergey/runtime-EclipseApplication/x86dev/lib/libkernel.a(timer_getoverrun.o)
 .comment       0x0000000000000012       0x13 /home/asergey/runtime-EclipseApplication/x86dev/lib/libkernel.a(timer_gettime.o)
 .comment       0x0000000000000012       0x13 /home/asergey/runtime-EclipseApplication/x86dev/lib/libkernel.a(timer_settime.o)
 .comment       0x0000000000000012       0x13 /home/asergey/runtime-EclipseApplication/x86dev/lib/libkernel.a(clock_adjtimex.o)
 .comment       0x0000000000000012       0x13 /home/asergey/runtime-EclipseApplication/x86dev/lib/libkernel.a(reboot_impl.o)
 .comment       0x0000000000000012       0x13 /home/asergey/runtime-EclipseApplication/x86dev/lib/libkernel.a(get_resource_entry.o)
 .comment       0x0000000000000012       0x13 /home/asergey/runtime-EclipseApplication/x86dev/lib/libkernel.a(ptrace.o)
 .comment       0x0000000000000012       0x13 /home/asergey/runtime-EclipseApplication/x86dev/lib/libkernel.a(reboot.o)
 .comment       0x0000000000000012       0x13 /home/asergey/runtime-EclipseApplication/x86dev/lib/libkernel.a(ulimit.o)
 .comment       0x0000000000000012       0x13 /home/asergey/runtime-EclipseApplication/x86dev/lib/libkernel.a(uname.o)
 .comment       0x0000000000000012       0x13 /home/asergey/runtime-EclipseApplication/x86dev/lib/libkernel.a(mount_impl.o)
 .comment       0x0000000000000012       0x13 /home/asergey/runtime-EclipseApplication/x86dev/lib/libkernel.a(getdents.o)
 .comment       0x0000000000000012       0x13 /home/asergey/runtime-EclipseApplication/x86dev/lib/libkernel.a(mount.o)
 .comment       0x0000000000000012       0x13 /home/asergey/runtime-EclipseApplication/x86dev/lib/libkernel.a(umount.o)
 .comment       0x0000000000000012       0x13 /home/asergey/runtime-EclipseApplication/x86dev/lib/libkernel.a(rwbounds.o)
 .comment       0x0000000000000012       0x13 /home/asergey/runtime-EclipseApplication/x86dev/lib/libkernel.a(socket_impl.o)
 .comment       0x0000000000000012       0x13 /home/asergey/runtime-EclipseApplication/x86dev/lib/libkernel.a(accept.o)
 .comment       0x0000000000000012       0x13 /home/asergey/runtime-EclipseApplication/x86dev/lib/libkernel.a(bind.o)
 .comment       0x0000000000000012       0x13 /home/asergey/runtime-EclipseApplication/x86dev/lib/libkernel.a(connect.o)
 .comment       0x0000000000000012       0x13 /home/asergey/runtime-EclipseApplication/x86dev/lib/libkernel.a(gethostname.o)
 .comment       0x0000000000000012       0x13 /home/asergey/runtime-EclipseApplication/x86dev/lib/libkernel.a(getpeername.o)
 .comment       0x0000000000000012       0x13 /home/asergey/runtime-EclipseApplication/x86dev/lib/libkernel.a(getsockname.o)
 .comment       0x0000000000000012       0x13 /home/asergey/runtime-EclipseApplication/x86dev/lib/libkernel.a(getsockopt.o)
 .comment       0x0000000000000012       0x13 /home/asergey/runtime-EclipseApplication/x86dev/lib/libkernel.a(listen.o)
 .comment       0x0000000000000012       0x13 /home/asergey/runtime-EclipseApplication/x86dev/lib/libkernel.a(recv.o)
 .comment       0x0000000000000012       0x13 /home/asergey/runtime-EclipseApplication/x86dev/lib/libkernel.a(recvfrom.o)
 .comment       0x0000000000000012       0x13 /home/asergey/runtime-EclipseApplication/x86dev/lib/libkernel.a(recvmsg.o)
 .comment       0x0000000000000012       0x13 /home/asergey/runtime-EclipseApplication/x86dev/lib/libkernel.a(send.o)
 .comment       0x0000000000000012       0x13 /home/asergey/runtime-EclipseApplication/x86dev/lib/libkernel.a(sendmsg.o)
 .comment       0x0000000000000012       0x13 /home/asergey/runtime-EclipseApplication/x86dev/lib/libkernel.a(sendto.o)
 .comment       0x0000000000000012       0x13 /home/asergey/runtime-EclipseApplication/x86dev/lib/libkernel.a(setsockopt.o)
 .comment       0x0000000000000012       0x13 /home/asergey/runtime-EclipseApplication/x86dev/lib/libkernel.a(shutdown.o)
 .comment       0x0000000000000012       0x13 /home/asergey/runtime-EclipseApplication/x86dev/lib/libkernel.a(socket.o)
 .comment       0x0000000000000012       0x13 /home/asergey/runtime-EclipseApplication/x86dev/lib/libkernel.a(socketpair.o)
 .comment       0x0000000000000012       0x13 /home/asergey/runtime-EclipseApplication/x86dev/lib/libkernel.a(chdir_impl.o)
 .comment       0x0000000000000012       0x13 /home/asergey/runtime-EclipseApplication/x86dev/lib/libkernel.a(chmod_impl.o)
 .comment       0x0000000000000012       0x13 /home/asergey/runtime-EclipseApplication/x86dev/lib/libkernel.a(chown_impl.o)
 .comment       0x0000000000000012       0x13 /home/asergey/runtime-EclipseApplication/x86dev/lib/libkernel.a(fcntl_impl.o)
 .comment       0x0000000000000012       0x13 /home/asergey/runtime-EclipseApplication/x86dev/lib/libkernel.a(link_impl.o)
 .comment       0x0000000000000012       0x13 /home/asergey/runtime-EclipseApplication/x86dev/lib/libkernel.a(read_impl.o)
 .comment       0x0000000000000012       0x13 /home/asergey/runtime-EclipseApplication/x86dev/lib/libkernel.a(readlink_impl.o)
 .comment       0x0000000000000012       0x13 /home/asergey/runtime-EclipseApplication/x86dev/lib/libkernel.a(stat_impl.o)
 .comment       0x0000000000000012       0x13 /home/asergey/runtime-EclipseApplication/x86dev/lib/libkernel.a(access.o)
 .comment       0x0000000000000012       0x13 /home/asergey/runtime-EclipseApplication/x86dev/lib/libkernel.a(chcdev.o)
 .comment       0x0000000000000012       0x13 /home/asergey/runtime-EclipseApplication/x86dev/lib/libkernel.a(chdir.o)
 .comment       0x0000000000000012       0x13 /home/asergey/runtime-EclipseApplication/x86dev/lib/libkernel.a(chmod.o)
 .comment       0x0000000000000012       0x13 /home/asergey/runtime-EclipseApplication/x86dev/lib/libkernel.a(chown.o)
 .comment       0x0000000000000012       0x13 /home/asergey/runtime-EclipseApplication/x86dev/lib/libkernel.a(close.o)
 .comment       0x0000000000000012       0x13 /home/asergey/runtime-EclipseApplication/x86dev/lib/libkernel.a(dup2.o)
 .comment       0x0000000000000012       0x13 /home/asergey/runtime-EclipseApplication/x86dev/lib/libkernel.a(dup.o)
 .comment       0x0000000000000012       0x13 /home/asergey/runtime-EclipseApplication/x86dev/lib/libkernel.a(fchdir.o)
 .comment       0x0000000000000012       0x13 /home/asergey/runtime-EclipseApplication/x86dev/lib/libkernel.a(fchmod.o)
 .comment       0x0000000000000012       0x13 /home/asergey/runtime-EclipseApplication/x86dev/lib/libkernel.a(fchown.o)
 .comment       0x0000000000000012       0x13 /home/asergey/runtime-EclipseApplication/x86dev/lib/libkernel.a(fcntl.o)
 .comment       0x0000000000000012       0x13 /home/asergey/runtime-EclipseApplication/x86dev/lib/libkernel.a(fdatasync.o)
 .comment       0x0000000000000012       0x13 /home/asergey/runtime-EclipseApplication/x86dev/lib/libkernel.a(flock.o)
 .comment       0x0000000000000012       0x13 /home/asergey/runtime-EclipseApplication/x86dev/lib/libkernel.a(fstat.o)
 .comment       0x0000000000000012       0x13 /home/asergey/runtime-EclipseApplication/x86dev/lib/libkernel.a(fstatfs.o)
 .comment       0x0000000000000012       0x13 /home/asergey/runtime-EclipseApplication/x86dev/lib/libkernel.a(fsync.o)
 .comment       0x0000000000000012       0x13 /home/asergey/runtime-EclipseApplication/x86dev/lib/libkernel.a(ftruncate.o)
 .comment       0x0000000000000012       0x13 /home/asergey/runtime-EclipseApplication/x86dev/lib/libkernel.a(getdtablesize.o)
 .comment       0x0000000000000012       0x13 /home/asergey/runtime-EclipseApplication/x86dev/lib/libkernel.a(ioctl.o)
 .comment       0x0000000000000012       0x13 /home/asergey/runtime-EclipseApplication/x86dev/lib/libkernel.a(link.o)
 .comment       0x0000000000000012       0x13 /home/asergey/runtime-EclipseApplication/x86dev/lib/libkernel.a(lseek64.o)
 .comment       0x0000000000000012       0x13 /home/asergey/runtime-EclipseApplication/x86dev/lib/libkernel.a(lseek.o)
 .comment       0x0000000000000012       0x13 /home/asergey/runtime-EclipseApplication/x86dev/lib/libkernel.a(lstat.o)
 .comment       0x0000000000000012       0x13 /home/asergey/runtime-EclipseApplication/x86dev/lib/libkernel.a(mkdir.o)
 .comment       0x0000000000000012       0x13 /home/asergey/runtime-EclipseApplication/x86dev/lib/libkernel.a(mknod.o)
 .comment       0x0000000000000012       0x13 /home/asergey/runtime-EclipseApplication/x86dev/lib/libkernel.a(open.o)
 .comment       0x0000000000000012       0x13 /home/asergey/runtime-EclipseApplication/x86dev/lib/libkernel.a(read.o)
 .comment       0x0000000000000012       0x13 /home/asergey/runtime-EclipseApplication/x86dev/lib/libkernel.a(readlink.o)
 .comment       0x0000000000000012       0x13 /home/asergey/runtime-EclipseApplication/x86dev/lib/libkernel.a(readv.o)
 .comment       0x0000000000000012       0x13 /home/asergey/runtime-EclipseApplication/x86dev/lib/libkernel.a(rename.o)
 .comment       0x0000000000000012       0x13 /home/asergey/runtime-EclipseApplication/x86dev/lib/libkernel.a(rmdir.o)
 .comment       0x0000000000000012       0x13 /home/asergey/runtime-EclipseApplication/x86dev/lib/libkernel.a(select.o)
 .comment       0x0000000000000012       0x13 /home/asergey/runtime-EclipseApplication/x86dev/lib/libkernel.a(stat.o)
 .comment       0x0000000000000012       0x13 /home/asergey/runtime-EclipseApplication/x86dev/lib/libkernel.a(statfs.o)
 .comment       0x0000000000000012       0x13 /home/asergey/runtime-EclipseApplication/x86dev/lib/libkernel.a(symlink.o)
 .comment       0x0000000000000012       0x13 /home/asergey/runtime-EclipseApplication/x86dev/lib/libkernel.a(sync.o)
 .comment       0x0000000000000012       0x13 /home/asergey/runtime-EclipseApplication/x86dev/lib/libkernel.a(umask.o)
 .comment       0x0000000000000012       0x13 /home/asergey/runtime-EclipseApplication/x86dev/lib/libkernel.a(unlink.o)
 .comment       0x0000000000000012       0x13 /home/asergey/runtime-EclipseApplication/x86dev/lib/libkernel.a(write.o)
 .comment       0x0000000000000012       0x13 /home/asergey/runtime-EclipseApplication/x86dev/lib/libkernel.a(writev.o)
 .comment       0x0000000000000012       0x13 /home/asergey/runtime-EclipseApplication/x86dev/lib/libkernel.a(blkwak_impl.o)
 .comment       0x0000000000000012       0x13 /home/asergey/runtime-EclipseApplication/x86dev/lib/libkernel.a(block.o)
 .comment       0x0000000000000012       0x13 /home/asergey/runtime-EclipseApplication/x86dev/lib/libkernel.a(rewait.o)
 .comment       0x0000000000000012       0x13 /home/asergey/runtime-EclipseApplication/x86dev/lib/libkernel.a(wakeup.o)
 .comment       0x0000000000000012       0x13 /home/asergey/runtime-EclipseApplication/x86dev/lib/libkernel.a(kill_impl.o)
 .comment       0x0000000000000012       0x13 /home/asergey/runtime-EclipseApplication/x86dev/lib/libkernel.a(signal_impl.o)
 .comment       0x0000000000000012       0x13 /home/asergey/runtime-EclipseApplication/x86dev/lib/libkernel.a(kill.o)
 .comment       0x0000000000000012       0x13 /home/asergey/runtime-EclipseApplication/x86dev/lib/libkernel.a(sigaction.o)
 .comment       0x0000000000000012       0x13 /home/asergey/runtime-EclipseApplication/x86dev/lib/libkernel.a(sigblock.o)
 .comment       0x0000000000000012       0x13 /home/asergey/runtime-EclipseApplication/x86dev/lib/libkernel.a(signotify.o)
 .comment       0x0000000000000012       0x13 /home/asergey/runtime-EclipseApplication/x86dev/lib/libkernel.a(sigpause.o)
 .comment       0x0000000000000012       0x13 /home/asergey/runtime-EclipseApplication/x86dev/lib/libkernel.a(sigpending.o)
 .comment       0x0000000000000012       0x13 /home/asergey/runtime-EclipseApplication/x86dev/lib/libkernel.a(sigprocmask.o)
 .comment       0x0000000000000012       0x13 /home/asergey/runtime-EclipseApplication/x86dev/lib/libkernel.a(sigqueue.o)
 .comment       0x0000000000000012       0x13 /home/asergey/runtime-EclipseApplication/x86dev/lib/libkernel.a(sigsetmask.o)
 .comment       0x0000000000000012       0x13 /home/asergey/runtime-EclipseApplication/x86dev/lib/libkernel.a(sigsuspend.o)
 .comment       0x0000000000000012       0x13 /home/asergey/runtime-EclipseApplication/x86dev/lib/libkernel.a(sigtimedwait.o)
 .comment       0x0000000000000012       0x13 /home/asergey/runtime-EclipseApplication/x86dev/lib/libkernel.a(sigvec.o)
 .comment       0x0000000000000012       0x13 /home/asergey/runtime-EclipseApplication/x86dev/lib/libkernel.a(sigwait.o)
 .comment       0x0000000000000012       0x13 /home/asergey/runtime-EclipseApplication/x86dev/lib/libkernel.a(get_set_thread_priority.o)
 .comment       0x0000000000000012       0x13 /home/asergey/runtime-EclipseApplication/x86dev/lib/libkernel.a(adjtime.o)
 .comment       0x0000000000000012       0x13 /home/asergey/runtime-EclipseApplication/x86dev/lib/libkernel.a(gettimeofday.o)
 .comment       0x0000000000000012       0x13 /home/asergey/runtime-EclipseApplication/x86dev/lib/libkernel.a(times.o)
 .comment       0x0000000000000012       0x13 /home/asergey/runtime-EclipseApplication/x86dev/lib/libkernel.a(settimeofday.o)
 .comment       0x0000000000000012       0x13 /home/asergey/runtime-EclipseApplication/x86dev/lib/libmisc.a(nhn.o)
 .comment       0x0000000000000012       0x13 /home/asergey/runtime-EclipseApplication/x86dev/lib/libmisc.a(reg_access.o)
 .comment       0x0000000000000012       0x13 /home/asergey/runtime-EclipseApplication/x86dev/lib/libmisc.a(abs.o)
 .comment       0x0000000000000012       0x13 /home/asergey/runtime-EclipseApplication/x86dev/lib/libmisc.a(calloc.o)
 .comment       0x0000000000000012       0x13 /home/asergey/runtime-EclipseApplication/x86dev/lib/libmisc.a(s_rindex.o)
 .comment       0x0000000000000012       0x13 /home/asergey/runtime-EclipseApplication/x86dev/lib/libmisc.a(strcat.o)
 .comment       0x0000000000000012       0x13 /home/asergey/runtime-EclipseApplication/x86dev/lib/libmisc.a(strcmp.o)
 .comment       0x0000000000000012       0x13 /home/asergey/runtime-EclipseApplication/x86dev/lib/libmisc.a(strchr.o)
 .comment       0x0000000000000012       0x13 /home/asergey/runtime-EclipseApplication/x86dev/lib/libmisc.a(strcpy.o)
 .comment       0x0000000000000012       0x13 /home/asergey/runtime-EclipseApplication/x86dev/lib/libmisc.a(strlen.o)
 .comment       0x0000000000000012       0x13 /home/asergey/runtime-EclipseApplication/x86dev/lib/libmisc.a(strncat.o)
 .comment       0x0000000000000012       0x13 /home/asergey/runtime-EclipseApplication/x86dev/lib/libmisc.a(strncmp.o)
 .comment       0x0000000000000012       0x13 /home/asergey/runtime-EclipseApplication/x86dev/lib/libmisc.a(strncpy.o)
 .comment       0x0000000000000012       0x13 /home/asergey/runtime-EclipseApplication/x86dev/lib/libmisc.a(strnlen.o)
 .comment       0x0000000000000012       0x13 /home/asergey/runtime-EclipseApplication/x86dev/lib/libmisc.a(malloc.o)
 .comment       0x0000000000000012       0x13 /home/asergey/runtime-EclipseApplication/x86dev/lib/libmisc.a(memcmp.o)
 .comment       0x0000000000000012       0x13 /home/asergey/runtime-EclipseApplication/x86dev/lib/libmisc.a(atomic_ops.o)
 .comment       0x0000000000000012       0x13 /home/asergey/runtime-EclipseApplication/x86dev/lib/libmisc.a(memcpy_x86.o)
 .comment       0x0000000000000012       0x13 /home/asergey/runtime-EclipseApplication/x86dev/lib/libmisc.a(memset_x86.o)
 .comment       0x0000000000000012       0x13 /home/asergey/runtime-EclipseApplication/x86dev/lib/libfamily_x86_64.a(csp_misc.o)
 .comment       0x0000000000000012       0x13 /home/asergey/runtime-EclipseApplication/x86dev/lib/libfamily_x86_64.a(xcontext.o)
 .comment       0x0000000000000012       0x13 /home/asergey/runtime-EclipseApplication/x86dev/lib/libfamily_x86_64.a(reloc_elf.o)
 .comment       0x0000000000000012       0x13 /home/asergey/runtime-EclipseApplication/x86dev/lib/libfamily_x86_64.a(signal.o)
 .comment       0x0000000000000012       0x13 /home/asergey/runtime-EclipseApplication/x86dev/lib/libfamily_x86_64.a(syscall.o)
 .comment       0x0000000000000012       0x13 /home/asergey/runtime-EclipseApplication/x86dev/lib/libcsp_x86_64.a(context.o)
 .comment       0x0000000000000012       0x13 /home/asergey/runtime-EclipseApplication/x86dev/lib/libcsp_x86_64.a(csp_mem_map.o)
 .comment       0x0000000000000012       0x13 /home/asergey/runtime-EclipseApplication/x86dev/lib/libcsp_x86_64.a(fpu.o)
 .comment       0x0000000000000012       0x13 /home/asergey/runtime-EclipseApplication/x86dev/lib/libcsp_x86_64.a(tlb.o)
 .comment       0x0000000000000012       0x13 /home/asergey/runtime-EclipseApplication/x86dev/lib/libptrace_x86_64.a(ptrace_trap.o)
 .comment       0x0000000000000012       0x13 /home/asergey/runtime-EclipseApplication/x86dev/lib/libptrace.a(core.o)

.debug
 *(.debug)

.line
 *(.line)

.debug_srcinfo
 *(.debug_srcinfo)

.debug_sfnames
 *(.debug_sfnames)

.debug_aranges
 *(.debug_aranges)

.debug_pubnames
 *(.debug_pubnames)

.debug_info
 *(.debug_info)

.debug_abbrev
 *(.debug_abbrev)

.debug_line
 *(.debug_line)

.debug_frame
 *(.debug_frame)

.debug_str
 *(.debug_str)

.debug_loc
 *(.debug_loc)

.debug_macinfo
 *(.debug_macinfo)

.debug_weaknames
 *(.debug_weaknames)

.debug_funcnames
 *(.debug_funcnames)

.debug_typenames
 *(.debug_typenames)

.debug_varnames
 *(.debug_varnames)
Address of section .text set to 0xffffffff80001000
LOAD bsp.x86_64.o
LOAD conf_am.o
LOAD conf.o
LOAD info.o
LOAD timestamp.o
START GROUP
LOAD /home/asergey/runtime-EclipseApplication/x86dev/lib/libfamily_x86_64.a
LOAD /home/asergey/runtime-EclipseApplication/x86dev/lib/libcsp_x86_64.a
LOAD /home/asergey/runtime-EclipseApplication/x86dev/lib/libdrivers.a
LOAD /home/asergey/runtime-EclipseApplication/x86dev/lib/libdrivers_rsc.a
LOAD /home/asergey/runtime-EclipseApplication/x86dev/lib/liblcs.a
LOAD /home/asergey/runtime-EclipseApplication/x86dev/lib/libnfs_client.a
LOAD /home/asergey/runtime-EclipseApplication/x86dev/lib/libptrace_x86_64.a
LOAD /home/asergey/runtime-EclipseApplication/x86dev/lib/libptrace.a
LOAD /home/asergey/runtime-EclipseApplication/x86dev/lib/libdrm.a
LOAD /home/asergey/runtime-EclipseApplication/x86dev/lib/libkernel.a
LOAD /home/asergey/runtime-EclipseApplication/x86dev/lib/libmisc.a
END GROUP
Address of section .text-segment set to 0x100000
OUTPUT(a.out elf64-x86-64-lynx)

.text-segment   0x0000000000100000        0x0
 .text-segment  0x0000000000100000        0x0 bsp.x86_64.o
